GAS LISTING C:\Users\lsw\AppData\Local\Temp\ccZtZR5Y.s 			page 1


   1              		.file	"main.c"
   2              		.text
   3              	.Ltext0:
   4              		.cfi_sections	.debug_frame
   5              		.file 0 "C:/Users/lsw/Desktop/sgl-lite/demo" "main.c"
   6              		.section .rdata,"dr"
   7              	.LC1:
   8 0000 2E2E2F73 		.ascii "../source/sgl_core.h\0"
   8      6F757263 
   8      652F7367 
   8      6C5F636F 
   8      72652E68 
   9              		.data
  10              		.align 2
  11              	.LC0:
  12 0000 FF       		.byte	255
  13 0001 FF       		.byte	255
  14 0002 00000000 		.section	.text$SDL_main,"x"
  14      00000000 
  14      00000000 
  14      0000
  15              		.p2align 4
  16              		.globl	SDL_main
  18              		.seh_proc	SDL_main
  19              	SDL_main:
  20              	.LVL0:
  21              	.LFB6970:
  22              		.file 1 "main.c"
   1:main.c        **** #include <SDL.h>
   2:main.c        **** #include <stdlib.h>
   3:main.c        **** #include <time.h>
   4:main.c        **** #include <stdio.h>
   5:main.c        **** 
   6:main.c        **** #include <sgl.h>
   7:main.c        **** #include <math.h>
   8:main.c        **** 
   9:main.c        **** typedef struct sgl_port_sdl2 sgl_port_sdl2_t;
  10:main.c        **** 
  11:main.c        **** sgl_port_sdl2_t* sgl_port_sdl2_init(void);
  12:main.c        **** size_t sgl_port_sdl2_get_frame_count(sgl_port_sdl2_t* sdl2_dev);
  13:main.c        **** void sgl_port_sdl2_increase_frame_count(sgl_port_sdl2_t* sdl2_dev);
  14:main.c        **** void sgl_port_sdl2_deinit(sgl_port_sdl2_t* sdl2_dev);
  15:main.c        **** void flush_window_callback(void *param);
  16:main.c        **** 
  17:main.c        **** 
  18:main.c        **** 
  19:main.c        **** 
  20:main.c        **** /* 颜色定义 */
  21:main.c        **** #define SGL_COLOR_UI_BACKGROUND                    sgl_rgb(17, 17, 17)
  22:main.c        **** #define SGL_COLOR_PIDV_BACKGROUND                  sgl_rgb(34, 34, 34)
  23:main.c        **** #define SGL_COLOR_PIDV_COLOR                       sgl_rgb(70, 70, 70)
  24:main.c        **** 
  25:main.c        **** #define SGL_COLOR_TEMP_BACKGROUND                  sgl_rgb(26, 26, 46)
  26:main.c        **** #define SGL_COLOR_TEMP_COLOR                       sgl_rgb(255, 204, 6)
  27:main.c        **** #define SGL_COLOR_SET_TEMP_COLOR                   sgl_rgb(136, 204, 255)
  28:main.c        **** #define SGL_COLOR_MODE_BACKGROUND                  sgl_rgb(30, 58, 95)
  29:main.c        **** #define SGL_COLOR_MODE_COLOR                       sgl_rgb(81, 204, 255)
GAS LISTING C:\Users\lsw\AppData\Local\Temp\ccZtZR5Y.s 			page 2


  30:main.c        **** #define SGL_COLOR_WORK_BACKGROUND                  sgl_rgb(58, 26, 26)
  31:main.c        **** #define SGL_COLOR_WORK_COLOR                       sgl_rgb(200, 50, 61)
  32:main.c        **** #define SGL_COLOR_FAN_BACKGROUND                   sgl_rgb(26, 58, 26)
  33:main.c        **** #define SGL_COLOR_FAN_COLOR                        sgl_rgb(80, 255, 153)
  34:main.c        **** 
  35:main.c        **** 
  36:main.c        **** int main(int argc, char *argv[])
  37:main.c        **** {
  23              		.loc 1 37 1 view -0
  24              		.cfi_startproc
  25              		.loc 1 37 1 is_stmt 0 view .LVU1
  26 0000 55       		pushq	%rbp
  27              		.seh_pushreg	%rbp
  28              		.cfi_def_cfa_offset 16
  29              		.cfi_offset 6, -16
  30 0001 57       		pushq	%rdi
  31              		.seh_pushreg	%rdi
  32              		.cfi_def_cfa_offset 24
  33              		.cfi_offset 5, -24
  34 0002 56       		pushq	%rsi
  35              		.seh_pushreg	%rsi
  36              		.cfi_def_cfa_offset 32
  37              		.cfi_offset 4, -32
  38 0003 53       		pushq	%rbx
  39              		.seh_pushreg	%rbx
  40              		.cfi_def_cfa_offset 40
  41              		.cfi_offset 3, -40
  42 0004 4883EC68 		subq	$104, %rsp
  43              		.seh_stackalloc	104
  44              		.cfi_def_cfa_offset 144
  45              		.seh_endprologue
  38:main.c        ****     int quit = 0;
  46              		.loc 1 38 5 is_stmt 1 view .LVU2
  47              	.LVL1:
  39:main.c        ****     SDL_Event MouseEvent;
  48              		.loc 1 39 5 view .LVU3
  40:main.c        ****     sgl_port_sdl2_t* sdl2_dev = NULL;
  49              		.loc 1 40 5 view .LVU4
  41:main.c        **** 
  42:main.c        ****     /* 初始化SDL2端口 */
  43:main.c        ****     sdl2_dev = sgl_port_sdl2_init();
  50              		.loc 1 43 5 view .LVU5
  51              		.loc 1 43 16 is_stmt 0 view .LVU6
  52 0008 E8000000 		call	sgl_port_sdl2_init
  52      00
  53              	.LVL2:
  44:main.c        ****     if(sdl2_dev == NULL) {
  54              		.loc 1 44 7 view .LVU7
  55 000d 4885C0   		testq	%rax, %rax
  43:main.c        ****     if(sdl2_dev == NULL) {
  56              		.loc 1 43 16 view .LVU8
  57 0010 4889C6   		movq	%rax, %rsi
  58              	.LVL3:
  59              		.loc 1 44 5 is_stmt 1 view .LVU9
  60              		.loc 1 44 7 is_stmt 0 view .LVU10
  61 0013 0F84E500 		je	.L6
  61      0000
GAS LISTING C:\Users\lsw\AppData\Local\Temp\ccZtZR5Y.s 			page 3


  45:main.c        ****         return -1;
  46:main.c        ****     }
  47:main.c        **** 
  48:main.c        ****     extern const sgl_font_t consolas24;
  62              		.loc 1 48 5 is_stmt 1 view .LVU11
  49:main.c        **** 
  50:main.c        ****     sgl_page_set_color(sgl_screen_act(), SGL_COLOR_BLACK);
  63              		.loc 1 50 5 view .LVU12
  64              	.LBB46:
  65              	.LBI46:
  66              		.file 2 "../source/sgl_core.h"
   1:../source/sgl_core.h **** /* source: sgl_core.h
   2:../source/sgl_core.h ****  * Copyright (c) 2026-2028, Lishanwen
   3:../source/sgl_core.h ****  *
   4:../source/sgl_core.h ****  * Licensed under the Apache License, Version 2.0 (the "License");
   5:../source/sgl_core.h ****  * you may not use this file except in compliance with the License.
   6:../source/sgl_core.h ****  * You may obtain a copy of the License at
   7:../source/sgl_core.h ****  *
   8:../source/sgl_core.h ****  *     http://www.apache.org/licenses/LICENSE-2.0
   9:../source/sgl_core.h ****  *
  10:../source/sgl_core.h ****  * Unless required by applicable law or agreed to in writing, software
  11:../source/sgl_core.h ****  * distributed under the License is distributed on an "AS IS" BASIS,
  12:../source/sgl_core.h ****  * WITHOUT WARRANTIES OR CONDITIONS OF ANY KIND, either express or implied.
  13:../source/sgl_core.h ****  * See the License for the specific language governing permissions and
  14:../source/sgl_core.h ****  * limitations under the License.
  15:../source/sgl_core.h ****  */
  16:../source/sgl_core.h **** 
  17:../source/sgl_core.h **** #ifndef __SGL_CORE_H__
  18:../source/sgl_core.h **** #define __SGL_CORE_H__
  19:../source/sgl_core.h **** 
  20:../source/sgl_core.h **** #include "sgl_config.h"
  21:../source/sgl_core.h **** #include <stdint.h>
  22:../source/sgl_core.h **** #include <stdbool.h>
  23:../source/sgl_core.h **** #include <stddef.h>
  24:../source/sgl_core.h **** #include <string.h>
  25:../source/sgl_core.h **** #include <stdarg.h>
  26:../source/sgl_core.h **** 
  27:../source/sgl_core.h **** #ifdef __cplusplus
  28:../source/sgl_core.h **** extern "C" {
  29:../source/sgl_core.h **** #endif
  30:../source/sgl_core.h **** 
  31:../source/sgl_core.h **** #ifndef CONFIG_SGL_FBDEV_PIXEL_DEPTH
  32:../source/sgl_core.h **** #define CONFIG_SGL_FBDEV_PIXEL_DEPTH             (16)
  33:../source/sgl_core.h **** #endif
  34:../source/sgl_core.h **** 
  35:../source/sgl_core.h **** #ifndef CONFIG_SGL_SYSTICK_MS
  36:../source/sgl_core.h **** #define CONFIG_SGL_SYSTICK_MS                    (10)
  37:../source/sgl_core.h **** #endif
  38:../source/sgl_core.h **** 
  39:../source/sgl_core.h **** #ifndef CONFIG_SGL_HEAP_SIZE
  40:../source/sgl_core.h **** #define CONFIG_SGL_HEAP_SIZE                     (10240)
  41:../source/sgl_core.h **** #endif
  42:../source/sgl_core.h **** 
  43:../source/sgl_core.h **** #ifndef CONFIG_SGL_DEBUG
  44:../source/sgl_core.h **** #define CONFIG_SGL_DEBUG                         (0)
  45:../source/sgl_core.h **** #endif
  46:../source/sgl_core.h **** 
GAS LISTING C:\Users\lsw\AppData\Local\Temp\ccZtZR5Y.s 			page 4


  47:../source/sgl_core.h **** #ifndef CONFIG_SGL_FONT_COMPRESSED
  48:../source/sgl_core.h **** #define CONFIG_SGL_FONT_COMPRESSED               (0)
  49:../source/sgl_core.h **** #endif
  50:../source/sgl_core.h **** 
  51:../source/sgl_core.h **** #ifndef CONFIG_SGL_FONT_SMALL_TABLE
  52:../source/sgl_core.h **** #define CONFIG_SGL_FONT_SMALL_TABLE              (0)
  53:../source/sgl_core.h **** #endif
  54:../source/sgl_core.h **** 
  55:../source/sgl_core.h **** /* the maximum depth of object*/
  56:../source/sgl_core.h **** #define  SGL_OBJ_DEPTH_MAX                       (8)
  57:../source/sgl_core.h **** /* the maximum number of drawing buffers */
  58:../source/sgl_core.h **** #define  SGL_DRAW_BUFFER_MAX                     (2)
  59:../source/sgl_core.h **** /* define default animation tick ms */
  60:../source/sgl_core.h **** #define  SGL_SYSTEM_TICK_MS                      CONFIG_SGL_SYSTICK_MS
  61:../source/sgl_core.h **** 
  62:../source/sgl_core.h **** 
  63:../source/sgl_core.h **** /**
  64:../source/sgl_core.h ****  * @brief Get the offset of internal members of the structure
  65:../source/sgl_core.h ****  * 
  66:../source/sgl_core.h ****  * @struct_t: structure typedef 
  67:../source/sgl_core.h ****  * @member: member in structure
  68:../source/sgl_core.h ****  * 
  69:../source/sgl_core.h ****  * @return offset of member in the structure
  70:../source/sgl_core.h **** */
  71:../source/sgl_core.h **** #define sgl_offsetof(struct_t, member)          ((size_t)&((struct_t*)0)->member)
  72:../source/sgl_core.h **** 
  73:../source/sgl_core.h **** 
  74:../source/sgl_core.h **** /**
  75:../source/sgl_core.h ****  * @brief Get the address of the structure instance.
  76:../source/sgl_core.h ****  *
  77:../source/sgl_core.h ****  * @ptr: address of the structure member.
  78:../source/sgl_core.h ****  * @type: type of the structure.
  79:../source/sgl_core.h ****  * @member: member name of the ptr in structure.
  80:../source/sgl_core.h ****  * @return pointer to address of structure 
  81:../source/sgl_core.h ****  */
  82:../source/sgl_core.h **** #define sgl_container_of(ptr, type, member)     ((type *)((char *)ptr - sgl_offsetof(type, member))
  83:../source/sgl_core.h **** 
  84:../source/sgl_core.h **** 
  85:../source/sgl_core.h **** #ifndef SGL_ARRAY_SIZE
  86:../source/sgl_core.h **** #define SGL_ARRAY_SIZE(array)                   (sizeof(array) / sizeof(array[0]))
  87:../source/sgl_core.h **** #endif
  88:../source/sgl_core.h **** 
  89:../source/sgl_core.h **** 
  90:../source/sgl_core.h **** #define SGL_ALIGN_UP(x, align)                  (((x) + ((align) - 1)) & ~((align) - 1))
  91:../source/sgl_core.h **** #define SGL_ROUND_UP(x, round)                  ((((x) + ((round) - 1)) / (round)) * (round))
  92:../source/sgl_core.h **** 
  93:../source/sgl_core.h **** #define SGL_UNUSED(x)                           (void)(x)
  94:../source/sgl_core.h **** 
  95:../source/sgl_core.h **** 
  96:../source/sgl_core.h **** #define SGL_POS_INVALID                         (0xefff)
  97:../source/sgl_core.h **** #define SGL_POS_MAX                             (8192)
  98:../source/sgl_core.h **** #define SGL_POS_MIN                             (-8192)
  99:../source/sgl_core.h **** #define SGL_RADIUS_INVALID                      (0xFFF)
 100:../source/sgl_core.h **** 
 101:../source/sgl_core.h **** #define SGL_AREA_MAX                            {.x1 = SGL_POS_MIN, .y1 = SGL_POS_MIN, .x2 = SGL_PO
 102:../source/sgl_core.h **** #define SGL_AREA_INVALID                        {.x1 = SGL_POS_MAX, .y1 = SGL_POS_MAX, .x2 = SGL_PO
 103:../source/sgl_core.h **** 
GAS LISTING C:\Users\lsw\AppData\Local\Temp\ccZtZR5Y.s 			page 5


 104:../source/sgl_core.h **** #define SGL_WIDTH_INVALID                       (-1)
 105:../source/sgl_core.h **** #define SGL_WIDTH_MAX                           (8192)
 106:../source/sgl_core.h **** #define SGL_WIDTH_MIN                           (0)
 107:../source/sgl_core.h **** #define SGL_HEIGHT_INVALID                      (-1)
 108:../source/sgl_core.h **** #define SGL_HEIGHT_MAX                          (8192)
 109:../source/sgl_core.h **** #define SGL_HEIGHT_MIN                          (0)
 110:../source/sgl_core.h **** 
 111:../source/sgl_core.h **** 
 112:../source/sgl_core.h **** #define SGL_DIRECT_HORIZONTAL                   (0)
 113:../source/sgl_core.h **** #define SGL_DIRECT_VERTICAL                     (1)
 114:../source/sgl_core.h **** 
 115:../source/sgl_core.h **** 
 116:../source/sgl_core.h **** #define SGL_ALPHA_MAX                           (255)
 117:../source/sgl_core.h **** #define SGL_ALPHA_MIN                           (0)
 118:../source/sgl_core.h **** #define SGL_ALPHA_NUM                           (256)
 119:../source/sgl_core.h **** 
 120:../source/sgl_core.h **** 
 121:../source/sgl_core.h **** #define SGL_STYLE_OK                            (0)
 122:../source/sgl_core.h **** #define SGL_STYLE_FAILED                        (UINT32_MAX)
 123:../source/sgl_core.h **** #define SGL_STYLE_INVALID                       (UINT32_MAX)
 124:../source/sgl_core.h **** 
 125:../source/sgl_core.h **** 
 126:../source/sgl_core.h **** #define SGL_COLOR_RGB233                        (8)
 127:../source/sgl_core.h **** #define SGL_COLOR_RGB565                        (16)
 128:../source/sgl_core.h **** #define SGL_COLOR_RGB888                        (24)
 129:../source/sgl_core.h **** #define SGL_COLOR_ARGB8888                      (32)
 130:../source/sgl_core.h **** 
 131:../source/sgl_core.h **** /* the pixmap format */
 132:../source/sgl_core.h **** #define  SGL_PIXMAP_FMT_NONE                    (0)
 133:../source/sgl_core.h **** #define  SGL_PIXMAP_FMT_RGB332                  (1)
 134:../source/sgl_core.h **** #define  SGL_PIXMAP_FMT_RGB565                  (2)
 135:../source/sgl_core.h **** #define  SGL_PIXMAP_FMT_RGB888                  (3)
 136:../source/sgl_core.h **** #define  SGL_PIXMAP_FMT_RLE_RGB332              (4)
 137:../source/sgl_core.h **** #define  SGL_PIXMAP_FMT_RLE_RGB565              (5)
 138:../source/sgl_core.h **** #define  SGL_PIXMAP_FMT_RLE_RGB888              (6)
 139:../source/sgl_core.h **** #define  SGL_PIXMAP_FMT_RLE_RGBA8888            (7)
 140:../source/sgl_core.h **** #define  SGL_PIXMAP_FMT_RLE_1                   (8)
 141:../source/sgl_core.h **** #define  SGL_PIXMAP_FMT_MAX                     (9)
 142:../source/sgl_core.h **** 
 143:../source/sgl_core.h **** 
 144:../source/sgl_core.h **** #ifdef __GNUC__            /* gcc compiler   */
 145:../source/sgl_core.h **** #ifndef likely
 146:../source/sgl_core.h **** #  define likely(x)                             __builtin_expect(!!(x), 1)
 147:../source/sgl_core.h **** #  define unlikely(x)                           __builtin_expect(!!(x), 0)
 148:../source/sgl_core.h **** #endif
 149:../source/sgl_core.h **** #elif defined(__clang__)   /* clang compiler */
 150:../source/sgl_core.h **** #ifndef likely
 151:../source/sgl_core.h **** #  define likely(x)                             __builtin_expect(!!(x), 1)
 152:../source/sgl_core.h **** #  define unlikely(x)                           __builtin_expect(!!(x), 0)
 153:../source/sgl_core.h **** #endif
 154:../source/sgl_core.h **** #elif defined(__CC_ARM)    /* RealView compiler (Keil ARMCC) */
 155:../source/sgl_core.h **** #ifndef likely
 156:../source/sgl_core.h **** #  define likely(x)                             __builtin_expect(!!(x), 1)
 157:../source/sgl_core.h **** #  define unlikely(x)                           __builtin_expect(!!(x), 0)
 158:../source/sgl_core.h **** #endif
 159:../source/sgl_core.h **** #elif defined(__ICCARM__)  /* IAR compiler    */
 160:../source/sgl_core.h **** #ifndef likely
GAS LISTING C:\Users\lsw\AppData\Local\Temp\ccZtZR5Y.s 			page 6


 161:../source/sgl_core.h **** #  define likely(x)                             __iar_builtin_expect(!!(x), 1)
 162:../source/sgl_core.h **** #  define unlikely(x)                           __iar_builtin_expect(!!(x), 0)
 163:../source/sgl_core.h **** #endif
 164:../source/sgl_core.h **** #elif defined(_MSC_VER)    /* MSVC compiler   */
 165:../source/sgl_core.h **** #ifndef likely
 166:../source/sgl_core.h **** #  define likely(x)                             (x)
 167:../source/sgl_core.h **** #  define unlikely(x)                           (x)
 168:../source/sgl_core.h **** #endif
 169:../source/sgl_core.h **** #elif defined(__MINGW32__) /* MinGW compiler  */
 170:../source/sgl_core.h **** #ifndef likely
 171:../source/sgl_core.h **** #define likely(x)                               __builtin_expect(!!(x), 1)
 172:../source/sgl_core.h **** #define unlikely(x)                             __builtin_expect(!!(x), 0)
 173:../source/sgl_core.h **** #endif
 174:../source/sgl_core.h **** #else                      /* others compiler */
 175:../source/sgl_core.h **** #ifndef likely
 176:../source/sgl_core.h **** #  define likely(x)                             (x)
 177:../source/sgl_core.h **** #  define unlikely(x)                           (x)
 178:../source/sgl_core.h **** #endif
 179:../source/sgl_core.h **** #endif
 180:../source/sgl_core.h **** 
 181:../source/sgl_core.h **** /**
 182:../source/sgl_core.h **** * @brief This structure defines a 32 bit color bit field
 183:../source/sgl_core.h **** *
 184:../source/sgl_core.h **** * @blue: Blue color component
 185:../source/sgl_core.h **** * @green: Green color component
 186:../source/sgl_core.h **** * @red: Red color component
 187:../source/sgl_core.h **** * @alpha: Color transparency
 188:../source/sgl_core.h **** */
 189:../source/sgl_core.h **** typedef union {
 190:../source/sgl_core.h ****     struct {
 191:../source/sgl_core.h ****         uint8_t blue;
 192:../source/sgl_core.h ****         uint8_t green;
 193:../source/sgl_core.h ****         uint8_t red;
 194:../source/sgl_core.h ****         uint8_t alpha;
 195:../source/sgl_core.h ****     } ch;
 196:../source/sgl_core.h ****     uint32_t full;
 197:../source/sgl_core.h **** } sgl_color32_t;
 198:../source/sgl_core.h **** 
 199:../source/sgl_core.h **** 
 200:../source/sgl_core.h **** /**
 201:../source/sgl_core.h **** * @brief This structure defines a 24 bit color bit field
 202:../source/sgl_core.h **** *
 203:../source/sgl_core.h **** * @blue: Blue color component
 204:../source/sgl_core.h **** * @green: Green color component
 205:../source/sgl_core.h **** * @red: Red color component
 206:../source/sgl_core.h **** */
 207:../source/sgl_core.h **** typedef union {
 208:../source/sgl_core.h ****     struct {
 209:../source/sgl_core.h ****         uint8_t blue;
 210:../source/sgl_core.h ****         uint8_t green;
 211:../source/sgl_core.h ****         uint8_t red;
 212:../source/sgl_core.h ****     } ch;
 213:../source/sgl_core.h ****     uint8_t full[3];
 214:../source/sgl_core.h **** } sgl_color24_t;
 215:../source/sgl_core.h **** 
 216:../source/sgl_core.h **** 
 217:../source/sgl_core.h **** /**
GAS LISTING C:\Users\lsw\AppData\Local\Temp\ccZtZR5Y.s 			page 7


 218:../source/sgl_core.h **** * @brief This structure defines a 16 bit color bit field
 219:../source/sgl_core.h **** *
 220:../source/sgl_core.h **** * @blue: Blue color component
 221:../source/sgl_core.h **** * @green: Green color component
 222:../source/sgl_core.h **** * @red: Red color component
 223:../source/sgl_core.h **** * @alpha: Color transparency
 224:../source/sgl_core.h **** */
 225:../source/sgl_core.h **** typedef union {
 226:../source/sgl_core.h ****     struct {
 227:../source/sgl_core.h ****         uint16_t blue : 5;
 228:../source/sgl_core.h ****         uint16_t green : 6;
 229:../source/sgl_core.h ****         uint16_t red : 5;
 230:../source/sgl_core.h ****     } ch;
 231:../source/sgl_core.h ****     uint16_t full;
 232:../source/sgl_core.h **** } sgl_color16_t;
 233:../source/sgl_core.h **** 
 234:../source/sgl_core.h **** 
 235:../source/sgl_core.h **** /**
 236:../source/sgl_core.h **** * @brief This structure defines a 8 bit color bit field
 237:../source/sgl_core.h **** *
 238:../source/sgl_core.h **** * @blue: Blue color component
 239:../source/sgl_core.h **** * @green: Green color component
 240:../source/sgl_core.h **** * @red: Red color component
 241:../source/sgl_core.h **** * @alpha: Color transparency
 242:../source/sgl_core.h **** */
 243:../source/sgl_core.h **** typedef union {
 244:../source/sgl_core.h ****     struct {
 245:../source/sgl_core.h ****         uint8_t blue : 2;
 246:../source/sgl_core.h ****         uint8_t green : 3;
 247:../source/sgl_core.h ****         uint8_t red : 3;
 248:../source/sgl_core.h ****     } ch;
 249:../source/sgl_core.h ****     uint8_t full;
 250:../source/sgl_core.h **** } sgl_color8_t;
 251:../source/sgl_core.h **** 
 252:../source/sgl_core.h **** 
 253:../source/sgl_core.h **** #if (CONFIG_SGL_FBDEV_PIXEL_DEPTH == 32)
 254:../source/sgl_core.h **** #define sgl_color_t sgl_color32_t
 255:../source/sgl_core.h **** #elif (CONFIG_SGL_FBDEV_PIXEL_DEPTH == 24)
 256:../source/sgl_core.h **** #define sgl_color_t sgl_color24_t
 257:../source/sgl_core.h **** #elif (CONFIG_SGL_FBDEV_PIXEL_DEPTH == 16)
 258:../source/sgl_core.h **** #define sgl_color_t sgl_color16_t
 259:../source/sgl_core.h **** #elif (CONFIG_SGL_FBDEV_PIXEL_DEPTH == 8)
 260:../source/sgl_core.h **** #define sgl_color_t sgl_color8_t
 261:../source/sgl_core.h **** #endif
 262:../source/sgl_core.h **** 
 263:../source/sgl_core.h **** 
 264:../source/sgl_core.h **** // prototype: sgl_rgb(uint8_t r, uint8_t g, uint8_t b)
 265:../source/sgl_core.h **** #if (CONFIG_SGL_FBDEV_PIXEL_DEPTH == SGL_COLOR_ARGB8888 || CONFIG_SGL_FBDEV_PIXEL_DEPTH == SGL_COLO
 266:../source/sgl_core.h **** #define sgl_rgb(r,g,b)                          (sgl_color_t){ .ch.blue    = (b),              \
 267:../source/sgl_core.h ****                                                                .ch.green   = (g),              \
 268:../source/sgl_core.h ****                                                                .ch.red     = (r),}
 269:../source/sgl_core.h **** #elif (CONFIG_SGL_FBDEV_PIXEL_DEPTH == SGL_COLOR_RGB565)
 270:../source/sgl_core.h **** #define sgl_rgb(r,g,b)                          (sgl_color_t){ .ch.blue    = (b) >> 3,         \
 271:../source/sgl_core.h ****                                                                .ch.green   = (g) >> 2,         \
 272:../source/sgl_core.h ****                                                                .ch.red     = (r) >> 3,}
 273:../source/sgl_core.h **** #elif (CONFIG_SGL_FBDEV_PIXEL_DEPTH == SGL_COLOR_RGB233)
 274:../source/sgl_core.h **** #define sgl_rgb(r,g,b)                          (sgl_color_t){ .ch.blue    = (b >> 6),         \
GAS LISTING C:\Users\lsw\AppData\Local\Temp\ccZtZR5Y.s 			page 8


 275:../source/sgl_core.h ****                                                                .ch.green   = (g >> 5),         \
 276:../source/sgl_core.h ****                                                                .ch.red     = (r >> 5),}
 277:../source/sgl_core.h **** #endif
 278:../source/sgl_core.h **** 
 279:../source/sgl_core.h **** 
 280:../source/sgl_core.h **** /**
 281:../source/sgl_core.h ****  * Define some basic colors
 282:../source/sgl_core.h **** */
 283:../source/sgl_core.h **** #define SGL_COLOR_RED                           sgl_rgb(0xFF, 0, 0)
 284:../source/sgl_core.h **** #define SGL_COLOR_GREEN                         sgl_rgb(0, 0xFF, 0)
 285:../source/sgl_core.h **** #define SGL_COLOR_BLUE                          sgl_rgb(0, 0, 0xFF)
 286:../source/sgl_core.h **** #define SGL_COLOR_WHITE                         sgl_rgb(0xFF, 0xFF, 0xFF)
 287:../source/sgl_core.h **** #define SGL_COLOR_BLACK                         sgl_rgb(0, 0, 0)
 288:../source/sgl_core.h **** #define SGL_COLOR_CYAN                          sgl_rgb(0, 0xFF, 0xFF)
 289:../source/sgl_core.h **** #define SGL_COLOR_MAGENTA                       sgl_rgb(0xFF, 0, 0xFF)
 290:../source/sgl_core.h **** #define SGL_COLOR_YELLOW                        sgl_rgb(0xFF, 0xFF, 0)
 291:../source/sgl_core.h **** #define SGL_COLOR_GRAY                          sgl_rgb(0x80, 0x80, 0x80)
 292:../source/sgl_core.h **** #define SGL_COLOR_DARK_GRAY                     sgl_rgb(0x40, 0x40, 0x40)
 293:../source/sgl_core.h **** #define SGL_COLOR_LIGHT_GRAY                    sgl_rgb(0xC0, 0xC0, 0xC0)
 294:../source/sgl_core.h **** #define SGL_COLOR_BRIGHT_PURPLE                 sgl_rgb(0xFF, 0x00, 0xFF)
 295:../source/sgl_core.h **** #define SGL_COLOR_BRIGHT_BLUE                   sgl_rgb(0x00, 0xFF, 0xFF)
 296:../source/sgl_core.h **** #define SGL_COLOR_ORANGE                        sgl_rgb(0xFF, 0xA5, 0x00)
 297:../source/sgl_core.h **** #define SGL_COLOR_DARK_ORANGE                   sgl_rgb(0xFF, 0x8C, 0x00)
 298:../source/sgl_core.h **** #define SGL_COLOR_RED_ORANGE                    sgl_rgb(0xFF, 0x45, 0x00)
 299:../source/sgl_core.h **** #define SGL_COLOR_GOLD                          sgl_rgb(0xFF, 0xD7, 0x00)
 300:../source/sgl_core.h **** #define SGL_COLOR_GOLDENROD                     sgl_rgb(0xDA, 0xA5, 0x20)
 301:../source/sgl_core.h **** #define SGL_COLOR_BROWN                         sgl_rgb(0xA5, 0x2A, 0x2A)
 302:../source/sgl_core.h **** #define SGL_COLOR_SADDLE_BROWN                  sgl_rgb(0x8B, 0x45, 0x13)
 303:../source/sgl_core.h **** #define SGL_COLOR_TOMATO                        sgl_rgb(0xFF, 0x63, 0x47)
 304:../source/sgl_core.h **** #define SGL_COLOR_CORAL                         sgl_rgb(0xFF, 0x7F, 0x50)
 305:../source/sgl_core.h **** #define SGL_COLOR_SALMON                        sgl_rgb(0xFA, 0x80, 0x72)
 306:../source/sgl_core.h **** #define SGL_COLOR_LIME                          sgl_rgb(0x32, 0xCD, 0x32)
 307:../source/sgl_core.h **** #define SGL_COLOR_OLIVE                         sgl_rgb(0x80, 0x80, 0x00)
 308:../source/sgl_core.h **** #define SGL_COLOR_DARK_OLIVE_GREEN              sgl_rgb(0x55, 0x6B, 0x2F)
 309:../source/sgl_core.h **** #define SGL_COLOR_FOREST_GREEN                  sgl_rgb(0x22, 0x8B, 0x2F)
 310:../source/sgl_core.h **** #define SGL_COLOR_DARK_GREEN                    sgl_rgb(0x00, 0x64, 0x00)
 311:../source/sgl_core.h **** #define SGL_COLOR_LAWN_GREEN                    sgl_rgb(0x7C, 0xFC, 0x00)
 312:../source/sgl_core.h **** #define SGL_COLOR_CHARTREUSE                    sgl_rgb(0x7F, 0xFF, 0x00)
 313:../source/sgl_core.h **** #define SGL_COLOR_YELLOW_GREEN                  sgl_rgb(0x9A, 0xCD, 0x32)
 314:../source/sgl_core.h **** #define SGL_COLOR_SPRING_GREEN                  sgl_rgb(0x00, 0xFF, 0x7F)
 315:../source/sgl_core.h **** #define SGL_COLOR_DEEP_SKY_BLUE                 sgl_rgb(0x00, 0xBF, 0xFF)
 316:../source/sgl_core.h **** #define SGL_COLOR_DODGER_BLUE                   sgl_rgb(0x1E, 0x90, 0xFF)
 317:../source/sgl_core.h **** #define SGL_COLOR_ROYAL_BLUE                    sgl_rgb(0x41, 0x69, 0xE1)
 318:../source/sgl_core.h **** #define SGL_COLOR_MIDNIGHT_BLUE                 sgl_rgb(0x19, 0x19, 0x70)
 319:../source/sgl_core.h **** #define SGL_COLOR_NAVY                          sgl_rgb(0x00, 0x00, 0x80)
 320:../source/sgl_core.h **** #define SGL_COLOR_TEAL                          sgl_rgb(0x00, 0x80, 0x80)
 321:../source/sgl_core.h **** #define SGL_COLOR_DARK_CYAN                     sgl_rgb(0x00, 0x8B, 0x8B)
 322:../source/sgl_core.h **** #define SGL_COLOR_LIGHT_SEA_GREEN               sgl_rgb(0x20, 0xB2, 0xAA)
 323:../source/sgl_core.h **** #define SGL_COLOR_CADET_BLUE                    sgl_rgb(0x5F, 0x9E, 0xA0)
 324:../source/sgl_core.h **** #define SGL_COLOR_INDIGO                        sgl_rgb(0x4B, 0x00, 0x82)
 325:../source/sgl_core.h **** #define SGL_COLOR_VIOLET                        sgl_rgb(0xEE, 0x82, 0xEE)
 326:../source/sgl_core.h **** #define SGL_COLOR_DARK_VIOLET                   sgl_rgb(0x94, 0x00, 0xD3)
 327:../source/sgl_core.h **** #define SGL_COLOR_MEDIUM_VIOLET_RED             sgl_rgb(0xC7, 0x15, 0x85)
 328:../source/sgl_core.h **** #define SGL_COLOR_PINK                          sgl_rgb(0xFF, 0xC0, 0xCB)
 329:../source/sgl_core.h **** #define SGL_COLOR_HOT_PINK                      sgl_rgb(0xFF, 0x69, 0xB4)
 330:../source/sgl_core.h **** #define SGL_COLOR_DEEP_PINK                     sgl_rgb(0xFF, 0x14, 0x93)
 331:../source/sgl_core.h **** #define SGL_COLOR_PLUM                          sgl_rgb(0xDD, 0xA0, 0xDD)
GAS LISTING C:\Users\lsw\AppData\Local\Temp\ccZtZR5Y.s 			page 9


 332:../source/sgl_core.h **** #define SGL_COLOR_ORCHID                        sgl_rgb(0xDA, 0x70, 0xD6)
 333:../source/sgl_core.h **** #define SGL_COLOR_TAN                           sgl_rgb(0xD2, 0xB4, 0x8C)
 334:../source/sgl_core.h **** #define SGL_COLOR_WHEAT                         sgl_rgb(0xF5, 0xDE, 0xB3)
 335:../source/sgl_core.h **** #define SGL_COLOR_SAND                          sgl_rgb(0xC2, 0xB2, 0x90)
 336:../source/sgl_core.h **** #define SGL_COLOR_BEIGE                         sgl_rgb(0xF5, 0xF5, 0xDC)
 337:../source/sgl_core.h **** #define SGL_COLOR_IVORY                         sgl_rgb(0xFF, 0xFF, 0xF0)
 338:../source/sgl_core.h **** #define SGL_COLOR_LAVENDER                      sgl_rgb(0xE6, 0xE6, 0xFA)
 339:../source/sgl_core.h **** #define SGL_COLOR_MISTY_ROSE                    sgl_rgb(0xFF, 0xE4, 0xE1)
 340:../source/sgl_core.h **** #define SGL_COLOR_SEASHELL                      sgl_rgb(0xFF, 0xF5, 0xEE)
 341:../source/sgl_core.h **** #define SGL_COLOR_FLORAL_WHITE                  sgl_rgb(0xFF, 0xFA, 0xF0)
 342:../source/sgl_core.h **** 
 343:../source/sgl_core.h **** 
 344:../source/sgl_core.h **** #if CONFIG_SGL_DEBUG
 345:../source/sgl_core.h **** #define SGL_LOG_LEVEL_TRACE                     0 /**< A lot of logs to give detailed information*/
 346:../source/sgl_core.h **** #define SGL_LOG_LEVEL_INFO                      1 /**< Log important events*/
 347:../source/sgl_core.h **** #define SGL_LOG_LEVEL_WARN                      2 /**< Log if something unwanted happened but didn'
 348:../source/sgl_core.h **** #define SGL_LOG_LEVEL_ERROR                     3 /**< Only critical issue, when the system may fai
 349:../source/sgl_core.h **** #define SGL_LOG_LEVEL_USER                      4 /**< Custom logs from the user*/
 350:../source/sgl_core.h **** #define SGL_LOG_LEVEL_NONE                      5 /**< Do not log anything*/
 351:../source/sgl_core.h **** #define _SGL_LOG_LEVEL_NUM                      6 /**< Number of log levels*/
 352:../source/sgl_core.h **** 
 353:../source/sgl_core.h **** #if CONFIG_SGL_LOG_COLOR
 354:../source/sgl_core.h **** 
 355:../source/sgl_core.h **** #define SGL_LOG_NONE                            "\033[0m"
 356:../source/sgl_core.h **** #define SGL_LOG_RED                             "\033[31m"
 357:../source/sgl_core.h **** #define SGL_LOG_GREEN                           "\033[32m"
 358:../source/sgl_core.h **** #define SGL_LOG_YELLOW                          "\033[33m"
 359:../source/sgl_core.h **** #define SGL_LOG_BLUE                            "\033[34m"
 360:../source/sgl_core.h **** #define SGL_LOG_PURPLE                          "\033[35m"
 361:../source/sgl_core.h **** #define SGL_LOG_CYAN                            "\033[36m"
 362:../source/sgl_core.h **** #define SGL_LOG_WHITE                           "\033[37m"
 363:../source/sgl_core.h **** #define SGL_LOG_LIGHT_BLUE                      "\033[1;34m"
 364:../source/sgl_core.h **** 
 365:../source/sgl_core.h **** 
 366:../source/sgl_core.h **** #define SGL_LOG_TRACE_FLAG                      SGL_LOG_BLUE"[TRACE]"
 367:../source/sgl_core.h **** #define SGL_LOG_INFO_FLAG                       SGL_LOG_GREEN"[INFO]"
 368:../source/sgl_core.h **** #define SGL_LOG_WARN_FLAG                       SGL_LOG_YELLOW"[WARN]"
 369:../source/sgl_core.h **** #define SGL_LOG_ERROR_FLAG                      SGL_LOG_RED"[ERROR]"
 370:../source/sgl_core.h **** #define SGL_LOG_USER_FLAG                       SGL_LOG_PURPLE"[USER]"
 371:../source/sgl_core.h **** #define SGL_ASSERT_FLAG                         SGL_LOG_CYAN"[ASSERT]"
 372:../source/sgl_core.h **** #define SGL_DEBUG_TRACE_FLAG                    SGL_LOG_LIGHT_BLUE"[DEBUG]"
 373:../source/sgl_core.h **** 
 374:../source/sgl_core.h **** 
 375:../source/sgl_core.h **** #else
 376:../source/sgl_core.h **** #define SGL_LOG_TRACE_FLAG                      "[TRACE] "
 377:../source/sgl_core.h **** #define SGL_LOG_INFO_FLAG                       "[INFO] "
 378:../source/sgl_core.h **** #define SGL_LOG_WARN_FLAG                       "[WARN] "
 379:../source/sgl_core.h **** #define SGL_LOG_ERROR_FLAG                      "[ERROR] "
 380:../source/sgl_core.h **** #define SGL_LOG_USER_FLAG                       "[USER] "
 381:../source/sgl_core.h **** #define SGL_ASSERT_FLAG                         "[ASSERT] "
 382:../source/sgl_core.h **** #define SGL_DEBUG_TRACE_FLAG                    "[DEBUG]"
 383:../source/sgl_core.h **** #define SGL_LOG_NONE                            ""
 384:../source/sgl_core.h **** 
 385:../source/sgl_core.h **** #endif // !CONFIG_SGL_LOG_COLOR
 386:../source/sgl_core.h **** 
 387:../source/sgl_core.h **** 
 388:../source/sgl_core.h **** #ifndef SGL_LOG_TRACE
GAS LISTING C:\Users\lsw\AppData\Local\Temp\ccZtZR5Y.s 			page 10


 389:../source/sgl_core.h **** #    if CONFIG_SGL_LOG_LEVEL <= SGL_LOG_LEVEL_TRACE
 390:../source/sgl_core.h **** #        define SGL_LOG_TRACE(...)              sgl_log(SGL_LOG_TRACE_FLAG, __VA_ARGS__)
 391:../source/sgl_core.h **** #    else         
 392:../source/sgl_core.h **** #        define SGL_LOG_TRACE(...)              do {} while(0)
 393:../source/sgl_core.h **** #    endif
 394:../source/sgl_core.h **** #endif
 395:../source/sgl_core.h **** 
 396:../source/sgl_core.h **** #ifndef SGL_LOG_INFO
 397:../source/sgl_core.h **** #    if CONFIG_SGL_LOG_LEVEL <= SGL_LOG_LEVEL_INFO
 398:../source/sgl_core.h **** #        define SGL_LOG_INFO(...)               sgl_log(SGL_LOG_INFO_FLAG,  __VA_ARGS__)
 399:../source/sgl_core.h **** #    else         
 400:../source/sgl_core.h **** #        define SGL_LOG_INFO(...)               do {} while(0)
 401:../source/sgl_core.h **** #    endif
 402:../source/sgl_core.h **** #endif
 403:../source/sgl_core.h **** 
 404:../source/sgl_core.h **** #ifndef SGL_LOG_WARN
 405:../source/sgl_core.h **** #    if CONFIG_SGL_LOG_LEVEL <= SGL_LOG_LEVEL_WARN
 406:../source/sgl_core.h **** #        define SGL_LOG_WARN(...)               sgl_log(SGL_LOG_WARN_FLAG, __VA_ARGS__)
 407:../source/sgl_core.h **** #    else         
 408:../source/sgl_core.h **** #        define SGL_LOG_WARN(...)               do {} while(0)
 409:../source/sgl_core.h **** #    endif
 410:../source/sgl_core.h **** #endif
 411:../source/sgl_core.h **** 
 412:../source/sgl_core.h **** #ifndef SGL_LOG_ERROR
 413:../source/sgl_core.h **** #    if CONFIG_SGL_LOG_LEVEL <= SGL_LOG_LEVEL_ERROR
 414:../source/sgl_core.h **** #        define SGL_LOG_ERROR(...)              sgl_log(SGL_LOG_ERROR_FLAG, __VA_ARGS__)
 415:../source/sgl_core.h **** #    else        
 416:../source/sgl_core.h **** #        define SGL_LOG_ERROR(...)              do {} while(0)
 417:../source/sgl_core.h **** #    endif
 418:../source/sgl_core.h **** #endif
 419:../source/sgl_core.h **** 
 420:../source/sgl_core.h **** #ifndef SGL_LOG_USER
 421:../source/sgl_core.h **** #    if CONFIG_SGL_LOG_LEVEL <= SGL_LOG_LEVEL_USER
 422:../source/sgl_core.h **** #        define SGL_LOG_USER(...)               sgl_log(SGL_LOG_USER_FLAG,  __VA_ARGS__)
 423:../source/sgl_core.h **** #    else        
 424:../source/sgl_core.h **** #        define SGL_LOG_USER(...)               do {} while(0)
 425:../source/sgl_core.h **** #    endif
 426:../source/sgl_core.h **** #endif
 427:../source/sgl_core.h **** 
 428:../source/sgl_core.h **** #if CONFIG_SGL_LOG_LEVEL < SGL_LOG_LEVEL_NONE
 429:../source/sgl_core.h **** #    define SGL_LOG(...)                        sgl_log(__VA_ARGS__)
 430:../source/sgl_core.h **** #else        
 431:../source/sgl_core.h **** #    define SGL_LOG(...)                        do {} while(0)
 432:../source/sgl_core.h **** #endif
 433:../source/sgl_core.h **** 
 434:../source/sgl_core.h **** 
 435:../source/sgl_core.h **** #define SGL_ASSERT(condition)                   do {                                               
 436:../source/sgl_core.h ****                                                     if (!(condition)) {                            
 437:../source/sgl_core.h ****                                                         sgl_assert_handler(__FILE__, __FUNCTION__, 
 438:../source/sgl_core.h ****                                                     }                                              
 439:../source/sgl_core.h ****                                                 } while(0)
 440:../source/sgl_core.h **** 
 441:../source/sgl_core.h **** 
 442:../source/sgl_core.h **** #else // if no define debug mode macro
 443:../source/sgl_core.h **** 
 444:../source/sgl_core.h **** #define SGL_LOG_NONE                            0
 445:../source/sgl_core.h **** #define SGL_LOG_TRACE(...)                      do {} while(0)
GAS LISTING C:\Users\lsw\AppData\Local\Temp\ccZtZR5Y.s 			page 11


 446:../source/sgl_core.h **** #define SGL_LOG_INFO(...)                       do {} while(0)
 447:../source/sgl_core.h **** #define SGL_LOG_WARN(...)                       do {} while(0)
 448:../source/sgl_core.h **** #define SGL_LOG_ERROR(...)                      do {} while(0)
 449:../source/sgl_core.h **** #define SGL_LOG_USER(...)                       do {} while(0)
 450:../source/sgl_core.h **** #define SGL_LOG(...)                            do {} while(0)
 451:../source/sgl_core.h **** 
 452:../source/sgl_core.h **** #define SGL_ASSERT(condition)                   do {} while(0)
 453:../source/sgl_core.h **** 
 454:../source/sgl_core.h **** #endif
 455:../source/sgl_core.h **** 
 456:../source/sgl_core.h **** 
 457:../source/sgl_core.h **** #if CONFIG_SGL_DEBUG
 458:../source/sgl_core.h **** #define SGL_DEBUG_TRACE(...)                    sgl_log(SGL_DEBUG_TRACE_FLAG, __VA_ARGS__)
 459:../source/sgl_core.h **** #else
 460:../source/sgl_core.h **** #define SGL_DEBUG_TRACE(...)                    do {} while(0)
 461:../source/sgl_core.h **** #endif
 462:../source/sgl_core.h **** 
 463:../source/sgl_core.h **** 
 464:../source/sgl_core.h **** #define sgl_min(a, b)                           ((a) < (b) ? (a) : (b))
 465:../source/sgl_core.h **** #define sgl_min3(a, b, c)                       (sgl_min(sgl_min((a), (b)), (c)))
 466:../source/sgl_core.h **** #define sgl_min4(a, b, c, d)                    (sgl_min(sgl_min((a), (b)), sgl_min((c), (d))))
 467:../source/sgl_core.h ****       
 468:../source/sgl_core.h ****       
 469:../source/sgl_core.h **** #define sgl_max(a, b)                           ((a) > (b) ? (a) : (b))
 470:../source/sgl_core.h **** #define sgl_max3(a, b, c)                       (sgl_max(sgl_max((a), (b)), (c)))
 471:../source/sgl_core.h **** #define sgl_max4(a, b, c, d)                    (sgl_max(sgl_max((a), (b)), sgl_max((c), (d))))
 472:../source/sgl_core.h ****       
 473:../source/sgl_core.h **** #define sgl_clamp(val, min, max)                (sgl_max(min, (sgl_min((val), (max)))))
 474:../source/sgl_core.h ****       
 475:../source/sgl_core.h **** #define sgl_abs(x)                              ((x) > 0 ? (x) : (- (x)))
 476:../source/sgl_core.h ****       
 477:../source/sgl_core.h **** #define sgl_pow2(x)                             ((x) * (x))
 478:../source/sgl_core.h **** #define sgl_pow3(x)                             ((x) * (x) * (x))
 479:../source/sgl_core.h **** #define sgl_pow4(x)                             ((x) * (x) * (x) * (x))
 480:../source/sgl_core.h ****       
 481:../source/sgl_core.h **** #define sgl_is_pow2(x)                          (((x) & ((x) - 1)) == 0)
 482:../source/sgl_core.h **** #define sgl_is_even(x)                          (((x) & 1) == 0)
 483:../source/sgl_core.h **** #define sgl_is_odd(x)                           ((x) & 1)
 484:../source/sgl_core.h ****       
 485:../source/sgl_core.h **** #define sgl_swap(a, b)                          do { (*a) ^= (*b); (*b) ^= (*a); (*a) ^= (*b); } wh
 486:../source/sgl_core.h **** 
 487:../source/sgl_core.h **** 
 488:../source/sgl_core.h **** /**
 489:../source/sgl_core.h **** * @brief This enumeration type defines the alignment of controls in sgl,
 490:../source/sgl_core.h **** *        i.e. coordinate positions
 491:../source/sgl_core.h **** */
 492:../source/sgl_core.h **** typedef enum sgl_align_type {
 493:../source/sgl_core.h ****     SGL_ALIGN_CENTER = 0,
 494:../source/sgl_core.h ****     SGL_ALIGN_TOP_MID,
 495:../source/sgl_core.h ****     SGL_ALIGN_TOP_LEFT,
 496:../source/sgl_core.h ****     SGL_ALIGN_TOP_RIGHT,
 497:../source/sgl_core.h ****     SGL_ALIGN_BOT_MID,
 498:../source/sgl_core.h ****     SGL_ALIGN_BOT_LEFT,
 499:../source/sgl_core.h ****     SGL_ALIGN_BOT_RIGHT,
 500:../source/sgl_core.h ****     SGL_ALIGN_LEFT_MID,
 501:../source/sgl_core.h ****     SGL_ALIGN_RIGHT_MID,
 502:../source/sgl_core.h ****     SGL_ALIGN_VERT_LEFT,
GAS LISTING C:\Users\lsw\AppData\Local\Temp\ccZtZR5Y.s 			page 12


 503:../source/sgl_core.h ****     SGL_ALIGN_VERT_RIGHT,
 504:../source/sgl_core.h ****     SGL_ALIGN_VERT_MID,
 505:../source/sgl_core.h ****     SGL_ALIGN_HORIZ_TOP,
 506:../source/sgl_core.h ****     SGL_ALIGN_HORIZ_BOT,
 507:../source/sgl_core.h ****     SGL_ALIGN_HORIZ_MID,
 508:../source/sgl_core.h ****     SGL_ALIGN_NUM,
 509:../source/sgl_core.h **** 
 510:../source/sgl_core.h **** } sgl_align_type_t;
 511:../source/sgl_core.h **** 
 512:../source/sgl_core.h **** 
 513:../source/sgl_core.h **** /**
 514:../source/sgl_core.h **** * @brief This enumeration type defines the layout of controls in sgl,
 515:../source/sgl_core.h **** *        i.e. coordinate positions
 516:../source/sgl_core.h **** */
 517:../source/sgl_core.h **** typedef enum sgl_layout_type {
 518:../source/sgl_core.h ****     SGL_LAYOUT_NONE = 0,
 519:../source/sgl_core.h ****     SGL_LAYOUT_HORIZONTAL = 1,
 520:../source/sgl_core.h ****     SGL_LAYOUT_VERTICAL = 2,
 521:../source/sgl_core.h ****     SGL_LAYOUT_GRID = 3,
 522:../source/sgl_core.h ****     SGL_LAYOUT_NUM = 4,
 523:../source/sgl_core.h **** } sgl_layout_type_t;
 524:../source/sgl_core.h **** 
 525:../source/sgl_core.h **** 
 526:../source/sgl_core.h **** /**
 527:../source/sgl_core.h **** * @brief This structure is a structure that describes the position of the control,
 528:../source/sgl_core.h **** *        where x represents the position of the x coordinate, which is the row coordinate position,
 529:../source/sgl_core.h **** *        and y represents the position of the y coordinate, which is the column coordinate position
 530:../source/sgl_core.h **** *
 531:../source/sgl_core.h **** * @x: x coordinate
 532:../source/sgl_core.h **** * @y: y coordinate
 533:../source/sgl_core.h **** */
 534:../source/sgl_core.h **** typedef struct sgl_pos {
 535:../source/sgl_core.h ****     int16_t x;
 536:../source/sgl_core.h ****     int16_t y;
 537:../source/sgl_core.h **** } sgl_pos_t;
 538:../source/sgl_core.h **** 
 539:../source/sgl_core.h **** 
 540:../source/sgl_core.h **** /**
 541:../source/sgl_core.h **** * @brief This structure describes the size of the object, including width and height, in pixels
 542:../source/sgl_core.h **** *
 543:../source/sgl_core.h **** * @w: width
 544:../source/sgl_core.h **** * @h: height
 545:../source/sgl_core.h **** */
 546:../source/sgl_core.h **** typedef struct sgl_size {
 547:../source/sgl_core.h ****     int16_t w;
 548:../source/sgl_core.h ****     int16_t h;
 549:../source/sgl_core.h **** } sgl_size_t;
 550:../source/sgl_core.h **** 
 551:../source/sgl_core.h **** 
 552:../source/sgl_core.h **** /**
 553:../source/sgl_core.h **** * @brief This structure describes a rectangular region, where x1 and y1 represent the coordinates
 554:../source/sgl_core.h **** *        of the upper left corner of the rectangle, and x2 and y2 represent the coordinates of the
 555:../source/sgl_core.h **** *        lower right corner of the rectangle
 556:../source/sgl_core.h **** *
 557:../source/sgl_core.h **** * @x1: x position left corner of the rectangle
 558:../source/sgl_core.h **** * @y1: y position left corner of the rectangle
 559:../source/sgl_core.h **** * @x2: x position right corner of the rectangle
GAS LISTING C:\Users\lsw\AppData\Local\Temp\ccZtZR5Y.s 			page 13


 560:../source/sgl_core.h **** * @y2: y position right corner of the rectangle
 561:../source/sgl_core.h **** */
 562:../source/sgl_core.h **** typedef struct sgl_area {
 563:../source/sgl_core.h ****     int16_t x1;
 564:../source/sgl_core.h ****     int16_t y1;
 565:../source/sgl_core.h ****     int16_t x2;
 566:../source/sgl_core.h ****     int16_t y2;
 567:../source/sgl_core.h **** } sgl_area_t;
 568:../source/sgl_core.h **** 
 569:../source/sgl_core.h **** #define sgl_rect_t sgl_area_t
 570:../source/sgl_core.h **** 
 571:../source/sgl_core.h **** 
 572:../source/sgl_core.h **** /**
 573:../source/sgl_core.h ****  * @brief This structure defines a surface, which is a rectangular area of the screen.
 574:../source/sgl_core.h ****  * @x1:     x1 coordinate
 575:../source/sgl_core.h ****  * @y1:     y1 coordinate
 576:../source/sgl_core.h ****  * @x2:     x2 coordinate
 577:../source/sgl_core.h ****  * @y2:     y2 coordinate
 578:../source/sgl_core.h ****  * @buffer: buffer pointer
 579:../source/sgl_core.h ****  * @size:   bytes of buffer
 580:../source/sgl_core.h ****  * @w:      surf width
 581:../source/sgl_core.h ****  * @h:      surf height
 582:../source/sgl_core.h ****  * @dirty:  pointer to dirty area
 583:../source/sgl_core.h ****  */
 584:../source/sgl_core.h **** typedef struct sgl_surf {
 585:../source/sgl_core.h ****     int16_t      x1;
 586:../source/sgl_core.h ****     int16_t      y1;
 587:../source/sgl_core.h ****     int16_t      x2;
 588:../source/sgl_core.h ****     int16_t      y2;
 589:../source/sgl_core.h ****     sgl_color_t *buffer;
 590:../source/sgl_core.h ****     uint32_t     size;
 591:../source/sgl_core.h ****     uint16_t     w;
 592:../source/sgl_core.h ****     uint16_t     h;
 593:../source/sgl_core.h ****     sgl_area_t   *dirty;
 594:../source/sgl_core.h **** } sgl_surf_t;
 595:../source/sgl_core.h **** 
 596:../source/sgl_core.h **** 
 597:../source/sgl_core.h **** /**
 598:../source/sgl_core.h **** * @brief This structure defines an image, with a bitmap pointing to the
 599:../source/sgl_core.h **** *        bitmap of the image, while specifying the width and height of the image
 600:../source/sgl_core.h **** *
 601:../source/sgl_core.h **** * @width: pixmap width
 602:../source/sgl_core.h **** * @height: pixmap height
 603:../source/sgl_core.h **** * @format: bitmap format 0: no compression, 1:
 604:../source/sgl_core.h **** * @bitmap: point to image bitmap
 605:../source/sgl_core.h **** *          data: address for internal flash memory
 606:../source/sgl_core.h **** *          addr: address for external flash memory
 607:../source/sgl_core.h **** */
 608:../source/sgl_core.h **** typedef struct sgl_pixmap {
 609:../source/sgl_core.h ****     uint32_t width : 13;
 610:../source/sgl_core.h ****     uint32_t height : 13;
 611:../source/sgl_core.h ****     uint32_t format : 6;
 612:../source/sgl_core.h ****     union {
 613:../source/sgl_core.h ****         const uint8_t *data;
 614:../source/sgl_core.h ****         const size_t  addr;
 615:../source/sgl_core.h ****     } bitmap;
 616:../source/sgl_core.h **** } sgl_pixmap_t;
GAS LISTING C:\Users\lsw\AppData\Local\Temp\ccZtZR5Y.s 			page 14


 617:../source/sgl_core.h **** 
 618:../source/sgl_core.h **** 
 619:../source/sgl_core.h **** /**
 620:../source/sgl_core.h ****  * @brief This structure defines an icon, with a bitmap pointing to the
 621:../source/sgl_core.h ****  * @width: pixmap width
 622:../source/sgl_core.h ****  * @height: pixmap height
 623:../source/sgl_core.h ****  * @bitmap: point to icon bitmap
 624:../source/sgl_core.h ****  */
 625:../source/sgl_core.h **** typedef struct sgl_icon_pixmap {
 626:../source/sgl_core.h ****     uint16_t       width;
 627:../source/sgl_core.h ****     uint16_t       height;
 628:../source/sgl_core.h ****     const uint8_t *bitmap;
 629:../source/sgl_core.h **** } sgl_icon_pixmap_t;
 630:../source/sgl_core.h **** 
 631:../source/sgl_core.h **** 
 632:../source/sgl_core.h **** /**
 633:../source/sgl_core.h **** * @brief Font index table structure, used to describe the bitmap index positions of
 634:../source/sgl_core.h **** *        all characters in a font, accelerating the search process
 635:../source/sgl_core.h **** *
 636:../source/sgl_core.h **** * @bitmap_index: point to bitmap index of font
 637:../source/sgl_core.h **** * @adv_w: advance width of character width
 638:../source/sgl_core.h **** * @box_h: height of font
 639:../source/sgl_core.h **** * @box_w: width of font
 640:../source/sgl_core.h **** * @ofs_x: offset of character x position
 641:../source/sgl_core.h **** * @ofs_y: offset of character y position
 642:../source/sgl_core.h **** */
 643:../source/sgl_core.h **** typedef struct sgl_font_table {
 644:../source/sgl_core.h **** #if (CONFIG_SGL_FONT_SMALL_TABLE)
 645:../source/sgl_core.h ****     const uint16_t bitmap_index;
 646:../source/sgl_core.h ****     const uint16_t adv_w;
 647:../source/sgl_core.h ****     const uint8_t  box_h;
 648:../source/sgl_core.h ****     const uint8_t  box_w;
 649:../source/sgl_core.h ****     const int8_t   ofs_x;
 650:../source/sgl_core.h ****     const int8_t   ofs_y;
 651:../source/sgl_core.h **** #else
 652:../source/sgl_core.h ****     const uint32_t bitmap_index;
 653:../source/sgl_core.h ****     const uint16_t adv_w;
 654:../source/sgl_core.h ****     const uint16_t box_h;
 655:../source/sgl_core.h ****     const uint16_t box_w;
 656:../source/sgl_core.h ****     const int8_t   ofs_x;
 657:../source/sgl_core.h ****     const int8_t   ofs_y;
 658:../source/sgl_core.h **** #endif
 659:../source/sgl_core.h **** } sgl_font_table_t;
 660:../source/sgl_core.h **** 
 661:../source/sgl_core.h **** 
 662:../source/sgl_core.h **** /**
 663:../source/sgl_core.h ****  * @brief This structure defines a font unicode information, which is a collection of fonts
 664:../source/sgl_core.h ****  * @offset: offset of unicode for unicode list
 665:../source/sgl_core.h ****  * @len: length of unicode list
 666:../source/sgl_core.h ****  * @list: point to unicode list
 667:../source/sgl_core.h ****  * @tab_offset: offset of font table
 668:../source/sgl_core.h ****  */
 669:../source/sgl_core.h **** typedef struct sgl_font_unicode {
 670:../source/sgl_core.h ****     const uint32_t offset;
 671:../source/sgl_core.h ****     const uint32_t len;
 672:../source/sgl_core.h ****     const uint32_t *list;
 673:../source/sgl_core.h ****     const uint32_t tab_offset;
GAS LISTING C:\Users\lsw\AppData\Local\Temp\ccZtZR5Y.s 			page 15


 674:../source/sgl_core.h **** } sgl_font_unicode_t;
 675:../source/sgl_core.h **** 
 676:../source/sgl_core.h **** 
 677:../source/sgl_core.h **** /**
 678:../source/sgl_core.h **** * @brief A structure used to describe information about a font, Defining a font set requires
 679:../source/sgl_core.h **** *        the use of this structure to describe relevant information
 680:../source/sgl_core.h **** *
 681:../source/sgl_core.h **** * @bitmap: point to bitmap of font
 682:../source/sgl_core.h **** * @table: point to struct sgl_font_table
 683:../source/sgl_core.h **** * @font_table_size: size of struct sgl_font_table
 684:../source/sgl_core.h **** * @font_height: height of font
 685:../source/sgl_core.h **** * @unicode: point to struct sgl_font_unicode struct
 686:../source/sgl_core.h **** * @unicode_num: number of unicode parts
 687:../source/sgl_core.h **** * @base_line: base line of font
 688:../source/sgl_core.h **** * @bpp: The anti aliasing level of the font, only support 2, 4
 689:../source/sgl_core.h **** * @compress: compress flag, 0: no compress, 1: compress
 690:../source/sgl_core.h **** */
 691:../source/sgl_core.h **** typedef struct sgl_font {
 692:../source/sgl_core.h ****     const uint8_t  *bitmap;
 693:../source/sgl_core.h ****     const sgl_font_table_t  *table;
 694:../source/sgl_core.h ****     const uint16_t  font_table_size;
 695:../source/sgl_core.h ****     const uint16_t  font_height;
 696:../source/sgl_core.h ****     const sgl_font_unicode_t *unicode;
 697:../source/sgl_core.h ****     const uint32_t  unicode_num;
 698:../source/sgl_core.h ****     const int16_t   base_line;
 699:../source/sgl_core.h ****     const uint8_t   bpp;
 700:../source/sgl_core.h ****     const uint8_t   compress;
 701:../source/sgl_core.h **** } sgl_font_t;
 702:../source/sgl_core.h **** 
 703:../source/sgl_core.h **** 
 704:../source/sgl_core.h **** typedef struct sgl_obj {
 705:../source/sgl_core.h ****     sgl_area_t      coords;
 706:../source/sgl_core.h ****     void            (*construct_fn)(sgl_surf_t *surf, struct sgl_obj *obj, sgl_area_t *area);
 707:../source/sgl_core.h ****     struct sgl_obj  *parent;
 708:../source/sgl_core.h ****     struct sgl_obj  *child;
 709:../source/sgl_core.h ****     struct sgl_obj  *sibling;
 710:../source/sgl_core.h ****     uint8_t         destroyed : 1;
 711:../source/sgl_core.h ****     uint8_t         dirty : 1;
 712:../source/sgl_core.h ****     uint8_t         hide : 1;
 713:../source/sgl_core.h ****     uint8_t         needinit : 1;
 714:../source/sgl_core.h ****     uint8_t         page : 1;
 715:../source/sgl_core.h ****     uint8_t         layout : 2;
 716:../source/sgl_core.h ****     uint8_t         border;
 717:../source/sgl_core.h ****     uint8_t         radius;
 718:../source/sgl_core.h **** } sgl_obj_t;
 719:../source/sgl_core.h **** 
 720:../source/sgl_core.h **** 
 721:../source/sgl_core.h **** /**
 722:../source/sgl_core.h ****  * @brief Represents a page object in the SGL graphics system.
 723:../source/sgl_core.h ****  *
 724:../source/sgl_core.h ****  * An sgl_page_t encapsulates a complete, renderable UI page or screen.
 725:../source/sgl_core.h ****  * It combines a base graphical object, a drawing surface, a background color,
 726:../source/sgl_core.h ****  * and an optional background pixmap. Pages serve as top-level containers
 727:../source/sgl_core.h ****  * for UI elements and can be managed by a page manager or display stack.
 728:../source/sgl_core.h ****  *
 729:../source/sgl_core.h ****  * Members:
 730:../source/sgl_core.h ****  * - obj      : Base object (inherits sgl_obj_t), providing position, size, visibility, etc.
GAS LISTING C:\Users\lsw\AppData\Local\Temp\ccZtZR5Y.s 			page 16


 731:../source/sgl_core.h ****  * - color    : Default background color used when no pixmap is set.
 732:../source/sgl_core.h ****  * - pixmap   : Optional pointer to a background pixmap. If non-NULL, it typically overrides 'color
 733:../source/sgl_core.h ****  *              as the background content during rendering (behavior depends on flush/render logic)
 734:../source/sgl_core.h ****  */
 735:../source/sgl_core.h **** typedef struct sgl_page {
 736:../source/sgl_core.h ****     sgl_obj_t          obj;
 737:../source/sgl_core.h ****     sgl_obj_t          *tail;
 738:../source/sgl_core.h ****     sgl_color_t        color;
 739:../source/sgl_core.h ****     const sgl_pixmap_t *pixmap;
 740:../source/sgl_core.h **** } sgl_page_t;
 741:../source/sgl_core.h **** 
 742:../source/sgl_core.h **** 
 743:../source/sgl_core.h **** /**
 744:../source/sgl_core.h ****  * @brief sgl framebuffer information struct
 745:../source/sgl_core.h ****  * @buffer: framebuffer, this specify the memory address of the framebuffer
 746:../source/sgl_core.h ****  * @buffer_size: framebuffer size
 747:../source/sgl_core.h ****  * @xres: x resolution
 748:../source/sgl_core.h ****  * @yres: y resolution
 749:../source/sgl_core.h ****  * @flush_area: flush area callback function pointer, return the finished flag
 750:../source/sgl_core.h ****  */
 751:../source/sgl_core.h **** typedef struct sgl_fbinfo {
 752:../source/sgl_core.h ****     void      *buffer[SGL_DRAW_BUFFER_MAX];
 753:../source/sgl_core.h ****     uint32_t   buffer_size;
 754:../source/sgl_core.h ****     int16_t    xres;
 755:../source/sgl_core.h ****     int16_t    yres;
 756:../source/sgl_core.h ****     void       (*flush_area)(sgl_area_t *area, sgl_color_t *src);
 757:../source/sgl_core.h **** } sgl_fbinfo_t;
 758:../source/sgl_core.h **** 
 759:../source/sgl_core.h **** 
 760:../source/sgl_core.h **** /**
 761:../source/sgl_core.h ****  * @brief sgl framebuffer device struct
 762:../source/sgl_core.h ****  * @fbinfo: framebuffer information, that specify the memory address of the framebuffer and resolut
 763:../source/sgl_core.h ****  * @surf: Drawing surface associated with this page; defines the target buffer or area for renderin
 764:../source/sgl_core.h ****  * @dirty_num: dirty area number
 765:../source/sgl_core.h ****  * @fb_swap: framebuffer swap flag
 766:../source/sgl_core.h ****  * @fb_status: framebuffer status flag
 767:../source/sgl_core.h ****  * @dirty: dirty area pool
 768:../source/sgl_core.h ****  * @page: current page
 769:../source/sgl_core.h ****  */
 770:../source/sgl_core.h **** typedef struct sgl_fbdev {
 771:../source/sgl_core.h ****     sgl_fbinfo_t      fbinfo;
 772:../source/sgl_core.h ****     sgl_surf_t        surf;
 773:../source/sgl_core.h ****     sgl_area_t        dirty;
 774:../source/sgl_core.h ****     uint8_t           fb_swap;
 775:../source/sgl_core.h ****     volatile uint8_t  fb_status;
 776:../source/sgl_core.h ****     sgl_obj_t         *active;
 777:../source/sgl_core.h **** } sgl_fbdev_t;
 778:../source/sgl_core.h **** 
 779:../source/sgl_core.h **** 
 780:../source/sgl_core.h **** /**
 781:../source/sgl_core.h ****  * @brief sgl log print device struct
 782:../source/sgl_core.h ****  * @logdev: log print callback function pointer
 783:../source/sgl_core.h ****  * @tick_ms: tick milliseconds
 784:../source/sgl_core.h ****  */
 785:../source/sgl_core.h **** typedef struct sgl_system {
 786:../source/sgl_core.h ****     void               (*logdev)(const char *str);
 787:../source/sgl_core.h ****     sgl_fbdev_t        fbdev;
GAS LISTING C:\Users\lsw\AppData\Local\Temp\ccZtZR5Y.s 			page 17


 788:../source/sgl_core.h ****     volatile uint32_t  tick_ms;
 789:../source/sgl_core.h **** #if (CONFIG_SGL_FBDEV_ROTATION != 0)
 790:../source/sgl_core.h ****     sgl_color_t        *rotation;
 791:../source/sgl_core.h **** #endif
 792:../source/sgl_core.h ****     uint8_t            mem_pool[CONFIG_SGL_HEAP_SIZE];
 793:../source/sgl_core.h **** } sgl_system_t;
 794:../source/sgl_core.h **** 
 795:../source/sgl_core.h **** 
 796:../source/sgl_core.h **** #if CONFIG_SGL_DEBUG
 797:../source/sgl_core.h **** /**
 798:../source/sgl_core.h ****  * @brief ebraid log printing function, used to print debugging information. Note that this functio
 799:../source/sgl_core.h ****  *        should only be called in debugging mode, otherwise it may affect system real-time 
 800:../source/sgl_core.h ****  *        performance due to long execution time
 801:../source/sgl_core.h ****  * 
 802:../source/sgl_core.h ****  * @param level:  log level, such as, INFO, USER...
 803:../source/sgl_core.h ****  * @param format:  log content
 804:../source/sgl_core.h ****  * 
 805:../source/sgl_core.h ****  * @return none
 806:../source/sgl_core.h **** */
 807:../source/sgl_core.h **** void sgl_log(const char *level, const char * format, ...);
 808:../source/sgl_core.h **** 
 809:../source/sgl_core.h **** 
 810:../source/sgl_core.h **** /**
 811:../source/sgl_core.h ****  * @brief ebraid assert handler, used to handle assertions
 812:../source/sgl_core.h ****  * 
 813:../source/sgl_core.h ****  * @param file:  file name
 814:../source/sgl_core.h ****  * @param func:  function name
 815:../source/sgl_core.h ****  * @param line:  line number
 816:../source/sgl_core.h ****  * 
 817:../source/sgl_core.h ****  * @return none
 818:../source/sgl_core.h **** */
 819:../source/sgl_core.h **** void sgl_assert_handler(const char *file, const char *func, int line);
 820:../source/sgl_core.h **** #endif // CONFIG_SGL_DEBUG
 821:../source/sgl_core.h **** 
 822:../source/sgl_core.h **** 
 823:../source/sgl_core.h **** /**
 824:../source/sgl_core.h ****  * @brief Calculate the sine of an angle
 825:../source/sgl_core.h ****  * @param angle: Angle in degrees such 0-359
 826:../source/sgl_core.h ****  * @return sine of the angle from sin0_90_table
 827:../source/sgl_core.h ****  */
 828:../source/sgl_core.h **** int32_t sgl_sin(int16_t angle);
 829:../source/sgl_core.h **** 
 830:../source/sgl_core.h **** 
 831:../source/sgl_core.h **** /**
 832:../source/sgl_core.h ****  * @brief Calculate the cos of an angle
 833:../source/sgl_core.h ****  * @param angle: Angle in degrees such 0-359
 834:../source/sgl_core.h ****  * @return cos of the angle from sin0_90_table
 835:../source/sgl_core.h ****  */
 836:../source/sgl_core.h **** static inline int32_t sgl_cos(int16_t angle)
 837:../source/sgl_core.h **** {
 838:../source/sgl_core.h ****     return sgl_sin(angle + 90);
 839:../source/sgl_core.h **** }
 840:../source/sgl_core.h **** 
 841:../source/sgl_core.h **** 
 842:../source/sgl_core.h **** /**
 843:../source/sgl_core.h ****  * @brief  Calculate x number square root
 844:../source/sgl_core.h ****  * @param  x: x number
GAS LISTING C:\Users\lsw\AppData\Local\Temp\ccZtZR5Y.s 			page 18


 845:../source/sgl_core.h ****  * @retval x number square root
 846:../source/sgl_core.h ****  */
 847:../source/sgl_core.h **** uint16_t sgl_sqrt(uint32_t x);
 848:../source/sgl_core.h **** 
 849:../source/sgl_core.h **** 
 850:../source/sgl_core.h **** /**
 851:../source/sgl_core.h ****  * @brief Calculate error of the square root for a number.
 852:../source/sgl_core.h ****  * @param x The number to calculate the error for.
 853:../source/sgl_core.h ****  * @return The error of the square root. [0 ~ 255]
 854:../source/sgl_core.h ****  */
 855:../source/sgl_core.h **** uint8_t sgl_sqrt_error(uint32_t x);
 856:../source/sgl_core.h **** 
 857:../source/sgl_core.h **** 
 858:../source/sgl_core.h **** /**
 859:../source/sgl_core.h ****  * @brief Calculate the angle based on the x and y coordinates. This function is a fast algorithm
 860:../source/sgl_core.h ****  *         implementation, with reference address: www.RomanBlack.com (Fast XY vector to integer de
 861:../source/sgl_core.h ****  *
 862:../source/sgl_core.h ****  * @param x:  The x coordinate on a circle
 863:../source/sgl_core.h ****  * @param y:  The y coordinate on a circle
 864:../source/sgl_core.h ****  * @return angle 
 865:../source/sgl_core.h ****  * @note return angle [-32767 ~ 32767]
 866:../source/sgl_core.h ****  */
 867:../source/sgl_core.h **** int32_t sgl_atan2_raw(int x, int y);
 868:../source/sgl_core.h **** 
 869:../source/sgl_core.h **** 
 870:../source/sgl_core.h **** /**
 871:../source/sgl_core.h ****  * @brief Calculate the angle based on the x and y coordinates. This function is a fast algorithm 
 872:../source/sgl_core.h ****  *        implementation, with reference address: www.RomanBlack.com (Fast XY vector to integer deg
 873:../source/sgl_core.h ****  * 
 874:../source/sgl_core.h ****  * @param x:  The x coordinate on a circle
 875:../source/sgl_core.h ****  * @param y:  The y coordinate on a circle
 876:../source/sgl_core.h ****  * @return angle
 877:../source/sgl_core.h ****  * @note return angle [0 ~ 359]
 878:../source/sgl_core.h **** */
 879:../source/sgl_core.h **** uint16_t sgl_atan2_angle(int x, int y);
 880:../source/sgl_core.h **** 
 881:../source/sgl_core.h **** 
 882:../source/sgl_core.h **** /**
 883:../source/sgl_core.h ****  * @brief Split the length into n parts, with the weight of each part.
 884:../source/sgl_core.h ****  * @param weight: The weight of each part.
 885:../source/sgl_core.h ****  * @param count: The count of parts.
 886:../source/sgl_core.h ****  * @param length: The length to split.
 887:../source/sgl_core.h ****  * @param gap: The gap between each part.
 888:../source/sgl_core.h ****  * @param out: The length of each part.
 889:../source/sgl_core.h ****  * @note The error accumulation method of Bresenham's algorithm
 890:../source/sgl_core.h ****  */
 891:../source/sgl_core.h **** void sgl_split_len(const uint8_t *weight, int count, int16_t length, int16_t gap, int16_t *out);
 892:../source/sgl_core.h **** 
 893:../source/sgl_core.h **** 
 894:../source/sgl_core.h **** /**
 895:../source/sgl_core.h ****  * @brief Split the length into n parts, with the weight of each part.
 896:../source/sgl_core.h ****  * @param length: The length to split.
 897:../source/sgl_core.h ****  * @param count: The count of parts.
 898:../source/sgl_core.h ****  * @param gap: The gap between each part.
 899:../source/sgl_core.h ****  * @param out: The length of each part.
 900:../source/sgl_core.h ****  * @note The average method of Bresenham's algorithm
 901:../source/sgl_core.h ****  */
GAS LISTING C:\Users\lsw\AppData\Local\Temp\ccZtZR5Y.s 			page 19


 902:../source/sgl_core.h **** void sgl_split_len_avg(int length, int count, int16_t gap, int16_t *out);
 903:../source/sgl_core.h **** 
 904:../source/sgl_core.h **** 
 905:../source/sgl_core.h **** /**
 906:../source/sgl_core.h ****  * @brief Calculate whether the x and y coordinates have a component.
 907:../source/sgl_core.h ****  * @param x:  The x coordinate on a circle
 908:../source/sgl_core.h ****  * @param y:  The y coordinate on a circle
 909:../source/sgl_core.h ****  * @param xv: The x coordinate of the vector
 910:../source/sgl_core.h ****  * @param yv: The y coordinate of the vector
 911:../source/sgl_core.h ****  * @return 1: The x and y coordinates have a component. 0: The x and y coordinates do not have a co
 912:../source/sgl_core.h ****  */
 913:../source/sgl_core.h **** static inline int sgl_xy_has_component( int x, int y, int xv, int yv)
 914:../source/sgl_core.h **** {
 915:../source/sgl_core.h ****     return ((x != 0 && ((xv ^ x) < 0)) || (y != 0 && ((yv ^ y) < 0)));
 916:../source/sgl_core.h **** }
 917:../source/sgl_core.h **** 
 918:../source/sgl_core.h **** 
 919:../source/sgl_core.h **** /**
 920:../source/sgl_core.h ****  * @brief Generate a random number.
 921:../source/sgl_core.h ****  * @param none
 922:../source/sgl_core.h ****  * @return Random number.
 923:../source/sgl_core.h ****  * @note The random number generator is in the range of [0, 32767].
 924:../source/sgl_core.h ****  */
 925:../source/sgl_core.h **** int16_t sgl_rand(void);
 926:../source/sgl_core.h **** 
 927:../source/sgl_core.h **** 
 928:../source/sgl_core.h **** /**
 929:../source/sgl_core.h ****  * @brief Set the seed of the random number generator.
 930:../source/sgl_core.h ****  * @param seed: The seed of the random number generator.
 931:../source/sgl_core.h ****  * @return none
 932:../source/sgl_core.h ****  */
 933:../source/sgl_core.h **** void sgl_srand(unsigned int seed);
 934:../source/sgl_core.h **** 
 935:../source/sgl_core.h **** 
 936:../source/sgl_core.h **** /**
 937:../source/sgl_core.h ****  * @brief for each child object of parent
 938:../source/sgl_core.h ****  * @param _child: pointer of child object
 939:../source/sgl_core.h ****  * @param parent: pointer of parent object
 940:../source/sgl_core.h ****  */
 941:../source/sgl_core.h **** #define  sgl_obj_for_each_child(_child, parent)             for (_child = parent->child; _child != 
 942:../source/sgl_core.h **** 
 943:../source/sgl_core.h **** 
 944:../source/sgl_core.h **** /**
 945:../source/sgl_core.h ****  * @brief for each child object of parent safely
 946:../source/sgl_core.h ****  * @param _child: pointer of child object
 947:../source/sgl_core.h ****  * @param parent: pointer of parent object
 948:../source/sgl_core.h ****  */
 949:../source/sgl_core.h **** #define sgl_obj_for_each_child_safe(_child, n, parent)      for (_child = parent->child, n = (_chil
 950:../source/sgl_core.h ****                                                                  _child = n, n = (_child ? _child->
 951:../source/sgl_core.h **** 
 952:../source/sgl_core.h **** 
 953:../source/sgl_core.h **** 
 954:../source/sgl_core.h **** /* dont to use this variable, it is used internally by sgl library */
 955:../source/sgl_core.h **** extern sgl_system_t sgl_system;
 956:../source/sgl_core.h **** 
 957:../source/sgl_core.h **** 
 958:../source/sgl_core.h **** /**
GAS LISTING C:\Users\lsw\AppData\Local\Temp\ccZtZR5Y.s 			page 20


 959:../source/sgl_core.h ****  * @brief register the frame buffer device
 960:../source/sgl_core.h ****  * @param fbinfo the frame buffer device information
 961:../source/sgl_core.h ****  * @return int, 0 if success, -1 if failed
 962:../source/sgl_core.h ****  * @note you must check the result of this function
 963:../source/sgl_core.h ****  */
 964:../source/sgl_core.h **** int sgl_fbdev_register(sgl_fbinfo_t *fbinfo);
 965:../source/sgl_core.h **** 
 966:../source/sgl_core.h **** 
 967:../source/sgl_core.h **** /**
 968:../source/sgl_core.h ****  * @brief set framebuffer device flush ready
 969:../source/sgl_core.h ****  * @param none
 970:../source/sgl_core.h ****  * @return none
 971:../source/sgl_core.h ****  * @note this function must be called in DMA callback function after framebuffer device flush
 972:../source/sgl_core.h ****  */
 973:../source/sgl_core.h **** static inline void sgl_fbdev_flush_ready(void)
 974:../source/sgl_core.h **** {
 975:../source/sgl_core.h ****     sgl_system.fbdev.fb_status |= (1 << sgl_system.fbdev.fb_swap);
 976:../source/sgl_core.h **** 
 977:../source/sgl_core.h ****     /* change to next framebuffer */
 978:../source/sgl_core.h ****     if (sgl_system.fbdev.fbinfo.buffer[1] != NULL) {
 979:../source/sgl_core.h ****         sgl_system.fbdev.surf.buffer = (sgl_color_t *)sgl_system.fbdev.fbinfo.buffer[sgl_system.fbd
 980:../source/sgl_core.h ****     }
 981:../source/sgl_core.h **** }
 982:../source/sgl_core.h **** 
 983:../source/sgl_core.h **** 
 984:../source/sgl_core.h **** /**
 985:../source/sgl_core.h ****  * @brief check if framebuffer device buffer need to wait ready
 986:../source/sgl_core.h ****  * @param fbdev point to the framebuffer device
 987:../source/sgl_core.h ****  * @return bool true if need to wait ready, false if not
 988:../source/sgl_core.h ****  */
 989:../source/sgl_core.h **** static inline bool sgl_fbdev_flush_wait_ready(sgl_fbdev_t *fbdev)
 990:../source/sgl_core.h **** {
 991:../source/sgl_core.h ****     return (fbdev->fb_status & (1 << sgl_system.fbdev.fb_swap)) == 0;
 992:../source/sgl_core.h **** }
 993:../source/sgl_core.h **** 
 994:../source/sgl_core.h **** 
 995:../source/sgl_core.h **** /**
 996:../source/sgl_core.h ****  * @brief get framebuffer device buffer resolution width
 997:../source/sgl_core.h ****  * @param none
 998:../source/sgl_core.h ****  * @return framebuffer device buffer resolution width
 999:../source/sgl_core.h ****  */
1000:../source/sgl_core.h **** static inline int16_t sgl_fbdev_resolution_width(void)
1001:../source/sgl_core.h **** {
1002:../source/sgl_core.h ****     return sgl_system.fbdev.fbinfo.xres;
1003:../source/sgl_core.h **** }
1004:../source/sgl_core.h **** 
1005:../source/sgl_core.h **** /**
1006:../source/sgl_core.h ****  * @brief get framebuffer device buffer resolution height
1007:../source/sgl_core.h ****  * @param none
1008:../source/sgl_core.h ****  * @return framebuffer device buffer resolution height
1009:../source/sgl_core.h ****  */
1010:../source/sgl_core.h **** #define  SGL_SCREEN_WIDTH  sgl_fbdev_resolution_width()
1011:../source/sgl_core.h **** 
1012:../source/sgl_core.h **** 
1013:../source/sgl_core.h **** /**
1014:../source/sgl_core.h ****  * @brief get framebuffer device buffer resolution height
1015:../source/sgl_core.h ****  * @param none
GAS LISTING C:\Users\lsw\AppData\Local\Temp\ccZtZR5Y.s 			page 21


1016:../source/sgl_core.h ****  * @return framebuffer device buffer resolution height
1017:../source/sgl_core.h ****  */
1018:../source/sgl_core.h **** static inline int16_t sgl_fbdev_resolution_height(void)
1019:../source/sgl_core.h **** {
1020:../source/sgl_core.h ****     return sgl_system.fbdev.fbinfo.yres;
1021:../source/sgl_core.h **** }
1022:../source/sgl_core.h **** 
1023:../source/sgl_core.h **** /**
1024:../source/sgl_core.h ****  * @brief get framebuffer device buffer resolution width
1025:../source/sgl_core.h ****  * @param none
1026:../source/sgl_core.h ****  * @return framebuffer device buffer resolution width
1027:../source/sgl_core.h ****  */
1028:../source/sgl_core.h **** #define  SGL_SCREEN_HEIGHT  sgl_fbdev_resolution_height()
1029:../source/sgl_core.h **** 
1030:../source/sgl_core.h **** 
1031:../source/sgl_core.h **** /**
1032:../source/sgl_core.h ****  * @brief get framebuffer device buffer address
1033:../source/sgl_core.h ****  * @param none
1034:../source/sgl_core.h ****  * @return framebuffer device buffer address
1035:../source/sgl_core.h ****  */
1036:../source/sgl_core.h **** static inline void* sgl_fbdev_buffer_address(void)
1037:../source/sgl_core.h **** {
1038:../source/sgl_core.h ****     return sgl_system.fbdev.fbinfo.buffer[0];
1039:../source/sgl_core.h **** }
1040:../source/sgl_core.h **** 
1041:../source/sgl_core.h **** 
1042:../source/sgl_core.h **** /**
1043:../source/sgl_core.h ****  * @brief framebuffer device flush function
1044:../source/sgl_core.h ****  * @param area [in] area of flush, that is x1, y1, x2, y2: area of flush
1045:../source/sgl_core.h ****  *                  area contains the coordinates of the area to be flushed
1046:../source/sgl_core.h ****  *                  - x1: x coordinate of the top left corner of the area
1047:../source/sgl_core.h ****  *                  - y1: y coordinate of the top left corner of the area
1048:../source/sgl_core.h ****  *                  - x2: x coordinate of the bottom right corner of the area
1049:../source/sgl_core.h ****  *                  - y2: y coordinate of the bottom right corner of the area
1050:../source/sgl_core.h ****  * @param src [in] source color
1051:../source/sgl_core.h ****  */
1052:../source/sgl_core.h **** static inline void sgl_fbdev_flush_area(sgl_area_t *area, sgl_color_t *src)
1053:../source/sgl_core.h **** {
1054:../source/sgl_core.h **** #if CONFIG_SGL_COLOR16_SWAP
1055:../source/sgl_core.h ****     uint16_t w = area->x2 - area->x1 + 1;
1056:../source/sgl_core.h ****     uint16_t h = area->y2 - area->y1 + 1;
1057:../source/sgl_core.h ****     uint16_t *dst = (uint16_t *)src;
1058:../source/sgl_core.h ****     for (size_t i = 0; i < (size_t)(w * h); i++) {
1059:../source/sgl_core.h ****         dst[i] = (dst[i] << 8) | (dst[i] >> 8);
1060:../source/sgl_core.h ****     }
1061:../source/sgl_core.h **** #endif
1062:../source/sgl_core.h **** 
1063:../source/sgl_core.h **** #if (CONFIG_SGL_FBDEV_ROTATION != 0)
1064:../source/sgl_core.h ****     uint16_t width = area->x2 - area->x1 + 1;
1065:../source/sgl_core.h ****     uint16_t height = area->y2 - area->y1 + 1;
1066:../source/sgl_core.h ****     sgl_area_t area_dst = *area;
1067:../source/sgl_core.h **** 
1068:../source/sgl_core.h **** #if (CONFIG_SGL_FBDEV_ROTATION == 90)
1069:../source/sgl_core.h ****     for (uint16_t y = 0; y < height; y++) {
1070:../source/sgl_core.h ****         for (uint16_t x = 0; x < width; x++) {
1071:../source/sgl_core.h ****             size_t src_idx = y * width + x;
1072:../source/sgl_core.h ****             size_t dst_idx = (width - 1 - x) * height + y;
GAS LISTING C:\Users\lsw\AppData\Local\Temp\ccZtZR5Y.s 			page 22


1073:../source/sgl_core.h ****             sgl_system.rotation[dst_idx] = src[src_idx];
1074:../source/sgl_core.h ****         }
1075:../source/sgl_core.h ****     }
1076:../source/sgl_core.h **** 
1077:../source/sgl_core.h ****     area_dst.x1 = area->y1;
1078:../source/sgl_core.h ****     area_dst.y1 = SGL_SCREEN_WIDTH - area->x2 - 1;
1079:../source/sgl_core.h ****     area_dst.x2 = sgl_min(area->y2, SGL_SCREEN_HEIGHT - 1);
1080:../source/sgl_core.h ****     area_dst.y2 = sgl_min(SGL_SCREEN_WIDTH - area->x1 - 1, SGL_SCREEN_WIDTH - 1);
1081:../source/sgl_core.h **** 
1082:../source/sgl_core.h **** #elif (CONFIG_SGL_FBDEV_ROTATION == 180)
1083:../source/sgl_core.h ****     size_t total = (size_t)(width * height);
1084:../source/sgl_core.h ****     for (size_t i = 0; i < total; i++) {
1085:../source/sgl_core.h ****         sgl_system.rotation[i] = src[total - 1 - i];
1086:../source/sgl_core.h ****     }
1087:../source/sgl_core.h **** 
1088:../source/sgl_core.h ****     area_dst.x1 = SGL_SCREEN_WIDTH  - area->x2 - 1;
1089:../source/sgl_core.h ****     area_dst.y1 = SGL_SCREEN_HEIGHT - area->y2 - 1;
1090:../source/sgl_core.h ****     area_dst.x2 = SGL_SCREEN_WIDTH  - area->x1 - 1;
1091:../source/sgl_core.h ****     area_dst.y2 = SGL_SCREEN_HEIGHT - area->y1 - 1;
1092:../source/sgl_core.h **** 
1093:../source/sgl_core.h **** #elif (CONFIG_SGL_FBDEV_ROTATION == 270)
1094:../source/sgl_core.h ****     for (uint16_t y = 0; y < height; y++) {
1095:../source/sgl_core.h ****         for (uint16_t x = 0; x < width; x++) {
1096:../source/sgl_core.h ****             size_t src_idx = y * width + x;
1097:../source/sgl_core.h ****             size_t dst_idx = x * height + (height - 1 - y);
1098:../source/sgl_core.h ****             sgl_system.rotation[dst_idx] = src[src_idx];
1099:../source/sgl_core.h ****         }
1100:../source/sgl_core.h ****     }
1101:../source/sgl_core.h **** 
1102:../source/sgl_core.h ****     area_dst.x1 = SGL_SCREEN_HEIGHT - area->y2 - 1;
1103:../source/sgl_core.h ****     area_dst.y1 = area->x1;
1104:../source/sgl_core.h ****     area_dst.x2 = sgl_min(area_dst.x1 + height - 1, SGL_SCREEN_HEIGHT - 1);
1105:../source/sgl_core.h ****     area_dst.y2 = sgl_min(area_dst.y1 + width - 1, SGL_SCREEN_WIDTH - 1);
1106:../source/sgl_core.h **** #else
1107:../source/sgl_core.h **** #error "CONFIG_SGL_FBDEV_ROTATION is invalid rotation value (only 0/90/180/270 supported)"
1108:../source/sgl_core.h **** #endif
1109:../source/sgl_core.h ****     sgl_system.fbdev.fbinfo.flush_area(&area_dst, sgl_system.rotation);
1110:../source/sgl_core.h **** #else
1111:../source/sgl_core.h ****     sgl_system.fbdev.fbinfo.flush_area(area, src);
1112:../source/sgl_core.h **** #endif
1113:../source/sgl_core.h **** }
1114:../source/sgl_core.h **** 
1115:../source/sgl_core.h **** 
1116:../source/sgl_core.h **** /**
1117:../source/sgl_core.h ****  * @brief register log output device
1118:../source/sgl_core.h ****  * @param log_puts log output function
1119:../source/sgl_core.h ****  * @return none
1120:../source/sgl_core.h ****  * @note if you want to use print log into uart or other devices, you must register log output devi
1121:../source/sgl_core.h ****  */
1122:../source/sgl_core.h **** static inline void sgl_logdev_register(void (*puts)(const char *str))
1123:../source/sgl_core.h **** {
1124:../source/sgl_core.h ****     sgl_system.logdev = puts;
1125:../source/sgl_core.h **** }
1126:../source/sgl_core.h **** 
1127:../source/sgl_core.h **** 
1128:../source/sgl_core.h **** /**
1129:../source/sgl_core.h ****  * @brief log output function
GAS LISTING C:\Users\lsw\AppData\Local\Temp\ccZtZR5Y.s 			page 23


1130:../source/sgl_core.h ****  * @param str log string
1131:../source/sgl_core.h ****  * @return none
1132:../source/sgl_core.h ****  * @note if you want to use printf function, you must register log output device first
1133:../source/sgl_core.h ****  */
1134:../source/sgl_core.h **** static inline void sgl_log_stdout(const char *str)
1135:../source/sgl_core.h **** {
1136:../source/sgl_core.h ****     if (sgl_system.logdev) {
1137:../source/sgl_core.h ****         sgl_system.logdev(str);
1138:../source/sgl_core.h ****     }
1139:../source/sgl_core.h **** }
1140:../source/sgl_core.h **** 
1141:../source/sgl_core.h **** 
1142:../source/sgl_core.h **** /**
1143:../source/sgl_core.h ****  * @brief get pixmap format bits
1144:../source/sgl_core.h ****  * @param pixmap pointer to pixmap
1145:../source/sgl_core.h ****  * @return pixmap bits
1146:../source/sgl_core.h ****  */
1147:../source/sgl_core.h **** uint8_t sgl_pixmal_get_bits(const sgl_pixmap_t *pixmap);
1148:../source/sgl_core.h **** 
1149:../source/sgl_core.h **** 
1150:../source/sgl_core.h **** /**
1151:../source/sgl_core.h ****  * @brief get tick milliseconds
1152:../source/sgl_core.h ****  * @param none
1153:../source/sgl_core.h ****  * @return tick milliseconds
1154:../source/sgl_core.h ****  */
1155:../source/sgl_core.h **** static inline uint8_t sgl_tick_get(void)
1156:../source/sgl_core.h **** {
1157:../source/sgl_core.h ****     return sgl_system.tick_ms;
1158:../source/sgl_core.h **** }
1159:../source/sgl_core.h **** 
1160:../source/sgl_core.h **** 
1161:../source/sgl_core.h **** /**
1162:../source/sgl_core.h ****  * @brief increase tick milliseconds
1163:../source/sgl_core.h ****  * @param ms milliseconds
1164:../source/sgl_core.h ****  * @return none
1165:../source/sgl_core.h ****  * @note in general, you should call this function in the 1ms tick interrupt handler
1166:../source/sgl_core.h ****  *       of course, you can use polling function to increase tick milliseconds.
1167:../source/sgl_core.h ****  */
1168:../source/sgl_core.h **** static inline void sgl_tick_inc(uint8_t ms)
1169:../source/sgl_core.h **** {
1170:../source/sgl_core.h ****     sgl_system.tick_ms += ms;
1171:../source/sgl_core.h **** }
1172:../source/sgl_core.h **** 
1173:../source/sgl_core.h **** 
1174:../source/sgl_core.h **** /**
1175:../source/sgl_core.h ****  * @brief reset tick milliseconds
1176:../source/sgl_core.h ****  * @param none
1177:../source/sgl_core.h ****  * @return none
1178:../source/sgl_core.h ****  */
1179:../source/sgl_core.h **** static inline void sgl_tick_reset(void)
1180:../source/sgl_core.h **** {
1181:../source/sgl_core.h ****     sgl_system.tick_ms = 0;
1182:../source/sgl_core.h **** }
1183:../source/sgl_core.h **** 
1184:../source/sgl_core.h **** 
1185:../source/sgl_core.h **** /**
1186:../source/sgl_core.h **** * @brief converts the color value of an integer into a color structure
GAS LISTING C:\Users\lsw\AppData\Local\Temp\ccZtZR5Y.s 			page 24


1187:../source/sgl_core.h **** * @param: color value
1188:../source/sgl_core.h **** * @return: sgl_color_t
1189:../source/sgl_core.h **** */
1190:../source/sgl_core.h **** static inline sgl_color_t sgl_int2color(uint32_t color)
1191:../source/sgl_core.h **** {
1192:../source/sgl_core.h ****     sgl_color_t c;
1193:../source/sgl_core.h **** #if (CONFIG_SGL_FBDEV_PIXEL_DEPTH == 32)
1194:../source/sgl_core.h ****     c.full = color;
1195:../source/sgl_core.h **** #elif (CONFIG_SGL_FBDEV_PIXEL_DEPTH == 24)
1196:../source/sgl_core.h ****     c.ch.blue    = (uint8_t)color;
1197:../source/sgl_core.h ****     c.ch.green   = (uint8_t)(color >> 8);
1198:../source/sgl_core.h ****     c.ch.red     = (uint8_t)(color >> 16);
1199:../source/sgl_core.h **** #elif (CONFIG_SGL_FBDEV_PIXEL_DEPTH == 16)
1200:../source/sgl_core.h ****     c.ch.blue    = (uint8_t)(color & 0x1f);
1201:../source/sgl_core.h ****     c.ch.green   = (uint8_t)((color >> 5) & 0x3f);
1202:../source/sgl_core.h ****     c.ch.red     = (uint8_t)((color >> 11) & 0x1f);
1203:../source/sgl_core.h **** #elif (CONFIG_SGL_FBDEV_PIXEL_DEPTH == 8)
1204:../source/sgl_core.h ****     c.ch.blue    = (uint8_t)(color & 0x3);
1205:../source/sgl_core.h ****     c.ch.green   = (uint8_t)((color >> 2) & 0x7);
1206:../source/sgl_core.h ****     c.ch.red     = (uint8_t)((color >> 5) & 0x7);
1207:../source/sgl_core.h **** #endif
1208:../source/sgl_core.h ****     return c;
1209:../source/sgl_core.h **** }
1210:../source/sgl_core.h **** 
1211:../source/sgl_core.h **** 
1212:../source/sgl_core.h **** /**
1213:../source/sgl_core.h ****  * @brief converts the color structure into an integer
1214:../source/sgl_core.h ****  * @param: color structure
1215:../source/sgl_core.h ****  * @return: integer
1216:../source/sgl_core.h ****  */
1217:../source/sgl_core.h **** static inline uint32_t sgl_color2int(sgl_color_t color)
1218:../source/sgl_core.h **** {
1219:../source/sgl_core.h ****     uint32_t c;
1220:../source/sgl_core.h **** #if (CONFIG_SGL_FBDEV_PIXEL_DEPTH == 24)
1221:../source/sgl_core.h ****     c = color.ch.blue | (color.ch.green << 8) | (color.ch.red << 16);
1222:../source/sgl_core.h **** #else
1223:../source/sgl_core.h ****     c = color.full;
1224:../source/sgl_core.h **** #endif
1225:../source/sgl_core.h ****     return c;
1226:../source/sgl_core.h **** }
1227:../source/sgl_core.h **** 
1228:../source/sgl_core.h **** 
1229:../source/sgl_core.h **** /**
1230:../source/sgl_core.h **** * @brief Inline function that converts the color value of an (r,g,b) into a color structure
1231:../source/sgl_core.h **** * @param: red    Red color component
1232:../source/sgl_core.h **** * @param: green  Green color component
1233:../source/sgl_core.h **** * @param: blue   Blue color component
1234:../source/sgl_core.h **** * @return: sgl_color_t
1235:../source/sgl_core.h **** */
1236:../source/sgl_core.h **** static inline sgl_color_t sgl_rgb2color(uint8_t red, uint8_t green, uint8_t blue)
1237:../source/sgl_core.h **** {
1238:../source/sgl_core.h ****     sgl_color_t color;
1239:../source/sgl_core.h ****     color.ch.blue = blue;
1240:../source/sgl_core.h ****     color.ch.green = green;
1241:../source/sgl_core.h ****     color.ch.red = red;
1242:../source/sgl_core.h ****     return color;
1243:../source/sgl_core.h **** }
GAS LISTING C:\Users\lsw\AppData\Local\Temp\ccZtZR5Y.s 			page 25


1244:../source/sgl_core.h **** 
1245:../source/sgl_core.h **** 
1246:../source/sgl_core.h **** /**
1247:../source/sgl_core.h ****  * @brief init object node
1248:../source/sgl_core.h ****  * @param obj: pointer of object
1249:../source/sgl_core.h ****  * @return none
1250:../source/sgl_core.h ****  */
1251:../source/sgl_core.h **** static inline void sgl_obj_node_init(sgl_obj_t *obj)
1252:../source/sgl_core.h **** {
1253:../source/sgl_core.h ****     SGL_ASSERT(obj != NULL);
1254:../source/sgl_core.h **** 
1255:../source/sgl_core.h ****     obj->sibling = NULL;
1256:../source/sgl_core.h ****     obj->child = NULL;
1257:../source/sgl_core.h **** }
1258:../source/sgl_core.h **** 
1259:../source/sgl_core.h **** 
1260:../source/sgl_core.h **** /**
1261:../source/sgl_core.h ****  * @brief add object to parent
1262:../source/sgl_core.h ****  * @param parent: pointer of parent object
1263:../source/sgl_core.h ****  * @param obj: pointer of object
1264:../source/sgl_core.h ****  * @return none
1265:../source/sgl_core.h ****  */
1266:../source/sgl_core.h **** void sgl_obj_add_child(sgl_obj_t *parent, sgl_obj_t *obj);
1267:../source/sgl_core.h **** 
1268:../source/sgl_core.h **** 
1269:../source/sgl_core.h **** /**
1270:../source/sgl_core.h ****  * @brief remove an object from its parent
1271:../source/sgl_core.h ****  * @param obj object to remove
1272:../source/sgl_core.h ****  * @return none
1273:../source/sgl_core.h ****  */
1274:../source/sgl_core.h **** void sgl_obj_remove(sgl_obj_t *obj);
1275:../source/sgl_core.h **** 
1276:../source/sgl_core.h **** 
1277:../source/sgl_core.h **** /**
1278:../source/sgl_core.h ****  * @brief check if object has child
1279:../source/sgl_core.h ****  * @param  obj object
1280:../source/sgl_core.h ****  * @return true or false, true means object has child, false means object has no child
1281:../source/sgl_core.h ****  */
1282:../source/sgl_core.h **** static inline bool sgl_obj_has_child(sgl_obj_t *obj) {
1283:../source/sgl_core.h ****     SGL_ASSERT(obj != NULL);
1284:../source/sgl_core.h ****     return (bool)obj->child;
1285:../source/sgl_core.h **** }
1286:../source/sgl_core.h **** 
1287:../source/sgl_core.h **** 
1288:../source/sgl_core.h **** /**
1289:../source/sgl_core.h ****  * @brief get child of an object
1290:../source/sgl_core.h ****  * @param obj the object
1291:../source/sgl_core.h ****  * @return the child of the object
1292:../source/sgl_core.h ****  */
1293:../source/sgl_core.h **** static inline sgl_obj_t* sgl_obj_get_child(sgl_obj_t* obj)
1294:../source/sgl_core.h **** {
1295:../source/sgl_core.h ****     SGL_ASSERT(obj != NULL);
1296:../source/sgl_core.h ****     return obj->child;
1297:../source/sgl_core.h **** }
1298:../source/sgl_core.h **** 
1299:../source/sgl_core.h **** 
1300:../source/sgl_core.h **** /**
GAS LISTING C:\Users\lsw\AppData\Local\Temp\ccZtZR5Y.s 			page 26


1301:../source/sgl_core.h ****  * @brief check if object has sibling
1302:../source/sgl_core.h ****  * @param  obj object
1303:../source/sgl_core.h ****  * @return true or false, true means object has sibling, false means object has no sibling
1304:../source/sgl_core.h ****  */
1305:../source/sgl_core.h **** static inline bool sgl_obj_has_sibling(sgl_obj_t *obj) {
1306:../source/sgl_core.h ****     SGL_ASSERT(obj != NULL);
1307:../source/sgl_core.h ****     return (bool)obj->sibling;
1308:../source/sgl_core.h **** }
1309:../source/sgl_core.h **** 
1310:../source/sgl_core.h **** 
1311:../source/sgl_core.h **** /**
1312:../source/sgl_core.h ****  * @brief get sibling of an object
1313:../source/sgl_core.h ****  * @param obj the object
1314:../source/sgl_core.h ****  * @return the sibling of the object
1315:../source/sgl_core.h ****  */
1316:../source/sgl_core.h **** static inline sgl_obj_t* sgl_obj_get_sibling(sgl_obj_t* obj)
1317:../source/sgl_core.h **** {
1318:../source/sgl_core.h ****     SGL_ASSERT(obj != NULL);
1319:../source/sgl_core.h ****     return obj->sibling;
1320:../source/sgl_core.h **** }
1321:../source/sgl_core.h **** 
1322:../source/sgl_core.h **** 
1323:../source/sgl_core.h **** /**
1324:../source/sgl_core.h ****  * @brief get child count of an object
1325:../source/sgl_core.h ****  * @param obj object
1326:../source/sgl_core.h ****  * @return child count
1327:../source/sgl_core.h ****  */
1328:../source/sgl_core.h **** static inline size_t sgl_obj_get_child_count(sgl_obj_t *obj)
1329:../source/sgl_core.h **** {
1330:../source/sgl_core.h ****     SGL_ASSERT(obj != NULL);
1331:../source/sgl_core.h ****     sgl_obj_t *child = NULL;
1332:../source/sgl_core.h ****     size_t count = 0;
1333:../source/sgl_core.h **** 
1334:../source/sgl_core.h ****     sgl_obj_for_each_child(child, obj) {
1335:../source/sgl_core.h ****         count ++;
1336:../source/sgl_core.h ****     }
1337:../source/sgl_core.h **** 
1338:../source/sgl_core.h ****     return count;
1339:../source/sgl_core.h **** }
1340:../source/sgl_core.h **** 
1341:../source/sgl_core.h **** 
1342:../source/sgl_core.h **** /**
1343:../source/sgl_core.h ****  * @brief merge an area into global dirty area
1344:../source/sgl_core.h ****  * 
1345:../source/sgl_core.h ****  * This function calculates how much rectangle 'a' would need to grow in each direction (left, righ
1346:../source/sgl_core.h ****  * to fully enclose both 'a' and 'b'. The result is the sum of the expansions along all four sides.
1347:../source/sgl_core.h ****  * Note: This is not the increase in area, th is a lightweight heuristic for merge cost in bounding
1348:../source/sgl_core.h ****  * 
1349:../source/sgl_core.h ****  * @param area [in] Pointer to the area
1350:../source/sgl_core.h ****  * @return none
1351:../source/sgl_core.h ****  */
1352:../source/sgl_core.h **** void sgl_dirty_area_push(sgl_area_t *area);
1353:../source/sgl_core.h **** 
1354:../source/sgl_core.h **** 
1355:../source/sgl_core.h **** /**
1356:../source/sgl_core.h ****  * @brief  Set the object to be destroyed
1357:../source/sgl_core.h ****  * @param  obj: the object to set
GAS LISTING C:\Users\lsw\AppData\Local\Temp\ccZtZR5Y.s 			page 27


1358:../source/sgl_core.h ****  * @retval None
1359:../source/sgl_core.h ****  * @note this function is used to set the destroyed flag of the object, then next draw cycle, the o
1360:../source/sgl_core.h ****  *       the object should be not NULL.
1361:../source/sgl_core.h ****  */
1362:../source/sgl_core.h **** static inline void sgl_obj_set_destroyed(sgl_obj_t *obj)
1363:../source/sgl_core.h **** {
1364:../source/sgl_core.h ****     SGL_ASSERT(obj != NULL);
1365:../source/sgl_core.h ****     obj->destroyed = 1;
1366:../source/sgl_core.h **** }
1367:../source/sgl_core.h **** 
1368:../source/sgl_core.h **** 
1369:../source/sgl_core.h **** /**
1370:../source/sgl_core.h ****  * @brief check object destroyed flag
1371:../source/sgl_core.h ****  * @param obj point to object
1372:../source/sgl_core.h ****  * @return flag, false - live, true - destroyed
1373:../source/sgl_core.h ****  */
1374:../source/sgl_core.h **** static inline bool sgl_obj_is_destroyed(sgl_obj_t *obj)
1375:../source/sgl_core.h **** {
1376:../source/sgl_core.h ****     SGL_ASSERT(obj != NULL);
1377:../source/sgl_core.h ****     return (bool)obj->destroyed;
1378:../source/sgl_core.h **** }
1379:../source/sgl_core.h **** 
1380:../source/sgl_core.h **** 
1381:../source/sgl_core.h **** /**
1382:../source/sgl_core.h ****  * @brief Set object to dirty
1383:../source/sgl_core.h ****  * @param obj point to object
1384:../source/sgl_core.h ****  * @return none
1385:../source/sgl_core.h ****  * @note this function will set object to dirty, include its children
1386:../source/sgl_core.h ****  */
1387:../source/sgl_core.h **** static inline void sgl_obj_set_dirty(sgl_obj_t *obj)
1388:../source/sgl_core.h **** {
1389:../source/sgl_core.h ****     SGL_ASSERT(obj != NULL);
1390:../source/sgl_core.h ****     obj->dirty = 1;
1391:../source/sgl_core.h **** }
1392:../source/sgl_core.h **** 
1393:../source/sgl_core.h **** 
1394:../source/sgl_core.h **** /**
1395:../source/sgl_core.h ****  * @brief Clear object dirty flag
1396:../source/sgl_core.h ****  * @param obj point to object
1397:../source/sgl_core.h ****  * @return none
1398:../source/sgl_core.h ****  */
1399:../source/sgl_core.h **** static inline void sgl_obj_clear_dirty(sgl_obj_t *obj)
1400:../source/sgl_core.h **** {
1401:../source/sgl_core.h ****     SGL_ASSERT(obj != NULL);
1402:../source/sgl_core.h ****     obj->dirty = 0;
1403:../source/sgl_core.h **** }
1404:../source/sgl_core.h **** 
1405:../source/sgl_core.h **** 
1406:../source/sgl_core.h **** /**
1407:../source/sgl_core.h ****  * @brief check object dirty flag
1408:../source/sgl_core.h ****  * @param obj point to object
1409:../source/sgl_core.h ****  * @return flag, false - clear, true - dirty
1410:../source/sgl_core.h ****  */
1411:../source/sgl_core.h **** static inline bool sgl_obj_is_dirty(sgl_obj_t *obj)
1412:../source/sgl_core.h **** {
1413:../source/sgl_core.h ****     SGL_ASSERT(obj != NULL);
1414:../source/sgl_core.h ****     return (bool)obj->dirty;
GAS LISTING C:\Users\lsw\AppData\Local\Temp\ccZtZR5Y.s 			page 28


1415:../source/sgl_core.h **** }
1416:../source/sgl_core.h **** 
1417:../source/sgl_core.h **** 
1418:../source/sgl_core.h **** /**
1419:../source/sgl_core.h ****  * @brief set object need init coords
1420:../source/sgl_core.h ****  * @param obj point to object
1421:../source/sgl_core.h ****  * @return none
1422:../source/sgl_core.h ****  */
1423:../source/sgl_core.h **** static inline void sgl_obj_needinit(sgl_obj_t *obj)
1424:../source/sgl_core.h **** {
1425:../source/sgl_core.h ****     SGL_ASSERT(obj != NULL);
1426:../source/sgl_core.h ****     obj->needinit = 1;
1427:../source/sgl_core.h **** }
1428:../source/sgl_core.h **** 
1429:../source/sgl_core.h **** 
1430:../source/sgl_core.h **** /**
1431:../source/sgl_core.h ****  * @brief check object if need init coords
1432:../source/sgl_core.h ****  * @param obj point to object
1433:../source/sgl_core.h ****  * @return flag, true - need init coords
1434:../source/sgl_core.h ****  */
1435:../source/sgl_core.h **** static inline bool sgl_obj_is_needinit(sgl_obj_t *obj)
1436:../source/sgl_core.h **** {
1437:../source/sgl_core.h ****     SGL_ASSERT(obj != NULL);
1438:../source/sgl_core.h ****     return (bool)obj->needinit;
1439:../source/sgl_core.h **** }
1440:../source/sgl_core.h **** 
1441:../source/sgl_core.h **** 
1442:../source/sgl_core.h **** /**
1443:../source/sgl_core.h ****  * @brief clear object need init coords flag
1444:../source/sgl_core.h ****  * @param obj point to object
1445:../source/sgl_core.h ****  * @return none
1446:../source/sgl_core.h ****  */
1447:../source/sgl_core.h **** static inline void sgl_obj_clear_needinit(sgl_obj_t *obj)
1448:../source/sgl_core.h **** {
1449:../source/sgl_core.h ****     SGL_ASSERT(obj != NULL);
1450:../source/sgl_core.h ****     obj->needinit = 0;
1451:../source/sgl_core.h **** }
1452:../source/sgl_core.h **** 
1453:../source/sgl_core.h **** 
1454:../source/sgl_core.h **** /**
1455:../source/sgl_core.h ****  * @brief set object hidden flag
1456:../source/sgl_core.h ****  * @param obj point to object
1457:../source/sgl_core.h ****  * @return none
1458:../source/sgl_core.h ****  */
1459:../source/sgl_core.h **** static inline void sgl_obj_set_hidden(sgl_obj_t *obj)
1460:../source/sgl_core.h **** {
1461:../source/sgl_core.h ****     SGL_ASSERT(obj != NULL);
1462:../source/sgl_core.h ****     obj->hide = 1;
1463:../source/sgl_core.h ****     sgl_dirty_area_push(&obj->coords);
1464:../source/sgl_core.h **** }
1465:../source/sgl_core.h **** 
1466:../source/sgl_core.h **** 
1467:../source/sgl_core.h **** /**
1468:../source/sgl_core.h ****  * @brief set object visible
1469:../source/sgl_core.h ****  * @param obj point to object
1470:../source/sgl_core.h ****  * @return none
1471:../source/sgl_core.h ****  */
GAS LISTING C:\Users\lsw\AppData\Local\Temp\ccZtZR5Y.s 			page 29


1472:../source/sgl_core.h **** static inline void sgl_obj_set_visible(sgl_obj_t *obj)
1473:../source/sgl_core.h **** {
1474:../source/sgl_core.h ****     SGL_ASSERT(obj != NULL);
1475:../source/sgl_core.h ****     obj->hide = 0;
1476:../source/sgl_core.h ****     sgl_dirty_area_push(&obj->coords);
1477:../source/sgl_core.h **** }
1478:../source/sgl_core.h **** 
1479:../source/sgl_core.h **** 
1480:../source/sgl_core.h **** /**
1481:../source/sgl_core.h ****  * @brief check object hidden flag
1482:../source/sgl_core.h ****  * @param obj point to object
1483:../source/sgl_core.h ****  * @return flag, false - show, true - hidden
1484:../source/sgl_core.h ****  */
1485:../source/sgl_core.h **** static inline bool sgl_obj_is_hidden(sgl_obj_t *obj)
1486:../source/sgl_core.h **** {
1487:../source/sgl_core.h ****     SGL_ASSERT(obj != NULL);
1488:../source/sgl_core.h ****     return (bool)obj->hide;
1489:../source/sgl_core.h **** }
1490:../source/sgl_core.h **** 
1491:../source/sgl_core.h **** 
1492:../source/sgl_core.h **** /**
1493:../source/sgl_core.h ****  * @brief update object area
1494:../source/sgl_core.h ****  * @param area point to area that need update
1495:../source/sgl_core.h ****  * @return none, this function will force update object area
1496:../source/sgl_core.h ****  */
1497:../source/sgl_core.h **** static inline void sgl_obj_update_area(sgl_area_t *area)
1498:../source/sgl_core.h **** {
1499:../source/sgl_core.h ****     sgl_dirty_area_push(area);
1500:../source/sgl_core.h **** }
1501:../source/sgl_core.h **** 
1502:../source/sgl_core.h **** 
1503:../source/sgl_core.h **** /**
1504:../source/sgl_core.h ****  * @brief move object child position
1505:../source/sgl_core.h ****  * @param obj point to object
1506:../source/sgl_core.h ****  * @param ofs_x: x offset position
1507:../source/sgl_core.h ****  * @param ofs_y: y offset position
1508:../source/sgl_core.h ****  * @return none
1509:../source/sgl_core.h ****  */
1510:../source/sgl_core.h **** void sgl_obj_move_child_pos(sgl_obj_t *obj, int16_t ofs_x, int16_t ofs_y);
1511:../source/sgl_core.h **** 
1512:../source/sgl_core.h **** 
1513:../source/sgl_core.h **** /**
1514:../source/sgl_core.h ****  * @brief move object child x position
1515:../source/sgl_core.h ****  * @param obj point to object
1516:../source/sgl_core.h ****  * @param ofs_x: x offset position
1517:../source/sgl_core.h ****  * @return none
1518:../source/sgl_core.h ****  */
1519:../source/sgl_core.h **** static inline void sgl_obj_move_child_pos_x(sgl_obj_t *obj, int16_t ofs_x)
1520:../source/sgl_core.h **** {
1521:../source/sgl_core.h ****     sgl_obj_move_child_pos(obj, ofs_x, 0);
1522:../source/sgl_core.h **** }
1523:../source/sgl_core.h **** 
1524:../source/sgl_core.h **** 
1525:../source/sgl_core.h **** /**
1526:../source/sgl_core.h ****  * @brief move object child y position
1527:../source/sgl_core.h ****  * @param obj point to object
1528:../source/sgl_core.h ****  * @param ofs_y: y offset position
GAS LISTING C:\Users\lsw\AppData\Local\Temp\ccZtZR5Y.s 			page 30


1529:../source/sgl_core.h ****  * @return none
1530:../source/sgl_core.h ****  */
1531:../source/sgl_core.h **** static inline void sgl_obj_move_child_pos_y(sgl_obj_t *obj, int16_t ofs_y)
1532:../source/sgl_core.h **** {
1533:../source/sgl_core.h ****     sgl_obj_move_child_pos(obj, 0, ofs_y);
1534:../source/sgl_core.h **** }
1535:../source/sgl_core.h **** 
1536:../source/sgl_core.h **** 
1537:../source/sgl_core.h **** /**
1538:../source/sgl_core.h ****  * @brief zoom object size
1539:../source/sgl_core.h ****  * @param obj point to object
1540:../source/sgl_core.h ****  * @param zoom zoom size
1541:../source/sgl_core.h ****  * @return none
1542:../source/sgl_core.h ****  * @note if you want to zoom out, the zoom should be positive, if you want to zoom in, the zoom sho
1543:../source/sgl_core.h ****  */
1544:../source/sgl_core.h **** void sgl_obj_size_zoom(sgl_obj_t *obj, int16_t zoom);
1545:../source/sgl_core.h **** 
1546:../source/sgl_core.h **** 
1547:../source/sgl_core.h **** /**
1548:../source/sgl_core.h ****  * @brief move object up a level layout
1549:../source/sgl_core.h ****  * @param obj point to object
1550:../source/sgl_core.h ****  * @return none
1551:../source/sgl_core.h ****  * @note Only move among sibling objects
1552:../source/sgl_core.h ****  */
1553:../source/sgl_core.h **** void sgl_obj_move_up(sgl_obj_t *obj);
1554:../source/sgl_core.h **** 
1555:../source/sgl_core.h **** 
1556:../source/sgl_core.h **** /**
1557:../source/sgl_core.h ****  * @brief move object down a level layout
1558:../source/sgl_core.h ****  * @param obj point to object
1559:../source/sgl_core.h ****  * @return none
1560:../source/sgl_core.h ****  * @note Only move among sibling objects
1561:../source/sgl_core.h ****  */
1562:../source/sgl_core.h **** void sgl_obj_move_down(sgl_obj_t *obj);
1563:../source/sgl_core.h **** 
1564:../source/sgl_core.h **** 
1565:../source/sgl_core.h **** /**
1566:../source/sgl_core.h ****  * @brief move object top level layout
1567:../source/sgl_core.h ****  * @param obj point to object
1568:../source/sgl_core.h ****  * @return none
1569:../source/sgl_core.h ****  * @note Only move among sibling objects
1570:../source/sgl_core.h ****  */
1571:../source/sgl_core.h **** void sgl_obj_move_top(sgl_obj_t *obj);
1572:../source/sgl_core.h **** 
1573:../source/sgl_core.h **** 
1574:../source/sgl_core.h **** /**
1575:../source/sgl_core.h ****  * @brief move object bottom level layout
1576:../source/sgl_core.h ****  * @param obj point to object
1577:../source/sgl_core.h ****  * @return none
1578:../source/sgl_core.h ****  * @note Only move among sibling objects
1579:../source/sgl_core.h ****  */
1580:../source/sgl_core.h **** void sgl_obj_move_bottom(sgl_obj_t *obj);
1581:../source/sgl_core.h **** 
1582:../source/sgl_core.h **** 
1583:../source/sgl_core.h **** /**
1584:../source/sgl_core.h ****  * @brief Set object absolute position
1585:../source/sgl_core.h ****  * @param obj point to object
GAS LISTING C:\Users\lsw\AppData\Local\Temp\ccZtZR5Y.s 			page 31


1586:../source/sgl_core.h ****  * @param abs_x: x absolute position
1587:../source/sgl_core.h ****  * @param abs_y: y absolute position
1588:../source/sgl_core.h ****  * @return none
1589:../source/sgl_core.h ****  */
1590:../source/sgl_core.h **** void sgl_obj_set_abs_pos(sgl_obj_t *obj, int16_t abs_x, int16_t abs_y);
1591:../source/sgl_core.h **** 
1592:../source/sgl_core.h **** 
1593:../source/sgl_core.h **** /**
1594:../source/sgl_core.h ****  * @brief Get object absolute position
1595:../source/sgl_core.h ****  * @param obj point to object
1596:../source/sgl_core.h ****  * @param abs_x: point to x absolute position
1597:../source/sgl_core.h ****  * @param abs_y: point to y absolute position
1598:../source/sgl_core.h ****  * @return none
1599:../source/sgl_core.h ****  */
1600:../source/sgl_core.h **** static inline sgl_pos_t sgl_obj_get_abs_pos(sgl_obj_t *obj)
1601:../source/sgl_core.h **** {
1602:../source/sgl_core.h ****     sgl_pos_t pos = {
1603:../source/sgl_core.h ****         .x = obj->coords.x1,
1604:../source/sgl_core.h ****         .y = obj->coords.y1
1605:../source/sgl_core.h ****     };
1606:../source/sgl_core.h ****     return pos;
1607:../source/sgl_core.h **** }
1608:../source/sgl_core.h **** 
1609:../source/sgl_core.h **** 
1610:../source/sgl_core.h **** /**
1611:../source/sgl_core.h ****  * @brief Set object relative position
1612:../source/sgl_core.h ****  * @param obj point to object
1613:../source/sgl_core.h ****  * @param x: x relative position
1614:../source/sgl_core.h ****  * @param y: y relative position
1615:../source/sgl_core.h ****  * @return none
1616:../source/sgl_core.h ****  * @note This x and y position is relative to the parent object
1617:../source/sgl_core.h ****  */
1618:../source/sgl_core.h **** static inline void sgl_obj_set_pos(sgl_obj_t *obj, int16_t x, int16_t y)
1619:../source/sgl_core.h **** {
1620:../source/sgl_core.h ****     sgl_obj_set_abs_pos(obj, obj->parent->coords.x1 + x, obj->parent->coords.y1 + y);
1621:../source/sgl_core.h **** }
1622:../source/sgl_core.h **** 
1623:../source/sgl_core.h **** 
1624:../source/sgl_core.h **** /**
1625:../source/sgl_core.h ****  * @brief Get object position
1626:../source/sgl_core.h ****  * @param obj point to object
1627:../source/sgl_core.h ****  * @return sgl_pos_t: position of object
1628:../source/sgl_core.h ****  * @note this function will return the top left corner position of the object relative to its paren
1629:../source/sgl_core.h ****  */
1630:../source/sgl_core.h **** static inline sgl_pos_t sgl_obj_get_pos(sgl_obj_t *obj)
1631:../source/sgl_core.h **** {
1632:../source/sgl_core.h ****     SGL_ASSERT(obj != NULL);
1633:../source/sgl_core.h **** 
1634:../source/sgl_core.h ****     sgl_pos_t pos;
1635:../source/sgl_core.h ****     pos.x = obj->coords.x1 - obj->parent->coords.x1;
1636:../source/sgl_core.h ****     pos.y = obj->coords.y1 - obj->parent->coords.y1;
1637:../source/sgl_core.h ****     return pos;
1638:../source/sgl_core.h **** }
1639:../source/sgl_core.h **** 
1640:../source/sgl_core.h **** 
1641:../source/sgl_core.h **** /**
1642:../source/sgl_core.h ****  * @brief Set object x relative position
GAS LISTING C:\Users\lsw\AppData\Local\Temp\ccZtZR5Y.s 			page 32


1643:../source/sgl_core.h ****  * @param obj point to object
1644:../source/sgl_core.h ****  * @param x x position
1645:../source/sgl_core.h ****  * @return none
1646:../source/sgl_core.h ****  * @note this function will set the x position of the object, it's relative to the parent object
1647:../source/sgl_core.h ****  */
1648:../source/sgl_core.h **** static inline void sgl_obj_set_pos_x(sgl_obj_t *obj, int16_t x)
1649:../source/sgl_core.h **** {
1650:../source/sgl_core.h ****     sgl_obj_set_abs_pos(obj, obj->parent->coords.x1 + x, obj->coords.y1);
1651:../source/sgl_core.h **** }
1652:../source/sgl_core.h **** 
1653:../source/sgl_core.h **** 
1654:../source/sgl_core.h **** /**
1655:../source/sgl_core.h ****  * @brief Get object x relative position
1656:../source/sgl_core.h ****  * @param obj point to object
1657:../source/sgl_core.h ****  * @return x position, it's relative to the parent object
1658:../source/sgl_core.h ****  */
1659:../source/sgl_core.h **** static inline size_t sgl_obj_get_pos_x(sgl_obj_t *obj)
1660:../source/sgl_core.h **** {
1661:../source/sgl_core.h ****     return (obj->coords.x1 - obj->parent->coords.x1);
1662:../source/sgl_core.h **** }
1663:../source/sgl_core.h **** 
1664:../source/sgl_core.h **** 
1665:../source/sgl_core.h **** /**
1666:../source/sgl_core.h ****  * @brief Set object y relative position
1667:../source/sgl_core.h ****  * @param obj point to object
1668:../source/sgl_core.h ****  * @param y y position
1669:../source/sgl_core.h ****  * @return none
1670:../source/sgl_core.h ****  * @note this function will set the y position of the object, it's relative to the parent object
1671:../source/sgl_core.h ****  */
1672:../source/sgl_core.h **** static inline void sgl_obj_set_pos_y(sgl_obj_t *obj, int16_t y)
1673:../source/sgl_core.h **** {
1674:../source/sgl_core.h ****     sgl_obj_set_abs_pos(obj, obj->coords.x1, obj->parent->coords.y1 + y);
1675:../source/sgl_core.h **** }
1676:../source/sgl_core.h **** 
1677:../source/sgl_core.h **** 
1678:../source/sgl_core.h **** /**
1679:../source/sgl_core.h ****  * @brief Get object y relative position
1680:../source/sgl_core.h ****  * @param obj point to object
1681:../source/sgl_core.h ****  * @return y position, it's relative to the parent object
1682:../source/sgl_core.h ****  */
1683:../source/sgl_core.h **** static inline int16_t sgl_obj_get_pos_y(sgl_obj_t *obj)
1684:../source/sgl_core.h **** {
1685:../source/sgl_core.h ****     return obj->coords.y1 - obj->parent->coords.y1;
1686:../source/sgl_core.h **** }
1687:../source/sgl_core.h **** 
1688:../source/sgl_core.h **** 
1689:../source/sgl_core.h **** /**
1690:../source/sgl_core.h ****  * @brief Set the alignment position of the object relative to its parent object.
1691:../source/sgl_core.h ****  * @param obj The object to set the alignment position.
1692:../source/sgl_core.h ****  * @param type The alignment type.
1693:../source/sgl_core.h ****  * @return none
1694:../source/sgl_core.h ****  * @note type should be one of the sgl_align_type_t values:
1695:../source/sgl_core.h ****  *       - SGL_ALIGN_CENTER     : Center the object in the parent object.
1696:../source/sgl_core.h ****  *       - SGL_ALIGN_TOP_MID    : Align the object at the top middle of the parent object.
1697:../source/sgl_core.h ****  *       - SGL_ALIGN_TOP_LEFT   : Align the object at the top left of the parent object.
1698:../source/sgl_core.h ****  *       - SGL_ALIGN_TOP_RIGHT  : Align the object at the top right of the parent object.
1699:../source/sgl_core.h ****  *       - SGL_ALIGN_BOT_MID    : Align the object at the bottom middle of the parent object.
GAS LISTING C:\Users\lsw\AppData\Local\Temp\ccZtZR5Y.s 			page 33


1700:../source/sgl_core.h ****  *       - SGL_ALIGN_BOT_LEFT   : Align the object at the bottom left of the parent object.
1701:../source/sgl_core.h ****  *       - SGL_ALIGN_BOT_RIGHT  : Align the object at the bottom right of the parent object.
1702:../source/sgl_core.h ****  *       - SGL_ALIGN_LEFT_MID   : Align the object at the left middle of the parent object.
1703:../source/sgl_core.h ****  *       - SGL_ALIGN_RIGHT_MID  : Align the object at the right middle of the parent object.
1704:../source/sgl_core.h ****  */
1705:../source/sgl_core.h **** void sgl_obj_set_pos_align(sgl_obj_t *obj, sgl_align_type_t type);
1706:../source/sgl_core.h **** 
1707:../source/sgl_core.h **** 
1708:../source/sgl_core.h **** /**
1709:../source/sgl_core.h ****  * @brief Set the alignment position of the object relative to its sibling object.
1710:../source/sgl_core.h ****  * @param ref The reference object, it should be the sibling object.
1711:../source/sgl_core.h ****  * @param obj The object to set the alignment position.
1712:../source/sgl_core.h ****  * @param type The alignment type.
1713:../source/sgl_core.h ****  * @return none
1714:../source/sgl_core.h ****  * @note type should be one of the sgl_align_type_t values:
1715:../source/sgl_core.h ****  *       - SGL_ALIGN_VERT_LEFT  : Align the object at the left side of the reference object.
1716:../source/sgl_core.h ****  *       - SGL_ALIGN_VERT_RIGHT : Align the object at the right side of the reference object.
1717:../source/sgl_core.h ****  *       - SGL_ALIGN_VERT_MID   : Align the object at the middle of the reference object.
1718:../source/sgl_core.h ****  *       - SGL_ALIGN_HORIZ_TOP  : Align the object at the top side of the reference object.
1719:../source/sgl_core.h ****  *       - SGL_ALIGN_HORIZ_BOT  : Align the object at the bottom side of the reference object.
1720:../source/sgl_core.h ****  *       - SGL_ALIGN_HORIZ_MID  : Align the object at the middle of the reference object.
1721:../source/sgl_core.h ****  */
1722:../source/sgl_core.h **** void sgl_obj_set_pos_align_ref(sgl_obj_t *ref, sgl_obj_t *obj, sgl_align_type_t type);
1723:../source/sgl_core.h **** 
1724:../source/sgl_core.h **** 
1725:../source/sgl_core.h **** /**
1726:../source/sgl_core.h ****  * @brief Set object size
1727:../source/sgl_core.h ****  * @param obj point to object
1728:../source/sgl_core.h ****  * @param width: width that you want to set
1729:../source/sgl_core.h ****  * @param height: height that you want to set
1730:../source/sgl_core.h ****  * @return none
1731:../source/sgl_core.h ****  */
1732:../source/sgl_core.h **** static inline void sgl_obj_set_size(sgl_obj_t *obj, int16_t width, int16_t height)
1733:../source/sgl_core.h **** {
1734:../source/sgl_core.h ****     SGL_ASSERT(obj != NULL);
1735:../source/sgl_core.h ****     obj->coords.x2 = obj->coords.x1 + width - 1;
1736:../source/sgl_core.h ****     obj->coords.y2 = obj->coords.y1 + height - 1;
1737:../source/sgl_core.h ****     sgl_obj_set_dirty(obj);
1738:../source/sgl_core.h **** }
1739:../source/sgl_core.h **** 
1740:../source/sgl_core.h **** 
1741:../source/sgl_core.h **** /**
1742:../source/sgl_core.h ****  * @brief Get object size
1743:../source/sgl_core.h ****  * @param obj point to object
1744:../source/sgl_core.h ****  * @return sgl_size_t: size of object
1745:../source/sgl_core.h ****  */
1746:../source/sgl_core.h **** static inline sgl_size_t sgl_obj_get_size(sgl_obj_t *obj)
1747:../source/sgl_core.h **** {
1748:../source/sgl_core.h ****     SGL_ASSERT(obj != NULL);
1749:../source/sgl_core.h ****     sgl_size_t size;
1750:../source/sgl_core.h ****     size.w = obj->coords.x2 - obj->coords.x1 + 1;
1751:../source/sgl_core.h ****     size.h = obj->coords.y2 - obj->coords.y1 + 1;
1752:../source/sgl_core.h ****     return size;
1753:../source/sgl_core.h **** }
1754:../source/sgl_core.h **** 
1755:../source/sgl_core.h **** 
1756:../source/sgl_core.h **** /**
GAS LISTING C:\Users\lsw\AppData\Local\Temp\ccZtZR5Y.s 			page 34


1757:../source/sgl_core.h ****  * @brief Set object width
1758:../source/sgl_core.h ****  * @param obj point to object
1759:../source/sgl_core.h ****  * @param width: width that you want to set
1760:../source/sgl_core.h ****  * @return none
1761:../source/sgl_core.h ****  */
1762:../source/sgl_core.h **** static inline void sgl_obj_set_width(sgl_obj_t *obj, int16_t width)
1763:../source/sgl_core.h **** {
1764:../source/sgl_core.h ****     SGL_ASSERT(obj != NULL);
1765:../source/sgl_core.h ****     obj->coords.x2 = obj->coords.x1 + width - 1;
1766:../source/sgl_core.h **** }
1767:../source/sgl_core.h **** 
1768:../source/sgl_core.h **** 
1769:../source/sgl_core.h **** /**
1770:../source/sgl_core.h ****  * @brief Get object width
1771:../source/sgl_core.h ****  * @param obj point to object
1772:../source/sgl_core.h ****  * @return object width
1773:../source/sgl_core.h ****  */
1774:../source/sgl_core.h **** static inline int16_t sgl_obj_get_width(sgl_obj_t *obj)
1775:../source/sgl_core.h **** {
1776:../source/sgl_core.h ****     SGL_ASSERT(obj != NULL);
1777:../source/sgl_core.h ****     return obj->coords.x2 - obj->coords.x1 + 1;
1778:../source/sgl_core.h **** }
1779:../source/sgl_core.h **** 
1780:../source/sgl_core.h **** 
1781:../source/sgl_core.h **** /**
1782:../source/sgl_core.h ****  * @brief Set object height
1783:../source/sgl_core.h ****  * @param obj point to object
1784:../source/sgl_core.h ****  * @param height: height that you want to set
1785:../source/sgl_core.h ****  * @return none
1786:../source/sgl_core.h ****  */
1787:../source/sgl_core.h **** static inline void sgl_obj_set_height(sgl_obj_t *obj, int16_t height)
1788:../source/sgl_core.h **** {
1789:../source/sgl_core.h ****     SGL_ASSERT(obj != NULL);
1790:../source/sgl_core.h ****     obj->coords.y2 = obj->coords.y1 + height - 1;
1791:../source/sgl_core.h **** }
1792:../source/sgl_core.h **** 
1793:../source/sgl_core.h **** 
1794:../source/sgl_core.h **** /**
1795:../source/sgl_core.h ****  * @brief Get object height
1796:../source/sgl_core.h ****  * @param obj point to object
1797:../source/sgl_core.h ****  * @return object height
1798:../source/sgl_core.h ****  */
1799:../source/sgl_core.h **** static inline int16_t sgl_obj_get_height(sgl_obj_t *obj)
1800:../source/sgl_core.h **** {
1801:../source/sgl_core.h ****     SGL_ASSERT(obj != NULL);
1802:../source/sgl_core.h ****     return obj->coords.y2 - obj->coords.y1 + 1;
1803:../source/sgl_core.h **** }
1804:../source/sgl_core.h **** 
1805:../source/sgl_core.h **** 
1806:../source/sgl_core.h **** /**
1807:../source/sgl_core.h ****  * @brief Set object border width
1808:../source/sgl_core.h ****  * @param obj point to object
1809:../source/sgl_core.h ****  * @param border: border width that you want to set
1810:../source/sgl_core.h ****  * @return none
1811:../source/sgl_core.h ****  */
1812:../source/sgl_core.h **** static inline void sgl_obj_set_border_width(sgl_obj_t *obj, uint8_t border)
1813:../source/sgl_core.h **** {
GAS LISTING C:\Users\lsw\AppData\Local\Temp\ccZtZR5Y.s 			page 35


1814:../source/sgl_core.h ****     SGL_ASSERT(obj != NULL);
1815:../source/sgl_core.h ****     obj->border = sgl_min3(border, sgl_obj_get_width(obj) / 2, sgl_obj_get_height(obj) / 2);
1816:../source/sgl_core.h **** }
1817:../source/sgl_core.h **** 
1818:../source/sgl_core.h **** 
1819:../source/sgl_core.h **** /**
1820:../source/sgl_core.h ****  * @brief Get object border width
1821:../source/sgl_core.h ****  * @param obj point to object
1822:../source/sgl_core.h ****  * @return object border width
1823:../source/sgl_core.h ****  */
1824:../source/sgl_core.h **** static inline int16_t sgl_obj_get_border_width(sgl_obj_t *obj)
1825:../source/sgl_core.h **** {
1826:../source/sgl_core.h ****     SGL_ASSERT(obj != NULL);
1827:../source/sgl_core.h ****     return obj->border;
1828:../source/sgl_core.h **** }
1829:../source/sgl_core.h **** 
1830:../source/sgl_core.h **** 
1831:../source/sgl_core.h **** /**
1832:../source/sgl_core.h ****  * @brief set the radius of object
1833:../source/sgl_core.h ****  * @param obj object
1834:../source/sgl_core.h ****  * @param radius: radius that you want to set
1835:../source/sgl_core.h ****  * @return none
1836:../source/sgl_core.h ****  * @note if radius is larger than object's width or height, fix radius will be returned
1837:../source/sgl_core.h ****  */
1838:../source/sgl_core.h **** void sgl_obj_set_radius(sgl_obj_t *obj, size_t radius);
1839:../source/sgl_core.h **** 
1840:../source/sgl_core.h **** 
1841:../source/sgl_core.h **** /**
1842:../source/sgl_core.h ****  * @brief get the radius of object
1843:../source/sgl_core.h ****  * @param obj object
1844:../source/sgl_core.h ****  * @return object radius
1845:../source/sgl_core.h ****  */
1846:../source/sgl_core.h **** static inline int16_t sgl_obj_get_radius(sgl_obj_t *obj)
1847:../source/sgl_core.h **** {
1848:../source/sgl_core.h ****     SGL_ASSERT(obj != NULL);
1849:../source/sgl_core.h ****     return obj->radius;
1850:../source/sgl_core.h **** }
1851:../source/sgl_core.h **** 
1852:../source/sgl_core.h **** 
1853:../source/sgl_core.h **** /**
1854:../source/sgl_core.h ****  * @brief set current object as screen object
1855:../source/sgl_core.h ****  * @param obj object, that you want to set an object as active page
1856:../source/sgl_core.h ****  * @return none
1857:../source/sgl_core.h ****  */
1858:../source/sgl_core.h **** void sgl_screen_load(sgl_obj_t *obj);
1859:../source/sgl_core.h **** 
1860:../source/sgl_core.h **** 
1861:../source/sgl_core.h **** /**
1862:../source/sgl_core.h ****  * @brief get current screen object
1863:../source/sgl_core.h ****  * @param none
1864:../source/sgl_core.h ****  * @return active current screen object
1865:../source/sgl_core.h ****  */
1866:../source/sgl_core.h **** static inline sgl_obj_t* sgl_screen_act(void)
  67              		.loc 2 1866 26 view .LVU13
  68              	.LBB47:
1867:../source/sgl_core.h **** {
1868:../source/sgl_core.h ****     return sgl_system.fbdev.active;
GAS LISTING C:\Users\lsw\AppData\Local\Temp\ccZtZR5Y.s 			page 36


  69              		.loc 2 1868 5 view .LVU14
  70              		.loc 2 1868 28 is_stmt 0 view .LVU15
  71 0019 488B3D00 		movq	.refptr.sgl_system(%rip), %rdi
  71      000000
  72              	.LBE47:
  73              	.LBE46:
  74              		.loc 1 50 5 discriminator 1 view .LVU16
  75 0020 31D2     		xorl	%edx, %edx
  76 0022 488B4F58 		movq	88(%rdi), %rcx
  77 0026 E8000000 		call	sgl_page_set_color
  77      00
  78              	.LVL4:
  51:main.c        **** 
  52:main.c        ****     sgl_obj_t *rect = sgl_rect_create(NULL);
  79              		.loc 1 52 5 is_stmt 1 view .LVU17
  80              		.loc 1 52 23 is_stmt 0 view .LVU18
  81 002b 31C9     		xorl	%ecx, %ecx
  82 002d E8000000 		call	sgl_rect_create
  82      00
  83              	.LVL5:
  84              	.LBB48:
  85              	.LBB49:
1734:../source/sgl_core.h ****     obj->coords.x2 = obj->coords.x1 + width - 1;
  86              		.loc 2 1734 5 view .LVU19
  87 0032 4885C0   		testq	%rax, %rax
  88              	.LBE49:
  89              	.LBE48:
  90              		.loc 1 52 23 view .LVU20
  91 0035 4889C3   		movq	%rax, %rbx
  92              	.LVL6:
  53:main.c        ****     sgl_obj_set_size(rect, 132, 180);
  93              		.loc 1 53 5 is_stmt 1 view .LVU21
  94              	.LBB58:
  95              	.LBI48:
1732:../source/sgl_core.h **** {
  96              		.loc 2 1732 20 view .LVU22
  97              	.LBB54:
1734:../source/sgl_core.h ****     obj->coords.x2 = obj->coords.x1 + width - 1;
  98              		.loc 2 1734 5 view .LVU23
1734:../source/sgl_core.h ****     obj->coords.x2 = obj->coords.x1 + width - 1;
  99              		.loc 2 1734 5 view .LVU24
 100 0038 0F84A200 		je	.L9
 100      0000
 101              	.LVL7:
 102              	.L3:
1734:../source/sgl_core.h ****     obj->coords.x2 = obj->coords.x1 + width - 1;
 103              		.loc 2 1734 5 discriminator 3 view .LVU25
1735:../source/sgl_core.h ****     obj->coords.y2 = obj->coords.y1 + height - 1;
 104              		.loc 2 1735 5 view .LVU26
1736:../source/sgl_core.h ****     sgl_obj_set_dirty(obj);
 105              		.loc 2 1736 5 view .LVU27
1735:../source/sgl_core.h ****     obj->coords.y2 = obj->coords.y1 + height - 1;
 106              		.loc 2 1735 45 is_stmt 0 view .LVU28
 107 003e 660F6E03 		movd	(%rbx), %xmm0
 108 0042 488D6C24 		leaq	32(%rsp), %rbp
 108      20
 109              	.LBE54:
GAS LISTING C:\Users\lsw\AppData\Local\Temp\ccZtZR5Y.s 			page 37


 110              	.LBE58:
 111              	.LBB59:
 112              	.LBB60:
1620:../source/sgl_core.h **** }
 113              		.loc 2 1620 5 view .LVU29
 114 0047 4889D9   		movq	%rbx, %rcx
 115              	.LBE60:
 116              	.LBE59:
 117              	.LBB63:
 118              	.LBB55:
1735:../source/sgl_core.h ****     obj->coords.y2 = obj->coords.y1 + height - 1;
 119              		.loc 2 1735 45 view .LVU30
 120 004a 660F6E0D 		movd	.LC2(%rip), %xmm1
 120      18000000 
 121              	.LBE55:
 122              	.LBE63:
 123              	.LBB64:
 124              	.LBB61:
1620:../source/sgl_core.h **** }
 125              		.loc 2 1620 61 view .LVU31
 126 0052 488B4310 		movq	16(%rbx), %rax
 127              	.LBE61:
 128              	.LBE64:
 129              	.LBB65:
 130              	.LBB56:
 131              	.LBB50:
 132              	.LBB51:
1390:../source/sgl_core.h **** }
 133              		.loc 2 1390 16 view .LVU32
 134 0056 804B2802 		orb	$2, 40(%rbx)
 135              	.LBE51:
 136              	.LBE50:
1735:../source/sgl_core.h ****     obj->coords.y2 = obj->coords.y1 + height - 1;
 137              		.loc 2 1735 45 view .LVU33
 138 005a 660FFDC1 		paddw	%xmm1, %xmm0
1735:../source/sgl_core.h ****     obj->coords.y2 = obj->coords.y1 + height - 1;
 139              		.loc 2 1735 20 view .LVU34
 140 005e 660F7E43 		movd	%xmm0, 4(%rbx)
 140      04
1737:../source/sgl_core.h **** }
 141              		.loc 2 1737 5 is_stmt 1 view .LVU35
 142              	.LVL8:
 143              	.LBB53:
 144              	.LBI50:
1387:../source/sgl_core.h **** {
 145              		.loc 2 1387 20 view .LVU36
 146              	.LBB52:
1389:../source/sgl_core.h ****     obj->dirty = 1;
 147              		.loc 2 1389 5 view .LVU37
1389:../source/sgl_core.h ****     obj->dirty = 1;
 148              		.loc 2 1389 5 view .LVU38
1389:../source/sgl_core.h ****     obj->dirty = 1;
 149              		.loc 2 1389 5 discriminator 3 view .LVU39
1390:../source/sgl_core.h **** }
 150              		.loc 2 1390 5 view .LVU40
1390:../source/sgl_core.h **** }
 151              		.loc 2 1390 5 is_stmt 0 view .LVU41
GAS LISTING C:\Users\lsw\AppData\Local\Temp\ccZtZR5Y.s 			page 38


 152              	.LBE52:
 153              	.LBE53:
 154              	.LBE56:
 155              	.LBE65:
  54:main.c        ****     sgl_obj_set_pos(rect, 53, 120);
 156              		.loc 1 54 5 is_stmt 1 view .LVU42
 157              	.LBB66:
 158              	.LBI59:
1618:../source/sgl_core.h **** {
 159              		.loc 2 1618 20 view .LVU43
 160              	.LBB62:
1620:../source/sgl_core.h **** }
 161              		.loc 2 1620 5 view .LVU44
1620:../source/sgl_core.h **** }
 162              		.loc 2 1620 81 is_stmt 0 view .LVU45
 163 0063 0FB75002 		movzwl	2(%rax), %edx
 164 0067 448D4278 		leal	120(%rdx), %r8d
1620:../source/sgl_core.h **** }
 165              		.loc 2 1620 53 view .LVU46
 166 006b 0FB710   		movzwl	(%rax), %edx
1620:../source/sgl_core.h **** }
 167              		.loc 2 1620 5 view .LVU47
 168 006e 450FBFC0 		movswl	%r8w, %r8d
1620:../source/sgl_core.h **** }
 169              		.loc 2 1620 53 view .LVU48
 170 0072 83C235   		addl	$53, %edx
1620:../source/sgl_core.h **** }
 171              		.loc 2 1620 5 view .LVU49
 172 0075 0FBFD2   		movswl	%dx, %edx
 173 0078 E8000000 		call	sgl_obj_set_abs_pos
 173      00
 174              	.LVL9:
1620:../source/sgl_core.h **** }
 175              		.loc 2 1620 5 view .LVU50
 176              	.LBE62:
 177              	.LBE66:
  55:main.c        ****     sgl_rect_set_color(rect, SGL_COLOR_BLACK);
 178              		.loc 1 55 5 is_stmt 1 view .LVU51
 179              	.LBB67:
 180              	.LBI67:
 181              		.file 3 "../source/sgl_widget.h"
   1:../source/sgl_widget.h **** /* source: sgl_widget.h
   2:../source/sgl_widget.h ****  * Copyright (c) 2026-2028, Lishanwen
   3:../source/sgl_widget.h ****  *
   4:../source/sgl_widget.h ****  * Licensed under the Apache License, Version 2.0 (the "License");
   5:../source/sgl_widget.h ****  * you may not use this file except in compliance with the License.
   6:../source/sgl_widget.h ****  * You may obtain a copy of the License at
   7:../source/sgl_widget.h ****  *
   8:../source/sgl_widget.h ****  *     http://www.apache.org/licenses/LICENSE-2.0
   9:../source/sgl_widget.h ****  *
  10:../source/sgl_widget.h ****  * Unless required by applicable law or agreed to in writing, software
  11:../source/sgl_widget.h ****  * distributed under the License is distributed on an "AS IS" BASIS,
  12:../source/sgl_widget.h ****  * WITHOUT WARRANTIES OR CONDITIONS OF ANY KIND, either express or implied.
  13:../source/sgl_widget.h ****  * See the License for the specific language governing permissions and
  14:../source/sgl_widget.h ****  * limitations under the License.
  15:../source/sgl_widget.h ****  */
  16:../source/sgl_widget.h **** 
GAS LISTING C:\Users\lsw\AppData\Local\Temp\ccZtZR5Y.s 			page 39


  17:../source/sgl_widget.h **** #include "sgl_core.h"
  18:../source/sgl_widget.h **** #include "sgl_draw.h"
  19:../source/sgl_widget.h **** 
  20:../source/sgl_widget.h **** 
  21:../source/sgl_widget.h **** #define SGL_THEME_DESKTOP                    sgl_rgb(255, 255, 255)
  22:../source/sgl_widget.h **** #define SGL_THEME_COLOR                      sgl_rgb(255, 255, 255)
  23:../source/sgl_widget.h **** #define SGL_THEME_BG_COLOR                   sgl_rgb(0, 0, 0)
  24:../source/sgl_widget.h **** #define SGL_THEME_BORDER_WIDTH               2
  25:../source/sgl_widget.h **** #define SGL_THEME_BORDER_COLOR               sgl_rgb(0, 0, 0)
  26:../source/sgl_widget.h **** #define SGL_THEME_ALPHA                      255
  27:../source/sgl_widget.h **** #define SGL_THEME_TEXT_COLOR                 sgl_rgb(0, 0, 0)
  28:../source/sgl_widget.h **** #define SGL_THEME_RADIUS                     0
  29:../source/sgl_widget.h **** #define SGL_THEME_SCROLL_RADIUS              3
  30:../source/sgl_widget.h **** #define SGL_THEME_SCROLL_BG_COLOR            sgl_rgb(100, 100, 100)
  31:../source/sgl_widget.h **** #define SGL_THEME_SCROLL_FG_COLOR            sgl_rgb(200, 200, 200)
  32:../source/sgl_widget.h **** 
  33:../source/sgl_widget.h **** 
  34:../source/sgl_widget.h **** /**
  35:../source/sgl_widget.h ****  * @brief sgl rectangle
  36:../source/sgl_widget.h ****  * @obj: sgl general object
  37:../source/sgl_widget.h ****  * @desc: rectangle draw description
  38:../source/sgl_widget.h ****  */
  39:../source/sgl_widget.h **** typedef struct sgl_rectangle {  
  40:../source/sgl_widget.h ****     sgl_obj_t       obj;
  41:../source/sgl_widget.h ****     sgl_draw_rect_t desc;
  42:../source/sgl_widget.h **** }sgl_rectangle_t;
  43:../source/sgl_widget.h **** 
  44:../source/sgl_widget.h **** 
  45:../source/sgl_widget.h **** /**
  46:../source/sgl_widget.h ****  * @brief  create a rectangle
  47:../source/sgl_widget.h ****  * @param  parent: parent object
  48:../source/sgl_widget.h ****  * @retval rectangle object
  49:../source/sgl_widget.h ****  */
  50:../source/sgl_widget.h **** sgl_obj_t* sgl_rect_create(sgl_obj_t* parent);
  51:../source/sgl_widget.h **** 
  52:../source/sgl_widget.h **** 
  53:../source/sgl_widget.h **** /**
  54:../source/sgl_widget.h ****  * @brief  set rectangle color
  55:../source/sgl_widget.h ****  * @param  obj: rectangle object
  56:../source/sgl_widget.h ****  * @param  color: rectangle color
  57:../source/sgl_widget.h ****  * @retval none
  58:../source/sgl_widget.h ****  */
  59:../source/sgl_widget.h **** static inline void sgl_rect_set_color(sgl_obj_t *obj, sgl_color_t color)
 182              		.loc 3 59 20 view .LVU52
 183              	.LBB68:
  60:../source/sgl_widget.h **** {
  61:../source/sgl_widget.h ****     sgl_rectangle_t *rect = (sgl_rectangle_t *)obj;
 184              		.loc 3 61 5 view .LVU53
  62:../source/sgl_widget.h ****     rect->desc.color = color;
 185              		.loc 3 62 5 view .LVU54
  63:../source/sgl_widget.h ****     sgl_obj_set_dirty(obj);
 186              		.loc 3 63 5 view .LVU55
 187              		.loc 3 63 5 is_stmt 0 view .LVU56
 188              	.LBE68:
 189              	.LBE67:
  56:main.c        ****     sgl_rect_set_border_width(rect, 3);
 190              		.loc 1 56 5 is_stmt 1 view .LVU57
GAS LISTING C:\Users\lsw\AppData\Local\Temp\ccZtZR5Y.s 			page 40


 191              	.LBB70:
 192              	.LBI70:
  64:../source/sgl_widget.h **** }
  65:../source/sgl_widget.h **** 
  66:../source/sgl_widget.h **** /**
  67:../source/sgl_widget.h ****  * @brief  set rectangle alpha
  68:../source/sgl_widget.h ****  * @param  obj: rectangle object
  69:../source/sgl_widget.h ****  * @param  alpha: rectangle alpha
  70:../source/sgl_widget.h ****  * @retval none
  71:../source/sgl_widget.h ****  */
  72:../source/sgl_widget.h **** static inline void sgl_rect_set_alpha(sgl_obj_t *obj, uint8_t alpha)
  73:../source/sgl_widget.h **** {
  74:../source/sgl_widget.h ****     sgl_rectangle_t *rect = (sgl_rectangle_t *)obj;
  75:../source/sgl_widget.h ****     rect->desc.alpha = alpha;
  76:../source/sgl_widget.h ****     sgl_obj_set_dirty(obj);
  77:../source/sgl_widget.h **** }
  78:../source/sgl_widget.h **** 
  79:../source/sgl_widget.h **** 
  80:../source/sgl_widget.h **** /**
  81:../source/sgl_widget.h ****  * @brief  set rectangle radius
  82:../source/sgl_widget.h ****  * @param  obj: rectangle object
  83:../source/sgl_widget.h ****  * @param  radius: rectangle radius
  84:../source/sgl_widget.h ****  * @retval none
  85:../source/sgl_widget.h ****  */
  86:../source/sgl_widget.h **** static inline void sgl_rect_set_radius(sgl_obj_t *obj, uint8_t radius)
  87:../source/sgl_widget.h **** {
  88:../source/sgl_widget.h ****     sgl_rectangle_t *rect = (sgl_rectangle_t *)obj;
  89:../source/sgl_widget.h ****     rect->desc.radius = radius;
  90:../source/sgl_widget.h ****     sgl_obj_set_dirty(obj);
  91:../source/sgl_widget.h **** }
  92:../source/sgl_widget.h **** 
  93:../source/sgl_widget.h **** /**
  94:../source/sgl_widget.h ****  * @brief  set rectangle border width
  95:../source/sgl_widget.h ****  * @param  obj: rectangle object
  96:../source/sgl_widget.h ****  * @param  width: rectangle border width
  97:../source/sgl_widget.h ****  * @retval none
  98:../source/sgl_widget.h ****  */
  99:../source/sgl_widget.h **** static inline void sgl_rect_set_border_width(sgl_obj_t *obj, uint8_t width)
 193              		.loc 3 99 20 view .LVU58
 194              	.LBB71:
 100:../source/sgl_widget.h **** {
 101:../source/sgl_widget.h ****     sgl_rectangle_t *rect = (sgl_rectangle_t *)obj;
 195              		.loc 3 101 5 view .LVU59
 102:../source/sgl_widget.h ****     rect->desc.border = width;
 196              		.loc 3 102 5 view .LVU60
 197              	.LBE71:
 198              	.LBE70:
  57:main.c        ****     sgl_rect_set_border_color(rect, SGL_COLOR_WHITE);
 199              		.loc 1 57 37 is_stmt 0 view .LVU61
 200 007d 0FB70500 		movzwl	.LC0(%rip), %eax
 200      000000
 201              	.LBB73:
 202              	.LBB72:
 203              		.loc 3 102 23 view .LVU62
 204 0084 C6433503 		movb	$3, 53(%rbx)
 103:../source/sgl_widget.h ****     sgl_obj_set_dirty(obj);
 205              		.loc 3 103 5 is_stmt 1 view .LVU63
GAS LISTING C:\Users\lsw\AppData\Local\Temp\ccZtZR5Y.s 			page 41


 206              	.LVL10:
 207              		.loc 3 103 5 is_stmt 0 view .LVU64
 208              	.LBE72:
 209              	.LBE73:
 210              		.loc 1 57 5 is_stmt 1 view .LVU65
 211              	.LBB74:
 212              	.LBI74:
 104:../source/sgl_widget.h **** }
 105:../source/sgl_widget.h **** 
 106:../source/sgl_widget.h **** /**
 107:../source/sgl_widget.h ****  * @brief  set rectangle border color
 108:../source/sgl_widget.h ****  * @param  obj: rectangle object
 109:../source/sgl_widget.h ****  * @param  color: rectangle border color
 110:../source/sgl_widget.h ****  * @retval none
 111:../source/sgl_widget.h ****  */
 112:../source/sgl_widget.h **** static inline void sgl_rect_set_border_color(sgl_obj_t *obj, sgl_color_t color)
 213              		.loc 3 112 20 view .LVU66
 214              	.LBB75:
 113:../source/sgl_widget.h **** {
 114:../source/sgl_widget.h ****     sgl_rectangle_t *rect = (sgl_rectangle_t *)obj;
 215              		.loc 3 114 5 view .LVU67
 115:../source/sgl_widget.h ****     rect->desc.border_color = color;
 216              		.loc 3 115 5 view .LVU68
 217              	.LBE75:
 218              	.LBE74:
 219              	.LBB77:
 220              	.LBB78:
 221              	.LBB79:
 222              	.LBB80:
1390:../source/sgl_core.h **** }
 223              		.loc 2 1390 16 is_stmt 0 view .LVU69
 224 0088 804B2802 		orb	$2, 40(%rbx)
 225              	.LBE80:
 226              	.LBE79:
 227              	.LBE78:
 228              	.LBE77:
 229              	.LBB84:
 230              	.LBB69:
  62:../source/sgl_widget.h ****     sgl_obj_set_dirty(obj);
 231              		.loc 3 62 22 view .LVU70
 232 008c C7433000 		movl	$1310720, 48(%rbx)
 232      001400
 233              	.LBE69:
 234              	.LBE84:
 235              	.LBB85:
 236              	.LBB76:
 237              		.loc 3 115 29 view .LVU71
 238 0093 66894336 		movw	%ax, 54(%rbx)
 116:../source/sgl_widget.h ****     sgl_obj_set_dirty(obj);
 239              		.loc 3 116 5 is_stmt 1 view .LVU72
 240              	.LVL11:
 241              		.loc 3 116 5 is_stmt 0 view .LVU73
 242              	.LBE76:
 243              	.LBE85:
  58:main.c        ****     sgl_rect_set_radius(rect, 20);
 244              		.loc 1 58 5 is_stmt 1 view .LVU74
 245              	.LBB86:
GAS LISTING C:\Users\lsw\AppData\Local\Temp\ccZtZR5Y.s 			page 42


 246              	.LBI77:
  86:../source/sgl_widget.h **** {
 247              		.loc 3 86 20 view .LVU75
 248              	.LBB83:
  88:../source/sgl_widget.h ****     rect->desc.radius = radius;
 249              		.loc 3 88 5 view .LVU76
  89:../source/sgl_widget.h ****     sgl_obj_set_dirty(obj);
 250              		.loc 3 89 5 view .LVU77
  90:../source/sgl_widget.h **** }
 251              		.loc 3 90 5 view .LVU78
 252              	.LBB82:
 253              	.LBI79:
1387:../source/sgl_core.h **** {
 254              		.loc 2 1387 20 view .LVU79
 255              	.LBB81:
1389:../source/sgl_core.h ****     obj->dirty = 1;
 256              		.loc 2 1389 5 view .LVU80
1389:../source/sgl_core.h ****     obj->dirty = 1;
 257              		.loc 2 1389 5 view .LVU81
1389:../source/sgl_core.h ****     obj->dirty = 1;
 258              		.loc 2 1389 5 discriminator 3 view .LVU82
1390:../source/sgl_core.h **** }
 259              		.loc 2 1390 5 view .LVU83
1390:../source/sgl_core.h **** }
 260              		.loc 2 1390 5 is_stmt 0 view .LVU84
 261              	.LBE81:
 262              	.LBE82:
 263              	.LBE83:
 264              	.LBE86:
  59:main.c        **** 
  60:main.c        ****     // sgl_obj_t *label = sgl_label_create(NULL);
  61:main.c        ****     // sgl_obj_set_pos(label, 40, 70);
  62:main.c        ****     // sgl_obj_set_size(label, 100, 50);
  63:main.c        ****     // sgl_label_set_font(label, &consolas24);
  64:main.c        ****     // sgl_label_set_text(label, "Hello World!");
  65:main.c        **** 
  66:main.c        ****     /* 主循环 */
  67:main.c        ****     while (!quit) {
 265              		.loc 1 67 5 is_stmt 1 view .LVU85
 266              		.loc 1 67 12 view .LVU86
 267 0097 660F1F84 		.p2align 4,,10
 267      00000000 
 267      00
 268              		.p2align 3
 269              	.L5:
  68:main.c        ****         SDL_PollEvent(&MouseEvent);
 270              		.loc 1 68 9 view .LVU87
 271 00a0 4889E9   		movq	%rbp, %rcx
 272 00a3 E8000000 		call	SDL_PollEvent
 272      00
 273              	.LVL12:
  69:main.c        ****         switch (MouseEvent.type) {
 274              		.loc 1 69 9 view .LVU88
 275              	.LBB87:
 276              	.LBB88:
 277              	.LBB89:
 278              	.LBB90:
GAS LISTING C:\Users\lsw\AppData\Local\Temp\ccZtZR5Y.s 			page 43


1157:../source/sgl_core.h **** }
 279              		.loc 2 1157 22 is_stmt 0 view .LVU89
 280 00a8 8B4760   		movl	96(%rdi), %eax
 281              	.LBE90:
 282              	.LBE89:
 283              	.LBE88:
 284              	.LBE87:
 285              		.loc 1 69 27 view .LVU90
 286 00ab 8B5C2420 		movl	32(%rsp), %ebx
 287              	.LVL13:
  70:main.c        ****         case SDL_QUIT:
  71:main.c        ****             quit = 1;
  72:main.c        ****             break;
  73:main.c        ****         }
  74:main.c        **** 
  75:main.c        ****         sgl_task_handle();
 288              		.loc 1 75 9 is_stmt 1 view .LVU91
 289              	.LBB94:
 290              	.LBI87:
1869:../source/sgl_core.h **** }
1870:../source/sgl_core.h **** 
1871:../source/sgl_core.h **** 
1872:../source/sgl_core.h **** /**
1873:../source/sgl_core.h ****  * @brief get active page
1874:../source/sgl_core.h ****  * @param none
1875:../source/sgl_core.h ****  * @return page: active page
1876:../source/sgl_core.h ****  */
1877:../source/sgl_core.h **** static inline sgl_page_t* sgl_page_get_active(void)
1878:../source/sgl_core.h **** {
1879:../source/sgl_core.h ****     return (sgl_page_t*)sgl_system.fbdev.active;
1880:../source/sgl_core.h **** }
1881:../source/sgl_core.h **** 
1882:../source/sgl_core.h **** 
1883:../source/sgl_core.h **** /**
1884:../source/sgl_core.h ****  * @brief sgl task handle function with sync mode
1885:../source/sgl_core.h ****  * @param none
1886:../source/sgl_core.h ****  * @return none
1887:../source/sgl_core.h ****  * @note you can call this function to force update screen
1888:../source/sgl_core.h ****  */
1889:../source/sgl_core.h **** void sgl_task_handle_sync(void);
1890:../source/sgl_core.h **** 
1891:../source/sgl_core.h **** 
1892:../source/sgl_core.h **** /**
1893:../source/sgl_core.h ****  * @brief sgl task handle function
1894:../source/sgl_core.h ****  * @param none
1895:../source/sgl_core.h ****  * @return none
1896:../source/sgl_core.h ****  * @note this function should be called in main loop or timer or thread
1897:../source/sgl_core.h ****  */
1898:../source/sgl_core.h **** static inline void sgl_task_handle(void)
 291              		.loc 2 1898 20 view .LVU92
 292              	.LBB93:
1899:../source/sgl_core.h **** {
1900:../source/sgl_core.h ****     /* If the system tick time has not been reached, skip directly. */
1901:../source/sgl_core.h ****     if (sgl_tick_get() < SGL_SYSTEM_TICK_MS) {
 293              		.loc 2 1901 5 view .LVU93
 294              	.LBB92:
 295              	.LBI89:
GAS LISTING C:\Users\lsw\AppData\Local\Temp\ccZtZR5Y.s 			page 44


1155:../source/sgl_core.h **** {
 296              		.loc 2 1155 23 view .LVU94
 297              	.LBB91:
1157:../source/sgl_core.h **** }
 298              		.loc 2 1157 5 view .LVU95
 299              	.LBE91:
 300              	.LBE92:
 301              		.loc 2 1901 8 is_stmt 0 discriminator 1 view .LVU96
 302 00af 3C09     		cmpb	$9, %al
 303 00b1 7605     		jbe	.L4
1902:../source/sgl_core.h ****         return;
1903:../source/sgl_core.h ****     }
1904:../source/sgl_core.h **** 
1905:../source/sgl_core.h ****     /* If the system tick time has been reached, execute the task. */
1906:../source/sgl_core.h ****     sgl_task_handle_sync();
 304              		.loc 2 1906 5 is_stmt 1 view .LVU97
 305 00b3 E8000000 		call	sgl_task_handle_sync
 305      00
 306              	.LVL14:
 307              	.L4:
 308              	.LBE93:
 309              	.LBE94:
  76:main.c        ****         /* sgl_anim_t回调驱动的动画更新对象位置；只需标记页面为脏 */
  77:main.c        ****         //sgl_obj_set_dirty(sgl_screen_act());
  78:main.c        ****         sgl_port_sdl2_increase_frame_count(sdl2_dev);
 310              		.loc 1 78 9 view .LVU98
 311 00b8 4889F1   		movq	%rsi, %rcx
 312 00bb E8000000 		call	sgl_port_sdl2_increase_frame_count
 312      00
 313              	.LVL15:
  67:main.c        ****         SDL_PollEvent(&MouseEvent);
 314              		.loc 1 67 12 view .LVU99
 315 00c0 81FB0001 		cmpl	$256, %ebx
 315      0000
 316 00c6 75D8     		jne	.L5
  79:main.c        ****     }
  80:main.c        **** 
  81:main.c        ****     sgl_port_sdl2_deinit(sdl2_dev);
 317              		.loc 1 81 5 view .LVU100
 318 00c8 4889F1   		movq	%rsi, %rcx
 319 00cb E8000000 		call	sgl_port_sdl2_deinit
 319      00
 320              	.LVL16:
  82:main.c        **** 
  83:main.c        ****     return 0;
 321              		.loc 1 83 5 view .LVU101
 322              		.loc 1 83 12 is_stmt 0 view .LVU102
 323 00d0 31C0     		xorl	%eax, %eax
 324              	.LVL17:
 325              	.L1:
  84:main.c        **** }
 326              		.loc 1 84 1 view .LVU103
 327 00d2 4883C468 		addq	$104, %rsp
 328              		.cfi_remember_state
 329              		.cfi_def_cfa_offset 40
 330 00d6 5B       		popq	%rbx
 331              		.cfi_restore 3
GAS LISTING C:\Users\lsw\AppData\Local\Temp\ccZtZR5Y.s 			page 45


 332              		.cfi_def_cfa_offset 32
 333 00d7 5E       		popq	%rsi
 334              		.cfi_restore 4
 335              		.cfi_def_cfa_offset 24
 336              	.LVL18:
 337              		.loc 1 84 1 view .LVU104
 338 00d8 5F       		popq	%rdi
 339              		.cfi_restore 5
 340              		.cfi_def_cfa_offset 16
 341 00d9 5D       		popq	%rbp
 342              		.cfi_restore 6
 343              		.cfi_def_cfa_offset 8
 344 00da C3       		ret
 345              	.LVL19:
 346 00db 0F1F4400 		.p2align 4,,10
 346      00
 347              		.p2align 3
 348              	.L9:
 349              		.cfi_restore_state
 350              	.LBB95:
 351              	.LBB57:
1734:../source/sgl_core.h ****     obj->coords.x2 = obj->coords.x1 + width - 1;
 352              		.loc 2 1734 5 is_stmt 1 discriminator 1 view .LVU105
 353 00e0 488D1500 		leaq	__FUNCTION__.1(%rip), %rdx
 353      000000
 354 00e7 41B8C606 		movl	$1734, %r8d
 354      0000
 355 00ed 488D0D00 		leaq	.LC1(%rip), %rcx
 355      000000
 356 00f4 E8000000 		call	sgl_assert_handler
 356      00
 357              	.LVL20:
1734:../source/sgl_core.h ****     obj->coords.x2 = obj->coords.x1 + width - 1;
 358              		.loc 2 1734 5 is_stmt 0 discriminator 1 view .LVU106
 359 00f9 E940FFFF 		jmp	.L3
 359      FF
 360              	.LVL21:
 361              	.L6:
1734:../source/sgl_core.h ****     obj->coords.x2 = obj->coords.x1 + width - 1;
 362              		.loc 2 1734 5 discriminator 1 view .LVU107
 363              	.LBE57:
 364              	.LBE95:
  45:main.c        ****     }
 365              		.loc 1 45 16 view .LVU108
 366 00fe B8FFFFFF 		movl	$-1, %eax
 366      FF
 367              	.LVL22:
  45:main.c        ****     }
 368              		.loc 1 45 16 view .LVU109
 369 0103 EBCD     		jmp	.L1
 370              		.cfi_endproc
 371              	.LFE6970:
 372              		.seh_endproc
 373 0105 90909090 		.section	.rdata$__FUNCTION__.1,"dr"
 373      90909090 
 373      909090
 374              		.align 16
GAS LISTING C:\Users\lsw\AppData\Local\Temp\ccZtZR5Y.s 			page 46


 375              	__FUNCTION__.1:
 376 0000 73676C5F 		.ascii "sgl_obj_set_size\0"
 376      6F626A5F 
 376      7365745F 
 376      73697A65 
 376      00
 377 0011 00000000 		.section .rdata,"dr"
 377      00000000 
 377      00000000 
 377      000000
 378 0015 000000   		.align 4
 379              	.LC2:
 380 0018 8300     		.word	131
 381 001a B300     		.word	179
 382 001c 00000000 		.text
 383              	.Letext0:
 384              		.file 4 "C:/mingw64/x86_64-w64-mingw32/include/corecrt.h"
 385              		.file 5 "C:/mingw64/lib/gcc/x86_64-w64-mingw32/13.2.0/include/stdint-gcc.h"
 386              		.file 6 "sdl/include/SDL2/SDL_stdinc.h"
 387              		.file 7 "sdl/include/SDL2/SDL_scancode.h"
 388              		.file 8 "sdl/include/SDL2/SDL_keycode.h"
 389              		.file 9 "sdl/include/SDL2/SDL_keyboard.h"
 390              		.file 10 "sdl/include/SDL2/SDL_joystick.h"
 391              		.file 11 "sdl/include/SDL2/SDL_touch.h"
 392              		.file 12 "sdl/include/SDL2/SDL_gesture.h"
 393              		.file 13 "sdl/include/SDL2/SDL_events.h"
 394              		.file 14 "../source/sgl_draw.h"
 6709 002a 433A2F55 		.section	.rdata$.refptr.sgl_system, "dr"
 6709      73657273 
 6709      2F6C7377 
 6709      2F446573 
 6709      6B746F70 
 6710              		.globl	.refptr.sgl_system
 6711              		.linkonce	discard
GAS LISTING C:\Users\lsw\AppData\Local\Temp\ccZtZR5Y.s 			page 188


 6712              	.refptr.sgl_system:
 6713 0000 00000000 		.quad	sgl_system
 6713      00000000 
 6713      00000000 
 6713      00000000 
GAS LISTING C:\Users\lsw\AppData\Local\Temp\ccZtZR5Y.s 			page 189

