GAS LISTING C:\Users\lsw\AppData\Local\Temp\ccSZcLze.s 			page 1


   1              		.file	"sgl_port_sdl2.c"
   2              		.text
   3              	.Ltext0:
   4              		.cfi_sections	.debug_frame
   5              		.file 0 "C:/Users/lsw/Desktop/sgl-lite/demo" "sgl_port_sdl2.c"
   6              		.section	.text$anim_systick,"x"
   7              		.p2align 4
   9              		.seh_proc	anim_systick
  10              	anim_systick:
  11              	.LVL0:
  12              	.LFB6951:
  13              		.file 1 "sgl_port_sdl2.c"
   1:sgl_port_sdl2.c **** /* source/port/sgl_port.c
   2:sgl_port_sdl2.c ****  *
   3:sgl_port_sdl2.c ****  * MIT License
   4:sgl_port_sdl2.c ****  *
   5:sgl_port_sdl2.c ****  * Copyright(c) 2023-present All contributors of SGL  
   6:sgl_port_sdl2.c ****  * Document reference link: docs directory
   7:sgl_port_sdl2.c ****  * 
   8:sgl_port_sdl2.c ****  * Permission is hereby granted, free of charge, to any person obtaining a copy
   9:sgl_port_sdl2.c ****  * of this software and associated documentation files (the "Software"), to deal
  10:sgl_port_sdl2.c ****  * in the Software without restriction, including without limitation the rights
  11:sgl_port_sdl2.c ****  * to use, copy, modify, merge, publish, distribute, sublicense, and/or sell
  12:sgl_port_sdl2.c ****  * copies of the Software, and to permit persons to whom the Software is
  13:sgl_port_sdl2.c ****  * furnished to do so, subject to the following conditions:
  14:sgl_port_sdl2.c ****  * The above copyright notice and this permission notice shall be included in all
  15:sgl_port_sdl2.c ****  * copies or substantial portions of the Software.
  16:sgl_port_sdl2.c ****  * THE SOFTWARE IS PROVIDED "AS IS", WITHOUT WARRANTY OF ANY KIND, EXPRESS OR
  17:sgl_port_sdl2.c ****  * IMPLIED, INCLUDING BUT NOT LIMITED TO THE WARRANTIES OF MERCHANTABILITY,
  18:sgl_port_sdl2.c ****  * FITNESS FOR A PARTICULAR PURPOSE AND NONINFRINGEMENT. IN NO EVENT SHALL THE
  19:sgl_port_sdl2.c ****  * AUTHORS OR COPYRIGHT HOLDERS BE LIABLE FOR ANY CLAIM, DAMAGES OR OTHER
  20:sgl_port_sdl2.c ****  * LIABILITY, WHETHER IN AN ACTION OF CONTRACT, TORT OR OTHERWISE, ARISING FROM,
  21:sgl_port_sdl2.c ****  * OUT OF OR IN CONNECTION WITH THE SOFTWARE OR THE USE OR OTHER DEALINGS IN THE
  22:sgl_port_sdl2.c ****  * SOFTWARE.
  23:sgl_port_sdl2.c ****  */
  24:sgl_port_sdl2.c **** 
  25:sgl_port_sdl2.c **** 
  26:sgl_port_sdl2.c **** #include <SDL.h>
  27:sgl_port_sdl2.c **** #include <stdlib.h>
  28:sgl_port_sdl2.c **** #include <time.h>
  29:sgl_port_sdl2.c **** #include <stdio.h>
  30:sgl_port_sdl2.c **** #include <sgl.h>
  31:sgl_port_sdl2.c **** 
  32:sgl_port_sdl2.c **** 
  33:sgl_port_sdl2.c **** #define  CONFIG_SGL_PANEL_WIDTH         240
  34:sgl_port_sdl2.c **** #define  CONFIG_SGL_PANEL_HEIGHT        284
  35:sgl_port_sdl2.c **** #define  CONFIG_SGL_PANEL_BUFFER_LINE   4
  36:sgl_port_sdl2.c **** 
  37:sgl_port_sdl2.c **** 
  38:sgl_port_sdl2.c **** static SDL_Renderer * m_renderer = NULL;
  39:sgl_port_sdl2.c **** 
  40:sgl_port_sdl2.c **** typedef struct sgl_port_sdl2 {
  41:sgl_port_sdl2.c ****     SDL_Window    *m_window;
  42:sgl_port_sdl2.c ****     SDL_TimerID   systick;
  43:sgl_port_sdl2.c ****     SDL_TimerID   anim_systick;
  44:sgl_port_sdl2.c ****     size_t        frame_count;
  45:sgl_port_sdl2.c **** } sgl_port_sdl2_t;
GAS LISTING C:\Users\lsw\AppData\Local\Temp\ccSZcLze.s 			page 2


  46:sgl_port_sdl2.c **** 
  47:sgl_port_sdl2.c **** 
  48:sgl_port_sdl2.c **** #if (CONFIG_SGL_FBDEV_PIXEL_DEPTH == 32)
  49:sgl_port_sdl2.c **** #define  SDL_PIXEL_FORMAT       SDL_PIXELFORMAT_ARGB8888
  50:sgl_port_sdl2.c **** #elif (CONFIG_SGL_FBDEV_PIXEL_DEPTH == 24)
  51:sgl_port_sdl2.c **** #define  SDL_PIXEL_FORMAT       SDL_PIXELFORMAT_BGR24
  52:sgl_port_sdl2.c **** #elif (CONFIG_SGL_FBDEV_PIXEL_DEPTH == 16)
  53:sgl_port_sdl2.c **** #define  SDL_PIXEL_FORMAT       SDL_PIXELFORMAT_RGB565
  54:sgl_port_sdl2.c **** #elif (CONFIG_SGL_FBDEV_PIXEL_DEPTH == 8)
  55:sgl_port_sdl2.c **** #define  SDL_PIXEL_FORMAT       SDL_PIXELFORMAT_RGB332
  56:sgl_port_sdl2.c **** #endif
  57:sgl_port_sdl2.c **** 
  58:sgl_port_sdl2.c **** 
  59:sgl_port_sdl2.c **** sgl_color_t sdl2_frame_buffer[CONFIG_SGL_PANEL_WIDTH * CONFIG_SGL_PANEL_HEIGHT] = {0};
  60:sgl_port_sdl2.c **** 
  61:sgl_port_sdl2.c **** 
  62:sgl_port_sdl2.c **** static int sdl_create_windows(SDL_Window **m_window, SDL_Renderer **m_renderer, const char *title)
  63:sgl_port_sdl2.c **** {
  64:sgl_port_sdl2.c ****     if ( SDL_CreateWindowAndRenderer( CONFIG_SGL_PANEL_WIDTH, CONFIG_SGL_PANEL_HEIGHT, SDL_WINDOW_S
  65:sgl_port_sdl2.c ****                                       &(*m_window), &(*m_renderer )) != 0 ) {
  66:sgl_port_sdl2.c ****         return -1;
  67:sgl_port_sdl2.c ****     }
  68:sgl_port_sdl2.c **** 
  69:sgl_port_sdl2.c ****     SDL_SetWindowTitle(*m_window, title);
  70:sgl_port_sdl2.c **** 
  71:sgl_port_sdl2.c ****     SDL_Surface* icon = SDL_LoadBMP("sgl_log.bmp");
  72:sgl_port_sdl2.c ****     if (icon) {
  73:sgl_port_sdl2.c ****         SDL_SetWindowIcon(*m_window, icon);
  74:sgl_port_sdl2.c ****         SDL_FreeSurface(icon);
  75:sgl_port_sdl2.c ****     }
  76:sgl_port_sdl2.c **** 
  77:sgl_port_sdl2.c ****     // Clear the window with a SGL_COLOR_WHITE background
  78:sgl_port_sdl2.c ****     for(int i = 0; i< CONFIG_SGL_PANEL_WIDTH * CONFIG_SGL_PANEL_HEIGHT; i++) {
  79:sgl_port_sdl2.c ****         sdl2_frame_buffer[i] = SGL_COLOR_WHITE;
  80:sgl_port_sdl2.c ****     }
  81:sgl_port_sdl2.c **** 
  82:sgl_port_sdl2.c ****     SDL_SetRenderDrawColor( *m_renderer, 0, 0, 0, 255);
  83:sgl_port_sdl2.c ****     SDL_RenderClear( *m_renderer );
  84:sgl_port_sdl2.c ****     return 0;
  85:sgl_port_sdl2.c **** }
  86:sgl_port_sdl2.c **** 
  87:sgl_port_sdl2.c **** 
  88:sgl_port_sdl2.c **** static void flush_window(SDL_Renderer * m_renderer)
  89:sgl_port_sdl2.c **** {
  90:sgl_port_sdl2.c ****     SDL_Texture *texture = SDL_CreateTexture(m_renderer, SDL_PIXEL_FORMAT, SDL_TEXTUREACCESS_STREAM
  91:sgl_port_sdl2.c ****     SDL_UpdateTexture(texture, NULL, sdl2_frame_buffer, CONFIG_SGL_PANEL_WIDTH * sizeof(sgl_color_t
  92:sgl_port_sdl2.c ****     SDL_RenderCopy(m_renderer, texture, NULL, NULL);
  93:sgl_port_sdl2.c ****     SDL_RenderPresent(m_renderer);
  94:sgl_port_sdl2.c ****     SDL_DestroyTexture(texture);
  95:sgl_port_sdl2.c **** }
  96:sgl_port_sdl2.c **** 
  97:sgl_port_sdl2.c **** 
  98:sgl_port_sdl2.c **** static uint32_t system_tick(uint32_t interval, void *param)
  99:sgl_port_sdl2.c **** {
 100:sgl_port_sdl2.c ****     sgl_mm_monitor_t mm = sgl_mm_get_monitor();
 101:sgl_port_sdl2.c ****     sgl_port_sdl2_t *sdl2_dev = (sgl_port_sdl2_t*)param;
 102:sgl_port_sdl2.c ****     SGL_UNUSED(mm);
GAS LISTING C:\Users\lsw\AppData\Local\Temp\ccSZcLze.s 			page 3


 103:sgl_port_sdl2.c ****     printf("SGL SDL2 Frame = %lld\n", sdl2_dev->frame_count);
 104:sgl_port_sdl2.c ****     printf("Memory: total: %lld used: %lld, free = %lld\n", mm.total_size, mm.used_size, mm.free_si
 105:sgl_port_sdl2.c ****     sdl2_dev->frame_count = 0;
 106:sgl_port_sdl2.c **** 	return interval;
 107:sgl_port_sdl2.c **** }
 108:sgl_port_sdl2.c **** 
 109:sgl_port_sdl2.c **** 
 110:sgl_port_sdl2.c **** static uint32_t anim_systick(uint32_t interval, void *param)
 111:sgl_port_sdl2.c **** {
  14              		.loc 1 111 1 view -0
  15              		.cfi_startproc
  16              		.loc 1 111 1 is_stmt 0 view .LVU1
  17              		.seh_endprologue
 112:sgl_port_sdl2.c ****     SGL_UNUSED(param);
  18              		.loc 1 112 5 is_stmt 1 view .LVU2
 113:sgl_port_sdl2.c ****     sgl_tick_inc(1);
  19              		.loc 1 113 5 view .LVU3
  20              	.LVL1:
  21              	.LBB6:
  22              	.LBI6:
  23              		.file 2 "../source/sgl_core.h"
   1:../source/sgl_core.h **** /* source: sgl_core.h
   2:../source/sgl_core.h ****  * Copyright (c) 2026-2028, Lishanwen
   3:../source/sgl_core.h ****  *
   4:../source/sgl_core.h ****  * Licensed under the Apache License, Version 2.0 (the "License");
   5:../source/sgl_core.h ****  * you may not use this file except in compliance with the License.
   6:../source/sgl_core.h ****  * You may obtain a copy of the License at
   7:../source/sgl_core.h ****  *
   8:../source/sgl_core.h ****  *     http://www.apache.org/licenses/LICENSE-2.0
   9:../source/sgl_core.h ****  *
  10:../source/sgl_core.h ****  * Unless required by applicable law or agreed to in writing, software
  11:../source/sgl_core.h ****  * distributed under the License is distributed on an "AS IS" BASIS,
  12:../source/sgl_core.h ****  * WITHOUT WARRANTIES OR CONDITIONS OF ANY KIND, either express or implied.
  13:../source/sgl_core.h ****  * See the License for the specific language governing permissions and
  14:../source/sgl_core.h ****  * limitations under the License.
  15:../source/sgl_core.h ****  */
  16:../source/sgl_core.h **** 
  17:../source/sgl_core.h **** #ifndef __SGL_CORE_H__
  18:../source/sgl_core.h **** #define __SGL_CORE_H__
  19:../source/sgl_core.h **** 
  20:../source/sgl_core.h **** #include "sgl_config.h"
  21:../source/sgl_core.h **** #include <stdint.h>
  22:../source/sgl_core.h **** #include <stdbool.h>
  23:../source/sgl_core.h **** #include <stddef.h>
  24:../source/sgl_core.h **** #include <string.h>
  25:../source/sgl_core.h **** #include <stdarg.h>
  26:../source/sgl_core.h **** 
  27:../source/sgl_core.h **** #ifdef __cplusplus
  28:../source/sgl_core.h **** extern "C" {
  29:../source/sgl_core.h **** #endif
  30:../source/sgl_core.h **** 
  31:../source/sgl_core.h **** #ifndef CONFIG_SGL_FBDEV_PIXEL_DEPTH
  32:../source/sgl_core.h **** #define CONFIG_SGL_FBDEV_PIXEL_DEPTH             (16)
  33:../source/sgl_core.h **** #endif
  34:../source/sgl_core.h **** 
  35:../source/sgl_core.h **** #ifndef CONFIG_SGL_SYSTICK_MS
  36:../source/sgl_core.h **** #define CONFIG_SGL_SYSTICK_MS                    (10)
GAS LISTING C:\Users\lsw\AppData\Local\Temp\ccSZcLze.s 			page 4


  37:../source/sgl_core.h **** #endif
  38:../source/sgl_core.h **** 
  39:../source/sgl_core.h **** #ifndef CONFIG_SGL_HEAP_SIZE
  40:../source/sgl_core.h **** #define CONFIG_SGL_HEAP_SIZE                     (10240)
  41:../source/sgl_core.h **** #endif
  42:../source/sgl_core.h **** 
  43:../source/sgl_core.h **** #ifndef CONFIG_SGL_DEBUG
  44:../source/sgl_core.h **** #define CONFIG_SGL_DEBUG                         (0)
  45:../source/sgl_core.h **** #endif
  46:../source/sgl_core.h **** 
  47:../source/sgl_core.h **** #ifndef CONFIG_SGL_FONT_COMPRESSED
  48:../source/sgl_core.h **** #define CONFIG_SGL_FONT_COMPRESSED               (0)
  49:../source/sgl_core.h **** #endif
  50:../source/sgl_core.h **** 
  51:../source/sgl_core.h **** #ifndef CONFIG_SGL_FONT_SMALL_TABLE
  52:../source/sgl_core.h **** #define CONFIG_SGL_FONT_SMALL_TABLE              (0)
  53:../source/sgl_core.h **** #endif
  54:../source/sgl_core.h **** 
  55:../source/sgl_core.h **** /* the maximum depth of object*/
  56:../source/sgl_core.h **** #define  SGL_OBJ_DEPTH_MAX                       (8)
  57:../source/sgl_core.h **** /* the maximum number of drawing buffers */
  58:../source/sgl_core.h **** #define  SGL_DRAW_BUFFER_MAX                     (2)
  59:../source/sgl_core.h **** /* define default animation tick ms */
  60:../source/sgl_core.h **** #define  SGL_SYSTEM_TICK_MS                      CONFIG_SGL_SYSTICK_MS
  61:../source/sgl_core.h **** 
  62:../source/sgl_core.h **** 
  63:../source/sgl_core.h **** /**
  64:../source/sgl_core.h ****  * @brief Get the offset of internal members of the structure
  65:../source/sgl_core.h ****  * 
  66:../source/sgl_core.h ****  * @struct_t: structure typedef 
  67:../source/sgl_core.h ****  * @member: member in structure
  68:../source/sgl_core.h ****  * 
  69:../source/sgl_core.h ****  * @return offset of member in the structure
  70:../source/sgl_core.h **** */
  71:../source/sgl_core.h **** #define sgl_offsetof(struct_t, member)          ((size_t)&((struct_t*)0)->member)
  72:../source/sgl_core.h **** 
  73:../source/sgl_core.h **** 
  74:../source/sgl_core.h **** /**
  75:../source/sgl_core.h ****  * @brief Get the address of the structure instance.
  76:../source/sgl_core.h ****  *
  77:../source/sgl_core.h ****  * @ptr: address of the structure member.
  78:../source/sgl_core.h ****  * @type: type of the structure.
  79:../source/sgl_core.h ****  * @member: member name of the ptr in structure.
  80:../source/sgl_core.h ****  * @return pointer to address of structure 
  81:../source/sgl_core.h ****  */
  82:../source/sgl_core.h **** #define sgl_container_of(ptr, type, member)     ((type *)((char *)ptr - sgl_offsetof(type, member))
  83:../source/sgl_core.h **** 
  84:../source/sgl_core.h **** 
  85:../source/sgl_core.h **** #ifndef SGL_ARRAY_SIZE
  86:../source/sgl_core.h **** #define SGL_ARRAY_SIZE(array)                   (sizeof(array) / sizeof(array[0]))
  87:../source/sgl_core.h **** #endif
  88:../source/sgl_core.h **** 
  89:../source/sgl_core.h **** 
  90:../source/sgl_core.h **** #define SGL_ALIGN_UP(x, align)                  (((x) + ((align) - 1)) & ~((align) - 1))
  91:../source/sgl_core.h **** #define SGL_ROUND_UP(x, round)                  ((((x) + ((round) - 1)) / (round)) * (round))
  92:../source/sgl_core.h **** 
  93:../source/sgl_core.h **** #define SGL_UNUSED(x)                           (void)(x)
GAS LISTING C:\Users\lsw\AppData\Local\Temp\ccSZcLze.s 			page 5


  94:../source/sgl_core.h **** 
  95:../source/sgl_core.h **** 
  96:../source/sgl_core.h **** #define SGL_POS_INVALID                         (0xefff)
  97:../source/sgl_core.h **** #define SGL_POS_MAX                             (8192)
  98:../source/sgl_core.h **** #define SGL_POS_MIN                             (-8192)
  99:../source/sgl_core.h **** #define SGL_RADIUS_INVALID                      (0xFFF)
 100:../source/sgl_core.h **** 
 101:../source/sgl_core.h **** #define SGL_AREA_MAX                            {.x1 = SGL_POS_MIN, .y1 = SGL_POS_MIN, .x2 = SGL_PO
 102:../source/sgl_core.h **** #define SGL_AREA_INVALID                        {.x1 = SGL_POS_MAX, .y1 = SGL_POS_MAX, .x2 = SGL_PO
 103:../source/sgl_core.h **** 
 104:../source/sgl_core.h **** #define SGL_WIDTH_INVALID                       (-1)
 105:../source/sgl_core.h **** #define SGL_WIDTH_MAX                           (8192)
 106:../source/sgl_core.h **** #define SGL_WIDTH_MIN                           (0)
 107:../source/sgl_core.h **** #define SGL_HEIGHT_INVALID                      (-1)
 108:../source/sgl_core.h **** #define SGL_HEIGHT_MAX                          (8192)
 109:../source/sgl_core.h **** #define SGL_HEIGHT_MIN                          (0)
 110:../source/sgl_core.h **** 
 111:../source/sgl_core.h **** 
 112:../source/sgl_core.h **** #define SGL_DIRECT_HORIZONTAL                   (0)
 113:../source/sgl_core.h **** #define SGL_DIRECT_VERTICAL                     (1)
 114:../source/sgl_core.h **** 
 115:../source/sgl_core.h **** 
 116:../source/sgl_core.h **** #define SGL_ALPHA_MAX                           (255)
 117:../source/sgl_core.h **** #define SGL_ALPHA_MIN                           (0)
 118:../source/sgl_core.h **** #define SGL_ALPHA_NUM                           (256)
 119:../source/sgl_core.h **** 
 120:../source/sgl_core.h **** 
 121:../source/sgl_core.h **** #define SGL_STYLE_OK                            (0)
 122:../source/sgl_core.h **** #define SGL_STYLE_FAILED                        (UINT32_MAX)
 123:../source/sgl_core.h **** #define SGL_STYLE_INVALID                       (UINT32_MAX)
 124:../source/sgl_core.h **** 
 125:../source/sgl_core.h **** 
 126:../source/sgl_core.h **** #define SGL_COLOR_RGB233                        (8)
 127:../source/sgl_core.h **** #define SGL_COLOR_RGB565                        (16)
 128:../source/sgl_core.h **** #define SGL_COLOR_RGB888                        (24)
 129:../source/sgl_core.h **** #define SGL_COLOR_ARGB8888                      (32)
 130:../source/sgl_core.h **** 
 131:../source/sgl_core.h **** /* the pixmap format */
 132:../source/sgl_core.h **** #define  SGL_PIXMAP_FMT_NONE                    (0)
 133:../source/sgl_core.h **** #define  SGL_PIXMAP_FMT_RGB332                  (1)
 134:../source/sgl_core.h **** #define  SGL_PIXMAP_FMT_RGB565                  (2)
 135:../source/sgl_core.h **** #define  SGL_PIXMAP_FMT_RGB888                  (3)
 136:../source/sgl_core.h **** #define  SGL_PIXMAP_FMT_RLE_RGB332              (4)
 137:../source/sgl_core.h **** #define  SGL_PIXMAP_FMT_RLE_RGB565              (5)
 138:../source/sgl_core.h **** #define  SGL_PIXMAP_FMT_RLE_RGB888              (6)
 139:../source/sgl_core.h **** #define  SGL_PIXMAP_FMT_RLE_RGBA8888            (7)
 140:../source/sgl_core.h **** #define  SGL_PIXMAP_FMT_RLE_1                   (8)
 141:../source/sgl_core.h **** #define  SGL_PIXMAP_FMT_MAX                     (9)
 142:../source/sgl_core.h **** 
 143:../source/sgl_core.h **** 
 144:../source/sgl_core.h **** #ifdef __GNUC__            /* gcc compiler   */
 145:../source/sgl_core.h **** #ifndef likely
 146:../source/sgl_core.h **** #  define likely(x)                             __builtin_expect(!!(x), 1)
 147:../source/sgl_core.h **** #  define unlikely(x)                           __builtin_expect(!!(x), 0)
 148:../source/sgl_core.h **** #endif
 149:../source/sgl_core.h **** #elif defined(__clang__)   /* clang compiler */
 150:../source/sgl_core.h **** #ifndef likely
GAS LISTING C:\Users\lsw\AppData\Local\Temp\ccSZcLze.s 			page 6


 151:../source/sgl_core.h **** #  define likely(x)                             __builtin_expect(!!(x), 1)
 152:../source/sgl_core.h **** #  define unlikely(x)                           __builtin_expect(!!(x), 0)
 153:../source/sgl_core.h **** #endif
 154:../source/sgl_core.h **** #elif defined(__CC_ARM)    /* RealView compiler (Keil ARMCC) */
 155:../source/sgl_core.h **** #ifndef likely
 156:../source/sgl_core.h **** #  define likely(x)                             __builtin_expect(!!(x), 1)
 157:../source/sgl_core.h **** #  define unlikely(x)                           __builtin_expect(!!(x), 0)
 158:../source/sgl_core.h **** #endif
 159:../source/sgl_core.h **** #elif defined(__ICCARM__)  /* IAR compiler    */
 160:../source/sgl_core.h **** #ifndef likely
 161:../source/sgl_core.h **** #  define likely(x)                             __iar_builtin_expect(!!(x), 1)
 162:../source/sgl_core.h **** #  define unlikely(x)                           __iar_builtin_expect(!!(x), 0)
 163:../source/sgl_core.h **** #endif
 164:../source/sgl_core.h **** #elif defined(_MSC_VER)    /* MSVC compiler   */
 165:../source/sgl_core.h **** #ifndef likely
 166:../source/sgl_core.h **** #  define likely(x)                             (x)
 167:../source/sgl_core.h **** #  define unlikely(x)                           (x)
 168:../source/sgl_core.h **** #endif
 169:../source/sgl_core.h **** #elif defined(__MINGW32__) /* MinGW compiler  */
 170:../source/sgl_core.h **** #ifndef likely
 171:../source/sgl_core.h **** #define likely(x)                               __builtin_expect(!!(x), 1)
 172:../source/sgl_core.h **** #define unlikely(x)                             __builtin_expect(!!(x), 0)
 173:../source/sgl_core.h **** #endif
 174:../source/sgl_core.h **** #else                      /* others compiler */
 175:../source/sgl_core.h **** #ifndef likely
 176:../source/sgl_core.h **** #  define likely(x)                             (x)
 177:../source/sgl_core.h **** #  define unlikely(x)                           (x)
 178:../source/sgl_core.h **** #endif
 179:../source/sgl_core.h **** #endif
 180:../source/sgl_core.h **** 
 181:../source/sgl_core.h **** /**
 182:../source/sgl_core.h **** * @brief This structure defines a 32 bit color bit field
 183:../source/sgl_core.h **** *
 184:../source/sgl_core.h **** * @blue: Blue color component
 185:../source/sgl_core.h **** * @green: Green color component
 186:../source/sgl_core.h **** * @red: Red color component
 187:../source/sgl_core.h **** * @alpha: Color transparency
 188:../source/sgl_core.h **** */
 189:../source/sgl_core.h **** typedef union {
 190:../source/sgl_core.h ****     struct {
 191:../source/sgl_core.h ****         uint8_t blue;
 192:../source/sgl_core.h ****         uint8_t green;
 193:../source/sgl_core.h ****         uint8_t red;
 194:../source/sgl_core.h ****         uint8_t alpha;
 195:../source/sgl_core.h ****     } ch;
 196:../source/sgl_core.h ****     uint32_t full;
 197:../source/sgl_core.h **** } sgl_color32_t;
 198:../source/sgl_core.h **** 
 199:../source/sgl_core.h **** 
 200:../source/sgl_core.h **** /**
 201:../source/sgl_core.h **** * @brief This structure defines a 24 bit color bit field
 202:../source/sgl_core.h **** *
 203:../source/sgl_core.h **** * @blue: Blue color component
 204:../source/sgl_core.h **** * @green: Green color component
 205:../source/sgl_core.h **** * @red: Red color component
 206:../source/sgl_core.h **** */
 207:../source/sgl_core.h **** typedef union {
GAS LISTING C:\Users\lsw\AppData\Local\Temp\ccSZcLze.s 			page 7


 208:../source/sgl_core.h ****     struct {
 209:../source/sgl_core.h ****         uint8_t blue;
 210:../source/sgl_core.h ****         uint8_t green;
 211:../source/sgl_core.h ****         uint8_t red;
 212:../source/sgl_core.h ****     } ch;
 213:../source/sgl_core.h ****     uint8_t full[3];
 214:../source/sgl_core.h **** } sgl_color24_t;
 215:../source/sgl_core.h **** 
 216:../source/sgl_core.h **** 
 217:../source/sgl_core.h **** /**
 218:../source/sgl_core.h **** * @brief This structure defines a 16 bit color bit field
 219:../source/sgl_core.h **** *
 220:../source/sgl_core.h **** * @blue: Blue color component
 221:../source/sgl_core.h **** * @green: Green color component
 222:../source/sgl_core.h **** * @red: Red color component
 223:../source/sgl_core.h **** * @alpha: Color transparency
 224:../source/sgl_core.h **** */
 225:../source/sgl_core.h **** typedef union {
 226:../source/sgl_core.h ****     struct {
 227:../source/sgl_core.h ****         uint16_t blue : 5;
 228:../source/sgl_core.h ****         uint16_t green : 6;
 229:../source/sgl_core.h ****         uint16_t red : 5;
 230:../source/sgl_core.h ****     } ch;
 231:../source/sgl_core.h ****     uint16_t full;
 232:../source/sgl_core.h **** } sgl_color16_t;
 233:../source/sgl_core.h **** 
 234:../source/sgl_core.h **** 
 235:../source/sgl_core.h **** /**
 236:../source/sgl_core.h **** * @brief This structure defines a 8 bit color bit field
 237:../source/sgl_core.h **** *
 238:../source/sgl_core.h **** * @blue: Blue color component
 239:../source/sgl_core.h **** * @green: Green color component
 240:../source/sgl_core.h **** * @red: Red color component
 241:../source/sgl_core.h **** * @alpha: Color transparency
 242:../source/sgl_core.h **** */
 243:../source/sgl_core.h **** typedef union {
 244:../source/sgl_core.h ****     struct {
 245:../source/sgl_core.h ****         uint8_t blue : 2;
 246:../source/sgl_core.h ****         uint8_t green : 3;
 247:../source/sgl_core.h ****         uint8_t red : 3;
 248:../source/sgl_core.h ****     } ch;
 249:../source/sgl_core.h ****     uint8_t full;
 250:../source/sgl_core.h **** } sgl_color8_t;
 251:../source/sgl_core.h **** 
 252:../source/sgl_core.h **** 
 253:../source/sgl_core.h **** #if (CONFIG_SGL_FBDEV_PIXEL_DEPTH == 32)
 254:../source/sgl_core.h **** #define sgl_color_t sgl_color32_t
 255:../source/sgl_core.h **** #elif (CONFIG_SGL_FBDEV_PIXEL_DEPTH == 24)
 256:../source/sgl_core.h **** #define sgl_color_t sgl_color24_t
 257:../source/sgl_core.h **** #elif (CONFIG_SGL_FBDEV_PIXEL_DEPTH == 16)
 258:../source/sgl_core.h **** #define sgl_color_t sgl_color16_t
 259:../source/sgl_core.h **** #elif (CONFIG_SGL_FBDEV_PIXEL_DEPTH == 8)
 260:../source/sgl_core.h **** #define sgl_color_t sgl_color8_t
 261:../source/sgl_core.h **** #endif
 262:../source/sgl_core.h **** 
 263:../source/sgl_core.h **** 
 264:../source/sgl_core.h **** // prototype: sgl_rgb(uint8_t r, uint8_t g, uint8_t b)
GAS LISTING C:\Users\lsw\AppData\Local\Temp\ccSZcLze.s 			page 8


 265:../source/sgl_core.h **** #if (CONFIG_SGL_FBDEV_PIXEL_DEPTH == SGL_COLOR_ARGB8888 || CONFIG_SGL_FBDEV_PIXEL_DEPTH == SGL_COLO
 266:../source/sgl_core.h **** #define sgl_rgb(r,g,b)                          (sgl_color_t){ .ch.blue    = (b),              \
 267:../source/sgl_core.h ****                                                                .ch.green   = (g),              \
 268:../source/sgl_core.h ****                                                                .ch.red     = (r),}
 269:../source/sgl_core.h **** #elif (CONFIG_SGL_FBDEV_PIXEL_DEPTH == SGL_COLOR_RGB565)
 270:../source/sgl_core.h **** #define sgl_rgb(r,g,b)                          (sgl_color_t){ .ch.blue    = (b) >> 3,         \
 271:../source/sgl_core.h ****                                                                .ch.green   = (g) >> 2,         \
 272:../source/sgl_core.h ****                                                                .ch.red     = (r) >> 3,}
 273:../source/sgl_core.h **** #elif (CONFIG_SGL_FBDEV_PIXEL_DEPTH == SGL_COLOR_RGB233)
 274:../source/sgl_core.h **** #define sgl_rgb(r,g,b)                          (sgl_color_t){ .ch.blue    = (b >> 6),         \
 275:../source/sgl_core.h ****                                                                .ch.green   = (g >> 5),         \
 276:../source/sgl_core.h ****                                                                .ch.red     = (r >> 5),}
 277:../source/sgl_core.h **** #endif
 278:../source/sgl_core.h **** 
 279:../source/sgl_core.h **** 
 280:../source/sgl_core.h **** /**
 281:../source/sgl_core.h ****  * Define some basic colors
 282:../source/sgl_core.h **** */
 283:../source/sgl_core.h **** #define SGL_COLOR_RED                           sgl_rgb(0xFF, 0, 0)
 284:../source/sgl_core.h **** #define SGL_COLOR_GREEN                         sgl_rgb(0, 0xFF, 0)
 285:../source/sgl_core.h **** #define SGL_COLOR_BLUE                          sgl_rgb(0, 0, 0xFF)
 286:../source/sgl_core.h **** #define SGL_COLOR_WHITE                         sgl_rgb(0xFF, 0xFF, 0xFF)
 287:../source/sgl_core.h **** #define SGL_COLOR_BLACK                         sgl_rgb(0, 0, 0)
 288:../source/sgl_core.h **** #define SGL_COLOR_CYAN                          sgl_rgb(0, 0xFF, 0xFF)
 289:../source/sgl_core.h **** #define SGL_COLOR_MAGENTA                       sgl_rgb(0xFF, 0, 0xFF)
 290:../source/sgl_core.h **** #define SGL_COLOR_YELLOW                        sgl_rgb(0xFF, 0xFF, 0)
 291:../source/sgl_core.h **** #define SGL_COLOR_GRAY                          sgl_rgb(0x80, 0x80, 0x80)
 292:../source/sgl_core.h **** #define SGL_COLOR_DARK_GRAY                     sgl_rgb(0x40, 0x40, 0x40)
 293:../source/sgl_core.h **** #define SGL_COLOR_LIGHT_GRAY                    sgl_rgb(0xC0, 0xC0, 0xC0)
 294:../source/sgl_core.h **** #define SGL_COLOR_BRIGHT_PURPLE                 sgl_rgb(0xFF, 0x00, 0xFF)
 295:../source/sgl_core.h **** #define SGL_COLOR_BRIGHT_BLUE                   sgl_rgb(0x00, 0xFF, 0xFF)
 296:../source/sgl_core.h **** #define SGL_COLOR_ORANGE                        sgl_rgb(0xFF, 0xA5, 0x00)
 297:../source/sgl_core.h **** #define SGL_COLOR_DARK_ORANGE                   sgl_rgb(0xFF, 0x8C, 0x00)
 298:../source/sgl_core.h **** #define SGL_COLOR_RED_ORANGE                    sgl_rgb(0xFF, 0x45, 0x00)
 299:../source/sgl_core.h **** #define SGL_COLOR_GOLD                          sgl_rgb(0xFF, 0xD7, 0x00)
 300:../source/sgl_core.h **** #define SGL_COLOR_GOLDENROD                     sgl_rgb(0xDA, 0xA5, 0x20)
 301:../source/sgl_core.h **** #define SGL_COLOR_BROWN                         sgl_rgb(0xA5, 0x2A, 0x2A)
 302:../source/sgl_core.h **** #define SGL_COLOR_SADDLE_BROWN                  sgl_rgb(0x8B, 0x45, 0x13)
 303:../source/sgl_core.h **** #define SGL_COLOR_TOMATO                        sgl_rgb(0xFF, 0x63, 0x47)
 304:../source/sgl_core.h **** #define SGL_COLOR_CORAL                         sgl_rgb(0xFF, 0x7F, 0x50)
 305:../source/sgl_core.h **** #define SGL_COLOR_SALMON                        sgl_rgb(0xFA, 0x80, 0x72)
 306:../source/sgl_core.h **** #define SGL_COLOR_LIME                          sgl_rgb(0x32, 0xCD, 0x32)
 307:../source/sgl_core.h **** #define SGL_COLOR_OLIVE                         sgl_rgb(0x80, 0x80, 0x00)
 308:../source/sgl_core.h **** #define SGL_COLOR_DARK_OLIVE_GREEN              sgl_rgb(0x55, 0x6B, 0x2F)
 309:../source/sgl_core.h **** #define SGL_COLOR_FOREST_GREEN                  sgl_rgb(0x22, 0x8B, 0x2F)
 310:../source/sgl_core.h **** #define SGL_COLOR_DARK_GREEN                    sgl_rgb(0x00, 0x64, 0x00)
 311:../source/sgl_core.h **** #define SGL_COLOR_LAWN_GREEN                    sgl_rgb(0x7C, 0xFC, 0x00)
 312:../source/sgl_core.h **** #define SGL_COLOR_CHARTREUSE                    sgl_rgb(0x7F, 0xFF, 0x00)
 313:../source/sgl_core.h **** #define SGL_COLOR_YELLOW_GREEN                  sgl_rgb(0x9A, 0xCD, 0x32)
 314:../source/sgl_core.h **** #define SGL_COLOR_SPRING_GREEN                  sgl_rgb(0x00, 0xFF, 0x7F)
 315:../source/sgl_core.h **** #define SGL_COLOR_DEEP_SKY_BLUE                 sgl_rgb(0x00, 0xBF, 0xFF)
 316:../source/sgl_core.h **** #define SGL_COLOR_DODGER_BLUE                   sgl_rgb(0x1E, 0x90, 0xFF)
 317:../source/sgl_core.h **** #define SGL_COLOR_ROYAL_BLUE                    sgl_rgb(0x41, 0x69, 0xE1)
 318:../source/sgl_core.h **** #define SGL_COLOR_MIDNIGHT_BLUE                 sgl_rgb(0x19, 0x19, 0x70)
 319:../source/sgl_core.h **** #define SGL_COLOR_NAVY                          sgl_rgb(0x00, 0x00, 0x80)
 320:../source/sgl_core.h **** #define SGL_COLOR_TEAL                          sgl_rgb(0x00, 0x80, 0x80)
 321:../source/sgl_core.h **** #define SGL_COLOR_DARK_CYAN                     sgl_rgb(0x00, 0x8B, 0x8B)
GAS LISTING C:\Users\lsw\AppData\Local\Temp\ccSZcLze.s 			page 9


 322:../source/sgl_core.h **** #define SGL_COLOR_LIGHT_SEA_GREEN               sgl_rgb(0x20, 0xB2, 0xAA)
 323:../source/sgl_core.h **** #define SGL_COLOR_CADET_BLUE                    sgl_rgb(0x5F, 0x9E, 0xA0)
 324:../source/sgl_core.h **** #define SGL_COLOR_INDIGO                        sgl_rgb(0x4B, 0x00, 0x82)
 325:../source/sgl_core.h **** #define SGL_COLOR_VIOLET                        sgl_rgb(0xEE, 0x82, 0xEE)
 326:../source/sgl_core.h **** #define SGL_COLOR_DARK_VIOLET                   sgl_rgb(0x94, 0x00, 0xD3)
 327:../source/sgl_core.h **** #define SGL_COLOR_MEDIUM_VIOLET_RED             sgl_rgb(0xC7, 0x15, 0x85)
 328:../source/sgl_core.h **** #define SGL_COLOR_PINK                          sgl_rgb(0xFF, 0xC0, 0xCB)
 329:../source/sgl_core.h **** #define SGL_COLOR_HOT_PINK                      sgl_rgb(0xFF, 0x69, 0xB4)
 330:../source/sgl_core.h **** #define SGL_COLOR_DEEP_PINK                     sgl_rgb(0xFF, 0x14, 0x93)
 331:../source/sgl_core.h **** #define SGL_COLOR_PLUM                          sgl_rgb(0xDD, 0xA0, 0xDD)
 332:../source/sgl_core.h **** #define SGL_COLOR_ORCHID                        sgl_rgb(0xDA, 0x70, 0xD6)
 333:../source/sgl_core.h **** #define SGL_COLOR_TAN                           sgl_rgb(0xD2, 0xB4, 0x8C)
 334:../source/sgl_core.h **** #define SGL_COLOR_WHEAT                         sgl_rgb(0xF5, 0xDE, 0xB3)
 335:../source/sgl_core.h **** #define SGL_COLOR_SAND                          sgl_rgb(0xC2, 0xB2, 0x90)
 336:../source/sgl_core.h **** #define SGL_COLOR_BEIGE                         sgl_rgb(0xF5, 0xF5, 0xDC)
 337:../source/sgl_core.h **** #define SGL_COLOR_IVORY                         sgl_rgb(0xFF, 0xFF, 0xF0)
 338:../source/sgl_core.h **** #define SGL_COLOR_LAVENDER                      sgl_rgb(0xE6, 0xE6, 0xFA)
 339:../source/sgl_core.h **** #define SGL_COLOR_MISTY_ROSE                    sgl_rgb(0xFF, 0xE4, 0xE1)
 340:../source/sgl_core.h **** #define SGL_COLOR_SEASHELL                      sgl_rgb(0xFF, 0xF5, 0xEE)
 341:../source/sgl_core.h **** #define SGL_COLOR_FLORAL_WHITE                  sgl_rgb(0xFF, 0xFA, 0xF0)
 342:../source/sgl_core.h **** 
 343:../source/sgl_core.h **** 
 344:../source/sgl_core.h **** #if CONFIG_SGL_DEBUG
 345:../source/sgl_core.h **** #define SGL_LOG_LEVEL_TRACE                     0 /**< A lot of logs to give detailed information*/
 346:../source/sgl_core.h **** #define SGL_LOG_LEVEL_INFO                      1 /**< Log important events*/
 347:../source/sgl_core.h **** #define SGL_LOG_LEVEL_WARN                      2 /**< Log if something unwanted happened but didn'
 348:../source/sgl_core.h **** #define SGL_LOG_LEVEL_ERROR                     3 /**< Only critical issue, when the system may fai
 349:../source/sgl_core.h **** #define SGL_LOG_LEVEL_USER                      4 /**< Custom logs from the user*/
 350:../source/sgl_core.h **** #define SGL_LOG_LEVEL_NONE                      5 /**< Do not log anything*/
 351:../source/sgl_core.h **** #define _SGL_LOG_LEVEL_NUM                      6 /**< Number of log levels*/
 352:../source/sgl_core.h **** 
 353:../source/sgl_core.h **** #if CONFIG_SGL_LOG_COLOR
 354:../source/sgl_core.h **** 
 355:../source/sgl_core.h **** #define SGL_LOG_NONE                            "\033[0m"
 356:../source/sgl_core.h **** #define SGL_LOG_RED                             "\033[31m"
 357:../source/sgl_core.h **** #define SGL_LOG_GREEN                           "\033[32m"
 358:../source/sgl_core.h **** #define SGL_LOG_YELLOW                          "\033[33m"
 359:../source/sgl_core.h **** #define SGL_LOG_BLUE                            "\033[34m"
 360:../source/sgl_core.h **** #define SGL_LOG_PURPLE                          "\033[35m"
 361:../source/sgl_core.h **** #define SGL_LOG_CYAN                            "\033[36m"
 362:../source/sgl_core.h **** #define SGL_LOG_WHITE                           "\033[37m"
 363:../source/sgl_core.h **** #define SGL_LOG_LIGHT_BLUE                      "\033[1;34m"
 364:../source/sgl_core.h **** 
 365:../source/sgl_core.h **** 
 366:../source/sgl_core.h **** #define SGL_LOG_TRACE_FLAG                      SGL_LOG_BLUE"[TRACE]"
 367:../source/sgl_core.h **** #define SGL_LOG_INFO_FLAG                       SGL_LOG_GREEN"[INFO]"
 368:../source/sgl_core.h **** #define SGL_LOG_WARN_FLAG                       SGL_LOG_YELLOW"[WARN]"
 369:../source/sgl_core.h **** #define SGL_LOG_ERROR_FLAG                      SGL_LOG_RED"[ERROR]"
 370:../source/sgl_core.h **** #define SGL_LOG_USER_FLAG                       SGL_LOG_PURPLE"[USER]"
 371:../source/sgl_core.h **** #define SGL_ASSERT_FLAG                         SGL_LOG_CYAN"[ASSERT]"
 372:../source/sgl_core.h **** #define SGL_DEBUG_TRACE_FLAG                    SGL_LOG_LIGHT_BLUE"[DEBUG]"
 373:../source/sgl_core.h **** 
 374:../source/sgl_core.h **** 
 375:../source/sgl_core.h **** #else
 376:../source/sgl_core.h **** #define SGL_LOG_TRACE_FLAG                      "[TRACE] "
 377:../source/sgl_core.h **** #define SGL_LOG_INFO_FLAG                       "[INFO] "
 378:../source/sgl_core.h **** #define SGL_LOG_WARN_FLAG                       "[WARN] "
GAS LISTING C:\Users\lsw\AppData\Local\Temp\ccSZcLze.s 			page 10


 379:../source/sgl_core.h **** #define SGL_LOG_ERROR_FLAG                      "[ERROR] "
 380:../source/sgl_core.h **** #define SGL_LOG_USER_FLAG                       "[USER] "
 381:../source/sgl_core.h **** #define SGL_ASSERT_FLAG                         "[ASSERT] "
 382:../source/sgl_core.h **** #define SGL_DEBUG_TRACE_FLAG                    "[DEBUG]"
 383:../source/sgl_core.h **** #define SGL_LOG_NONE                            ""
 384:../source/sgl_core.h **** 
 385:../source/sgl_core.h **** #endif // !CONFIG_SGL_LOG_COLOR
 386:../source/sgl_core.h **** 
 387:../source/sgl_core.h **** 
 388:../source/sgl_core.h **** #ifndef SGL_LOG_TRACE
 389:../source/sgl_core.h **** #    if CONFIG_SGL_LOG_LEVEL <= SGL_LOG_LEVEL_TRACE
 390:../source/sgl_core.h **** #        define SGL_LOG_TRACE(...)              sgl_log(SGL_LOG_TRACE_FLAG, __VA_ARGS__)
 391:../source/sgl_core.h **** #    else         
 392:../source/sgl_core.h **** #        define SGL_LOG_TRACE(...)              do {} while(0)
 393:../source/sgl_core.h **** #    endif
 394:../source/sgl_core.h **** #endif
 395:../source/sgl_core.h **** 
 396:../source/sgl_core.h **** #ifndef SGL_LOG_INFO
 397:../source/sgl_core.h **** #    if CONFIG_SGL_LOG_LEVEL <= SGL_LOG_LEVEL_INFO
 398:../source/sgl_core.h **** #        define SGL_LOG_INFO(...)               sgl_log(SGL_LOG_INFO_FLAG,  __VA_ARGS__)
 399:../source/sgl_core.h **** #    else         
 400:../source/sgl_core.h **** #        define SGL_LOG_INFO(...)               do {} while(0)
 401:../source/sgl_core.h **** #    endif
 402:../source/sgl_core.h **** #endif
 403:../source/sgl_core.h **** 
 404:../source/sgl_core.h **** #ifndef SGL_LOG_WARN
 405:../source/sgl_core.h **** #    if CONFIG_SGL_LOG_LEVEL <= SGL_LOG_LEVEL_WARN
 406:../source/sgl_core.h **** #        define SGL_LOG_WARN(...)               sgl_log(SGL_LOG_WARN_FLAG, __VA_ARGS__)
 407:../source/sgl_core.h **** #    else         
 408:../source/sgl_core.h **** #        define SGL_LOG_WARN(...)               do {} while(0)
 409:../source/sgl_core.h **** #    endif
 410:../source/sgl_core.h **** #endif
 411:../source/sgl_core.h **** 
 412:../source/sgl_core.h **** #ifndef SGL_LOG_ERROR
 413:../source/sgl_core.h **** #    if CONFIG_SGL_LOG_LEVEL <= SGL_LOG_LEVEL_ERROR
 414:../source/sgl_core.h **** #        define SGL_LOG_ERROR(...)              sgl_log(SGL_LOG_ERROR_FLAG, __VA_ARGS__)
 415:../source/sgl_core.h **** #    else        
 416:../source/sgl_core.h **** #        define SGL_LOG_ERROR(...)              do {} while(0)
 417:../source/sgl_core.h **** #    endif
 418:../source/sgl_core.h **** #endif
 419:../source/sgl_core.h **** 
 420:../source/sgl_core.h **** #ifndef SGL_LOG_USER
 421:../source/sgl_core.h **** #    if CONFIG_SGL_LOG_LEVEL <= SGL_LOG_LEVEL_USER
 422:../source/sgl_core.h **** #        define SGL_LOG_USER(...)               sgl_log(SGL_LOG_USER_FLAG,  __VA_ARGS__)
 423:../source/sgl_core.h **** #    else        
 424:../source/sgl_core.h **** #        define SGL_LOG_USER(...)               do {} while(0)
 425:../source/sgl_core.h **** #    endif
 426:../source/sgl_core.h **** #endif
 427:../source/sgl_core.h **** 
 428:../source/sgl_core.h **** #if CONFIG_SGL_LOG_LEVEL < SGL_LOG_LEVEL_NONE
 429:../source/sgl_core.h **** #    define SGL_LOG(...)                        sgl_log(__VA_ARGS__)
 430:../source/sgl_core.h **** #else        
 431:../source/sgl_core.h **** #    define SGL_LOG(...)                        do {} while(0)
 432:../source/sgl_core.h **** #endif
 433:../source/sgl_core.h **** 
 434:../source/sgl_core.h **** 
 435:../source/sgl_core.h **** #define SGL_ASSERT(condition)                   do {                                               
GAS LISTING C:\Users\lsw\AppData\Local\Temp\ccSZcLze.s 			page 11


 436:../source/sgl_core.h ****                                                     if (!(condition)) {                            
 437:../source/sgl_core.h ****                                                         sgl_assert_handler(__FILE__, __FUNCTION__, 
 438:../source/sgl_core.h ****                                                     }                                              
 439:../source/sgl_core.h ****                                                 } while(0)
 440:../source/sgl_core.h **** 
 441:../source/sgl_core.h **** 
 442:../source/sgl_core.h **** #else // if no define debug mode macro
 443:../source/sgl_core.h **** 
 444:../source/sgl_core.h **** #define SGL_LOG_NONE                            0
 445:../source/sgl_core.h **** #define SGL_LOG_TRACE(...)                      do {} while(0)
 446:../source/sgl_core.h **** #define SGL_LOG_INFO(...)                       do {} while(0)
 447:../source/sgl_core.h **** #define SGL_LOG_WARN(...)                       do {} while(0)
 448:../source/sgl_core.h **** #define SGL_LOG_ERROR(...)                      do {} while(0)
 449:../source/sgl_core.h **** #define SGL_LOG_USER(...)                       do {} while(0)
 450:../source/sgl_core.h **** #define SGL_LOG(...)                            do {} while(0)
 451:../source/sgl_core.h **** 
 452:../source/sgl_core.h **** #define SGL_ASSERT(condition)                   do {} while(0)
 453:../source/sgl_core.h **** 
 454:../source/sgl_core.h **** #endif
 455:../source/sgl_core.h **** 
 456:../source/sgl_core.h **** 
 457:../source/sgl_core.h **** #if CONFIG_SGL_DEBUG
 458:../source/sgl_core.h **** #define SGL_DEBUG_TRACE(...)                    sgl_log(SGL_DEBUG_TRACE_FLAG, __VA_ARGS__)
 459:../source/sgl_core.h **** #else
 460:../source/sgl_core.h **** #define SGL_DEBUG_TRACE(...)                    do {} while(0)
 461:../source/sgl_core.h **** #endif
 462:../source/sgl_core.h **** 
 463:../source/sgl_core.h **** 
 464:../source/sgl_core.h **** #define sgl_min(a, b)                           ((a) < (b) ? (a) : (b))
 465:../source/sgl_core.h **** #define sgl_min3(a, b, c)                       (sgl_min(sgl_min((a), (b)), (c)))
 466:../source/sgl_core.h **** #define sgl_min4(a, b, c, d)                    (sgl_min(sgl_min((a), (b)), sgl_min((c), (d))))
 467:../source/sgl_core.h ****       
 468:../source/sgl_core.h ****       
 469:../source/sgl_core.h **** #define sgl_max(a, b)                           ((a) > (b) ? (a) : (b))
 470:../source/sgl_core.h **** #define sgl_max3(a, b, c)                       (sgl_max(sgl_max((a), (b)), (c)))
 471:../source/sgl_core.h **** #define sgl_max4(a, b, c, d)                    (sgl_max(sgl_max((a), (b)), sgl_max((c), (d))))
 472:../source/sgl_core.h ****       
 473:../source/sgl_core.h **** #define sgl_clamp(val, min, max)                (sgl_max(min, (sgl_min((val), (max)))))
 474:../source/sgl_core.h ****       
 475:../source/sgl_core.h **** #define sgl_abs(x)                              ((x) > 0 ? (x) : (- (x)))
 476:../source/sgl_core.h ****       
 477:../source/sgl_core.h **** #define sgl_pow2(x)                             ((x) * (x))
 478:../source/sgl_core.h **** #define sgl_pow3(x)                             ((x) * (x) * (x))
 479:../source/sgl_core.h **** #define sgl_pow4(x)                             ((x) * (x) * (x) * (x))
 480:../source/sgl_core.h ****       
 481:../source/sgl_core.h **** #define sgl_is_pow2(x)                          (((x) & ((x) - 1)) == 0)
 482:../source/sgl_core.h **** #define sgl_is_even(x)                          (((x) & 1) == 0)
 483:../source/sgl_core.h **** #define sgl_is_odd(x)                           ((x) & 1)
 484:../source/sgl_core.h ****       
 485:../source/sgl_core.h **** #define sgl_swap(a, b)                          do { (*a) ^= (*b); (*b) ^= (*a); (*a) ^= (*b); } wh
 486:../source/sgl_core.h **** 
 487:../source/sgl_core.h **** 
 488:../source/sgl_core.h **** /**
 489:../source/sgl_core.h **** * @brief This enumeration type defines the alignment of controls in sgl,
 490:../source/sgl_core.h **** *        i.e. coordinate positions
 491:../source/sgl_core.h **** */
 492:../source/sgl_core.h **** typedef enum sgl_align_type {
GAS LISTING C:\Users\lsw\AppData\Local\Temp\ccSZcLze.s 			page 12


 493:../source/sgl_core.h ****     SGL_ALIGN_CENTER = 0,
 494:../source/sgl_core.h ****     SGL_ALIGN_TOP_MID,
 495:../source/sgl_core.h ****     SGL_ALIGN_TOP_LEFT,
 496:../source/sgl_core.h ****     SGL_ALIGN_TOP_RIGHT,
 497:../source/sgl_core.h ****     SGL_ALIGN_BOT_MID,
 498:../source/sgl_core.h ****     SGL_ALIGN_BOT_LEFT,
 499:../source/sgl_core.h ****     SGL_ALIGN_BOT_RIGHT,
 500:../source/sgl_core.h ****     SGL_ALIGN_LEFT_MID,
 501:../source/sgl_core.h ****     SGL_ALIGN_RIGHT_MID,
 502:../source/sgl_core.h ****     SGL_ALIGN_VERT_LEFT,
 503:../source/sgl_core.h ****     SGL_ALIGN_VERT_RIGHT,
 504:../source/sgl_core.h ****     SGL_ALIGN_VERT_MID,
 505:../source/sgl_core.h ****     SGL_ALIGN_HORIZ_TOP,
 506:../source/sgl_core.h ****     SGL_ALIGN_HORIZ_BOT,
 507:../source/sgl_core.h ****     SGL_ALIGN_HORIZ_MID,
 508:../source/sgl_core.h ****     SGL_ALIGN_NUM,
 509:../source/sgl_core.h **** 
 510:../source/sgl_core.h **** } sgl_align_type_t;
 511:../source/sgl_core.h **** 
 512:../source/sgl_core.h **** 
 513:../source/sgl_core.h **** /**
 514:../source/sgl_core.h **** * @brief This enumeration type defines the layout of controls in sgl,
 515:../source/sgl_core.h **** *        i.e. coordinate positions
 516:../source/sgl_core.h **** */
 517:../source/sgl_core.h **** typedef enum sgl_layout_type {
 518:../source/sgl_core.h ****     SGL_LAYOUT_NONE = 0,
 519:../source/sgl_core.h ****     SGL_LAYOUT_HORIZONTAL = 1,
 520:../source/sgl_core.h ****     SGL_LAYOUT_VERTICAL = 2,
 521:../source/sgl_core.h ****     SGL_LAYOUT_GRID = 3,
 522:../source/sgl_core.h ****     SGL_LAYOUT_NUM = 4,
 523:../source/sgl_core.h **** } sgl_layout_type_t;
 524:../source/sgl_core.h **** 
 525:../source/sgl_core.h **** 
 526:../source/sgl_core.h **** /**
 527:../source/sgl_core.h **** * @brief This structure is a structure that describes the position of the control,
 528:../source/sgl_core.h **** *        where x represents the position of the x coordinate, which is the row coordinate position,
 529:../source/sgl_core.h **** *        and y represents the position of the y coordinate, which is the column coordinate position
 530:../source/sgl_core.h **** *
 531:../source/sgl_core.h **** * @x: x coordinate
 532:../source/sgl_core.h **** * @y: y coordinate
 533:../source/sgl_core.h **** */
 534:../source/sgl_core.h **** typedef struct sgl_pos {
 535:../source/sgl_core.h ****     int16_t x;
 536:../source/sgl_core.h ****     int16_t y;
 537:../source/sgl_core.h **** } sgl_pos_t;
 538:../source/sgl_core.h **** 
 539:../source/sgl_core.h **** 
 540:../source/sgl_core.h **** /**
 541:../source/sgl_core.h **** * @brief This structure describes the size of the object, including width and height, in pixels
 542:../source/sgl_core.h **** *
 543:../source/sgl_core.h **** * @w: width
 544:../source/sgl_core.h **** * @h: height
 545:../source/sgl_core.h **** */
 546:../source/sgl_core.h **** typedef struct sgl_size {
 547:../source/sgl_core.h ****     int16_t w;
 548:../source/sgl_core.h ****     int16_t h;
 549:../source/sgl_core.h **** } sgl_size_t;
GAS LISTING C:\Users\lsw\AppData\Local\Temp\ccSZcLze.s 			page 13


 550:../source/sgl_core.h **** 
 551:../source/sgl_core.h **** 
 552:../source/sgl_core.h **** /**
 553:../source/sgl_core.h **** * @brief This structure describes a rectangular region, where x1 and y1 represent the coordinates
 554:../source/sgl_core.h **** *        of the upper left corner of the rectangle, and x2 and y2 represent the coordinates of the
 555:../source/sgl_core.h **** *        lower right corner of the rectangle
 556:../source/sgl_core.h **** *
 557:../source/sgl_core.h **** * @x1: x position left corner of the rectangle
 558:../source/sgl_core.h **** * @y1: y position left corner of the rectangle
 559:../source/sgl_core.h **** * @x2: x position right corner of the rectangle
 560:../source/sgl_core.h **** * @y2: y position right corner of the rectangle
 561:../source/sgl_core.h **** */
 562:../source/sgl_core.h **** typedef struct sgl_area {
 563:../source/sgl_core.h ****     int16_t x1;
 564:../source/sgl_core.h ****     int16_t y1;
 565:../source/sgl_core.h ****     int16_t x2;
 566:../source/sgl_core.h ****     int16_t y2;
 567:../source/sgl_core.h **** } sgl_area_t;
 568:../source/sgl_core.h **** 
 569:../source/sgl_core.h **** #define sgl_rect_t sgl_area_t
 570:../source/sgl_core.h **** 
 571:../source/sgl_core.h **** 
 572:../source/sgl_core.h **** /**
 573:../source/sgl_core.h ****  * @brief This structure defines a surface, which is a rectangular area of the screen.
 574:../source/sgl_core.h ****  * @x1:     x1 coordinate
 575:../source/sgl_core.h ****  * @y1:     y1 coordinate
 576:../source/sgl_core.h ****  * @x2:     x2 coordinate
 577:../source/sgl_core.h ****  * @y2:     y2 coordinate
 578:../source/sgl_core.h ****  * @buffer: buffer pointer
 579:../source/sgl_core.h ****  * @size:   bytes of buffer
 580:../source/sgl_core.h ****  * @w:      surf width
 581:../source/sgl_core.h ****  * @h:      surf height
 582:../source/sgl_core.h ****  * @dirty:  pointer to dirty area
 583:../source/sgl_core.h ****  */
 584:../source/sgl_core.h **** typedef struct sgl_surf {
 585:../source/sgl_core.h ****     int16_t      x1;
 586:../source/sgl_core.h ****     int16_t      y1;
 587:../source/sgl_core.h ****     int16_t      x2;
 588:../source/sgl_core.h ****     int16_t      y2;
 589:../source/sgl_core.h ****     sgl_color_t *buffer;
 590:../source/sgl_core.h ****     uint32_t     size;
 591:../source/sgl_core.h ****     uint16_t     w;
 592:../source/sgl_core.h ****     uint16_t     h;
 593:../source/sgl_core.h ****     sgl_area_t   *dirty;
 594:../source/sgl_core.h **** } sgl_surf_t;
 595:../source/sgl_core.h **** 
 596:../source/sgl_core.h **** 
 597:../source/sgl_core.h **** /**
 598:../source/sgl_core.h **** * @brief This structure defines an image, with a bitmap pointing to the
 599:../source/sgl_core.h **** *        bitmap of the image, while specifying the width and height of the image
 600:../source/sgl_core.h **** *
 601:../source/sgl_core.h **** * @width: pixmap width
 602:../source/sgl_core.h **** * @height: pixmap height
 603:../source/sgl_core.h **** * @format: bitmap format 0: no compression, 1:
 604:../source/sgl_core.h **** * @bitmap: point to image bitmap
 605:../source/sgl_core.h **** *          data: address for internal flash memory
 606:../source/sgl_core.h **** *          addr: address for external flash memory
GAS LISTING C:\Users\lsw\AppData\Local\Temp\ccSZcLze.s 			page 14


 607:../source/sgl_core.h **** */
 608:../source/sgl_core.h **** typedef struct sgl_pixmap {
 609:../source/sgl_core.h ****     uint32_t width : 13;
 610:../source/sgl_core.h ****     uint32_t height : 13;
 611:../source/sgl_core.h ****     uint32_t format : 6;
 612:../source/sgl_core.h ****     union {
 613:../source/sgl_core.h ****         const uint8_t *data;
 614:../source/sgl_core.h ****         const size_t  addr;
 615:../source/sgl_core.h ****     } bitmap;
 616:../source/sgl_core.h **** } sgl_pixmap_t;
 617:../source/sgl_core.h **** 
 618:../source/sgl_core.h **** 
 619:../source/sgl_core.h **** /**
 620:../source/sgl_core.h ****  * @brief This structure defines an icon, with a bitmap pointing to the
 621:../source/sgl_core.h ****  * @width: pixmap width
 622:../source/sgl_core.h ****  * @height: pixmap height
 623:../source/sgl_core.h ****  * @bitmap: point to icon bitmap
 624:../source/sgl_core.h ****  */
 625:../source/sgl_core.h **** typedef struct sgl_icon_pixmap {
 626:../source/sgl_core.h ****     uint16_t       width;
 627:../source/sgl_core.h ****     uint16_t       height;
 628:../source/sgl_core.h ****     const uint8_t *bitmap;
 629:../source/sgl_core.h **** } sgl_icon_pixmap_t;
 630:../source/sgl_core.h **** 
 631:../source/sgl_core.h **** 
 632:../source/sgl_core.h **** /**
 633:../source/sgl_core.h **** * @brief Font index table structure, used to describe the bitmap index positions of
 634:../source/sgl_core.h **** *        all characters in a font, accelerating the search process
 635:../source/sgl_core.h **** *
 636:../source/sgl_core.h **** * @bitmap_index: point to bitmap index of font
 637:../source/sgl_core.h **** * @adv_w: advance width of character width
 638:../source/sgl_core.h **** * @box_h: height of font
 639:../source/sgl_core.h **** * @box_w: width of font
 640:../source/sgl_core.h **** * @ofs_x: offset of character x position
 641:../source/sgl_core.h **** * @ofs_y: offset of character y position
 642:../source/sgl_core.h **** */
 643:../source/sgl_core.h **** typedef struct sgl_font_table {
 644:../source/sgl_core.h **** #if (CONFIG_SGL_FONT_SMALL_TABLE)
 645:../source/sgl_core.h ****     const uint16_t bitmap_index;
 646:../source/sgl_core.h ****     const uint16_t adv_w;
 647:../source/sgl_core.h ****     const uint8_t  box_h;
 648:../source/sgl_core.h ****     const uint8_t  box_w;
 649:../source/sgl_core.h ****     const int8_t   ofs_x;
 650:../source/sgl_core.h ****     const int8_t   ofs_y;
 651:../source/sgl_core.h **** #else
 652:../source/sgl_core.h ****     const uint32_t bitmap_index;
 653:../source/sgl_core.h ****     const uint16_t adv_w;
 654:../source/sgl_core.h ****     const uint16_t box_h;
 655:../source/sgl_core.h ****     const uint16_t box_w;
 656:../source/sgl_core.h ****     const int8_t   ofs_x;
 657:../source/sgl_core.h ****     const int8_t   ofs_y;
 658:../source/sgl_core.h **** #endif
 659:../source/sgl_core.h **** } sgl_font_table_t;
 660:../source/sgl_core.h **** 
 661:../source/sgl_core.h **** 
 662:../source/sgl_core.h **** /**
 663:../source/sgl_core.h ****  * @brief This structure defines a font unicode information, which is a collection of fonts
GAS LISTING C:\Users\lsw\AppData\Local\Temp\ccSZcLze.s 			page 15


 664:../source/sgl_core.h ****  * @offset: offset of unicode for unicode list
 665:../source/sgl_core.h ****  * @len: length of unicode list
 666:../source/sgl_core.h ****  * @list: point to unicode list
 667:../source/sgl_core.h ****  * @tab_offset: offset of font table
 668:../source/sgl_core.h ****  */
 669:../source/sgl_core.h **** typedef struct sgl_font_unicode {
 670:../source/sgl_core.h ****     const uint32_t offset;
 671:../source/sgl_core.h ****     const uint32_t len;
 672:../source/sgl_core.h ****     const uint32_t *list;
 673:../source/sgl_core.h ****     const uint32_t tab_offset;
 674:../source/sgl_core.h **** } sgl_font_unicode_t;
 675:../source/sgl_core.h **** 
 676:../source/sgl_core.h **** 
 677:../source/sgl_core.h **** /**
 678:../source/sgl_core.h **** * @brief A structure used to describe information about a font, Defining a font set requires
 679:../source/sgl_core.h **** *        the use of this structure to describe relevant information
 680:../source/sgl_core.h **** *
 681:../source/sgl_core.h **** * @bitmap: point to bitmap of font
 682:../source/sgl_core.h **** * @table: point to struct sgl_font_table
 683:../source/sgl_core.h **** * @font_table_size: size of struct sgl_font_table
 684:../source/sgl_core.h **** * @font_height: height of font
 685:../source/sgl_core.h **** * @unicode: point to struct sgl_font_unicode struct
 686:../source/sgl_core.h **** * @unicode_num: number of unicode parts
 687:../source/sgl_core.h **** * @base_line: base line of font
 688:../source/sgl_core.h **** * @bpp: The anti aliasing level of the font, only support 2, 4
 689:../source/sgl_core.h **** * @compress: compress flag, 0: no compress, 1: compress
 690:../source/sgl_core.h **** */
 691:../source/sgl_core.h **** typedef struct sgl_font {
 692:../source/sgl_core.h ****     const uint8_t  *bitmap;
 693:../source/sgl_core.h ****     const sgl_font_table_t  *table;
 694:../source/sgl_core.h ****     const uint16_t  font_table_size;
 695:../source/sgl_core.h ****     const uint16_t  font_height;
 696:../source/sgl_core.h ****     const sgl_font_unicode_t *unicode;
 697:../source/sgl_core.h ****     const uint32_t  unicode_num;
 698:../source/sgl_core.h ****     const int16_t   base_line;
 699:../source/sgl_core.h ****     const uint8_t   bpp;
 700:../source/sgl_core.h ****     const uint8_t   compress;
 701:../source/sgl_core.h **** } sgl_font_t;
 702:../source/sgl_core.h **** 
 703:../source/sgl_core.h **** 
 704:../source/sgl_core.h **** typedef struct sgl_obj {
 705:../source/sgl_core.h ****     sgl_area_t      coords;
 706:../source/sgl_core.h ****     void            (*construct_fn)(sgl_surf_t *surf, struct sgl_obj *obj, sgl_area_t *area);
 707:../source/sgl_core.h ****     struct sgl_obj  *parent;
 708:../source/sgl_core.h ****     struct sgl_obj  *child;
 709:../source/sgl_core.h ****     struct sgl_obj  *sibling;
 710:../source/sgl_core.h ****     uint8_t         destroyed : 1;
 711:../source/sgl_core.h ****     uint8_t         dirty : 1;
 712:../source/sgl_core.h ****     uint8_t         hide : 1;
 713:../source/sgl_core.h ****     uint8_t         needinit : 1;
 714:../source/sgl_core.h ****     uint8_t         page : 1;
 715:../source/sgl_core.h ****     uint8_t         layout : 2;
 716:../source/sgl_core.h ****     uint8_t         border;
 717:../source/sgl_core.h ****     uint8_t         radius;
 718:../source/sgl_core.h **** } sgl_obj_t;
 719:../source/sgl_core.h **** 
 720:../source/sgl_core.h **** 
GAS LISTING C:\Users\lsw\AppData\Local\Temp\ccSZcLze.s 			page 16


 721:../source/sgl_core.h **** /**
 722:../source/sgl_core.h ****  * @brief Represents a page object in the SGL graphics system.
 723:../source/sgl_core.h ****  *
 724:../source/sgl_core.h ****  * An sgl_page_t encapsulates a complete, renderable UI page or screen.
 725:../source/sgl_core.h ****  * It combines a base graphical object, a drawing surface, a background color,
 726:../source/sgl_core.h ****  * and an optional background pixmap. Pages serve as top-level containers
 727:../source/sgl_core.h ****  * for UI elements and can be managed by a page manager or display stack.
 728:../source/sgl_core.h ****  *
 729:../source/sgl_core.h ****  * Members:
 730:../source/sgl_core.h ****  * - obj      : Base object (inherits sgl_obj_t), providing position, size, visibility, etc.
 731:../source/sgl_core.h ****  * - color    : Default background color used when no pixmap is set.
 732:../source/sgl_core.h ****  * - pixmap   : Optional pointer to a background pixmap. If non-NULL, it typically overrides 'color
 733:../source/sgl_core.h ****  *              as the background content during rendering (behavior depends on flush/render logic)
 734:../source/sgl_core.h ****  */
 735:../source/sgl_core.h **** typedef struct sgl_page {
 736:../source/sgl_core.h ****     sgl_obj_t          obj;
 737:../source/sgl_core.h ****     sgl_obj_t          *tail;
 738:../source/sgl_core.h ****     sgl_color_t        color;
 739:../source/sgl_core.h ****     const sgl_pixmap_t *pixmap;
 740:../source/sgl_core.h **** } sgl_page_t;
 741:../source/sgl_core.h **** 
 742:../source/sgl_core.h **** 
 743:../source/sgl_core.h **** /**
 744:../source/sgl_core.h ****  * @brief sgl framebuffer information struct
 745:../source/sgl_core.h ****  * @buffer: framebuffer, this specify the memory address of the framebuffer
 746:../source/sgl_core.h ****  * @buffer_size: framebuffer size
 747:../source/sgl_core.h ****  * @xres: x resolution
 748:../source/sgl_core.h ****  * @yres: y resolution
 749:../source/sgl_core.h ****  * @flush_area: flush area callback function pointer, return the finished flag
 750:../source/sgl_core.h ****  */
 751:../source/sgl_core.h **** typedef struct sgl_fbinfo {
 752:../source/sgl_core.h ****     void      *buffer[SGL_DRAW_BUFFER_MAX];
 753:../source/sgl_core.h ****     uint32_t   buffer_size;
 754:../source/sgl_core.h ****     int16_t    xres;
 755:../source/sgl_core.h ****     int16_t    yres;
 756:../source/sgl_core.h ****     void       (*flush_area)(sgl_area_t *area, sgl_color_t *src);
 757:../source/sgl_core.h **** } sgl_fbinfo_t;
 758:../source/sgl_core.h **** 
 759:../source/sgl_core.h **** 
 760:../source/sgl_core.h **** /**
 761:../source/sgl_core.h ****  * @brief sgl framebuffer device struct
 762:../source/sgl_core.h ****  * @fbinfo: framebuffer information, that specify the memory address of the framebuffer and resolut
 763:../source/sgl_core.h ****  * @surf: Drawing surface associated with this page; defines the target buffer or area for renderin
 764:../source/sgl_core.h ****  * @dirty_num: dirty area number
 765:../source/sgl_core.h ****  * @fb_swap: framebuffer swap flag
 766:../source/sgl_core.h ****  * @fb_status: framebuffer status flag
 767:../source/sgl_core.h ****  * @dirty: dirty area pool
 768:../source/sgl_core.h ****  * @page: current page
 769:../source/sgl_core.h ****  */
 770:../source/sgl_core.h **** typedef struct sgl_fbdev {
 771:../source/sgl_core.h ****     sgl_fbinfo_t      fbinfo;
 772:../source/sgl_core.h ****     sgl_surf_t        surf;
 773:../source/sgl_core.h ****     sgl_area_t        dirty;
 774:../source/sgl_core.h ****     uint8_t           fb_swap;
 775:../source/sgl_core.h ****     volatile uint8_t  fb_status;
 776:../source/sgl_core.h ****     sgl_obj_t         *active;
 777:../source/sgl_core.h **** } sgl_fbdev_t;
GAS LISTING C:\Users\lsw\AppData\Local\Temp\ccSZcLze.s 			page 17


 778:../source/sgl_core.h **** 
 779:../source/sgl_core.h **** 
 780:../source/sgl_core.h **** /**
 781:../source/sgl_core.h ****  * @brief sgl log print device struct
 782:../source/sgl_core.h ****  * @logdev: log print callback function pointer
 783:../source/sgl_core.h ****  * @tick_ms: tick milliseconds
 784:../source/sgl_core.h ****  */
 785:../source/sgl_core.h **** typedef struct sgl_system {
 786:../source/sgl_core.h ****     void               (*logdev)(const char *str);
 787:../source/sgl_core.h ****     sgl_fbdev_t        fbdev;
 788:../source/sgl_core.h ****     volatile uint32_t  tick_ms;
 789:../source/sgl_core.h **** #if (CONFIG_SGL_FBDEV_ROTATION != 0)
 790:../source/sgl_core.h ****     sgl_color_t        *rotation;
 791:../source/sgl_core.h **** #endif
 792:../source/sgl_core.h ****     uint8_t            mem_pool[CONFIG_SGL_HEAP_SIZE];
 793:../source/sgl_core.h **** } sgl_system_t;
 794:../source/sgl_core.h **** 
 795:../source/sgl_core.h **** 
 796:../source/sgl_core.h **** #if CONFIG_SGL_DEBUG
 797:../source/sgl_core.h **** /**
 798:../source/sgl_core.h ****  * @brief ebraid log printing function, used to print debugging information. Note that this functio
 799:../source/sgl_core.h ****  *        should only be called in debugging mode, otherwise it may affect system real-time 
 800:../source/sgl_core.h ****  *        performance due to long execution time
 801:../source/sgl_core.h ****  * 
 802:../source/sgl_core.h ****  * @param level:  log level, such as, INFO, USER...
 803:../source/sgl_core.h ****  * @param format:  log content
 804:../source/sgl_core.h ****  * 
 805:../source/sgl_core.h ****  * @return none
 806:../source/sgl_core.h **** */
 807:../source/sgl_core.h **** void sgl_log(const char *level, const char * format, ...);
 808:../source/sgl_core.h **** 
 809:../source/sgl_core.h **** 
 810:../source/sgl_core.h **** /**
 811:../source/sgl_core.h ****  * @brief ebraid assert handler, used to handle assertions
 812:../source/sgl_core.h ****  * 
 813:../source/sgl_core.h ****  * @param file:  file name
 814:../source/sgl_core.h ****  * @param func:  function name
 815:../source/sgl_core.h ****  * @param line:  line number
 816:../source/sgl_core.h ****  * 
 817:../source/sgl_core.h ****  * @return none
 818:../source/sgl_core.h **** */
 819:../source/sgl_core.h **** void sgl_assert_handler(const char *file, const char *func, int line);
 820:../source/sgl_core.h **** #endif // CONFIG_SGL_DEBUG
 821:../source/sgl_core.h **** 
 822:../source/sgl_core.h **** 
 823:../source/sgl_core.h **** /**
 824:../source/sgl_core.h ****  * @brief Calculate the sine of an angle
 825:../source/sgl_core.h ****  * @param angle: Angle in degrees such 0-359
 826:../source/sgl_core.h ****  * @return sine of the angle from sin0_90_table
 827:../source/sgl_core.h ****  */
 828:../source/sgl_core.h **** int32_t sgl_sin(int16_t angle);
 829:../source/sgl_core.h **** 
 830:../source/sgl_core.h **** 
 831:../source/sgl_core.h **** /**
 832:../source/sgl_core.h ****  * @brief Calculate the cos of an angle
 833:../source/sgl_core.h ****  * @param angle: Angle in degrees such 0-359
 834:../source/sgl_core.h ****  * @return cos of the angle from sin0_90_table
GAS LISTING C:\Users\lsw\AppData\Local\Temp\ccSZcLze.s 			page 18


 835:../source/sgl_core.h ****  */
 836:../source/sgl_core.h **** static inline int32_t sgl_cos(int16_t angle)
 837:../source/sgl_core.h **** {
 838:../source/sgl_core.h ****     return sgl_sin(angle + 90);
 839:../source/sgl_core.h **** }
 840:../source/sgl_core.h **** 
 841:../source/sgl_core.h **** 
 842:../source/sgl_core.h **** /**
 843:../source/sgl_core.h ****  * @brief  Calculate x number square root
 844:../source/sgl_core.h ****  * @param  x: x number
 845:../source/sgl_core.h ****  * @retval x number square root
 846:../source/sgl_core.h ****  */
 847:../source/sgl_core.h **** uint16_t sgl_sqrt(uint32_t x);
 848:../source/sgl_core.h **** 
 849:../source/sgl_core.h **** 
 850:../source/sgl_core.h **** /**
 851:../source/sgl_core.h ****  * @brief Calculate error of the square root for a number.
 852:../source/sgl_core.h ****  * @param x The number to calculate the error for.
 853:../source/sgl_core.h ****  * @return The error of the square root. [0 ~ 255]
 854:../source/sgl_core.h ****  */
 855:../source/sgl_core.h **** uint8_t sgl_sqrt_error(uint32_t x);
 856:../source/sgl_core.h **** 
 857:../source/sgl_core.h **** 
 858:../source/sgl_core.h **** /**
 859:../source/sgl_core.h ****  * @brief Calculate the angle based on the x and y coordinates. This function is a fast algorithm
 860:../source/sgl_core.h ****  *         implementation, with reference address: www.RomanBlack.com (Fast XY vector to integer de
 861:../source/sgl_core.h ****  *
 862:../source/sgl_core.h ****  * @param x:  The x coordinate on a circle
 863:../source/sgl_core.h ****  * @param y:  The y coordinate on a circle
 864:../source/sgl_core.h ****  * @return angle 
 865:../source/sgl_core.h ****  * @note return angle [-32767 ~ 32767]
 866:../source/sgl_core.h ****  */
 867:../source/sgl_core.h **** int32_t sgl_atan2_raw(int x, int y);
 868:../source/sgl_core.h **** 
 869:../source/sgl_core.h **** 
 870:../source/sgl_core.h **** /**
 871:../source/sgl_core.h ****  * @brief Calculate the angle based on the x and y coordinates. This function is a fast algorithm 
 872:../source/sgl_core.h ****  *        implementation, with reference address: www.RomanBlack.com (Fast XY vector to integer deg
 873:../source/sgl_core.h ****  * 
 874:../source/sgl_core.h ****  * @param x:  The x coordinate on a circle
 875:../source/sgl_core.h ****  * @param y:  The y coordinate on a circle
 876:../source/sgl_core.h ****  * @return angle
 877:../source/sgl_core.h ****  * @note return angle [0 ~ 359]
 878:../source/sgl_core.h **** */
 879:../source/sgl_core.h **** uint16_t sgl_atan2_angle(int x, int y);
 880:../source/sgl_core.h **** 
 881:../source/sgl_core.h **** 
 882:../source/sgl_core.h **** /**
 883:../source/sgl_core.h ****  * @brief Split the length into n parts, with the weight of each part.
 884:../source/sgl_core.h ****  * @param weight: The weight of each part.
 885:../source/sgl_core.h ****  * @param count: The count of parts.
 886:../source/sgl_core.h ****  * @param length: The length to split.
 887:../source/sgl_core.h ****  * @param gap: The gap between each part.
 888:../source/sgl_core.h ****  * @param out: The length of each part.
 889:../source/sgl_core.h ****  * @note The error accumulation method of Bresenham's algorithm
 890:../source/sgl_core.h ****  */
 891:../source/sgl_core.h **** void sgl_split_len(const uint8_t *weight, int count, int16_t length, int16_t gap, int16_t *out);
GAS LISTING C:\Users\lsw\AppData\Local\Temp\ccSZcLze.s 			page 19


 892:../source/sgl_core.h **** 
 893:../source/sgl_core.h **** 
 894:../source/sgl_core.h **** /**
 895:../source/sgl_core.h ****  * @brief Split the length into n parts, with the weight of each part.
 896:../source/sgl_core.h ****  * @param length: The length to split.
 897:../source/sgl_core.h ****  * @param count: The count of parts.
 898:../source/sgl_core.h ****  * @param gap: The gap between each part.
 899:../source/sgl_core.h ****  * @param out: The length of each part.
 900:../source/sgl_core.h ****  * @note The average method of Bresenham's algorithm
 901:../source/sgl_core.h ****  */
 902:../source/sgl_core.h **** void sgl_split_len_avg(int length, int count, int16_t gap, int16_t *out);
 903:../source/sgl_core.h **** 
 904:../source/sgl_core.h **** 
 905:../source/sgl_core.h **** /**
 906:../source/sgl_core.h ****  * @brief Calculate whether the x and y coordinates have a component.
 907:../source/sgl_core.h ****  * @param x:  The x coordinate on a circle
 908:../source/sgl_core.h ****  * @param y:  The y coordinate on a circle
 909:../source/sgl_core.h ****  * @param xv: The x coordinate of the vector
 910:../source/sgl_core.h ****  * @param yv: The y coordinate of the vector
 911:../source/sgl_core.h ****  * @return 1: The x and y coordinates have a component. 0: The x and y coordinates do not have a co
 912:../source/sgl_core.h ****  */
 913:../source/sgl_core.h **** static inline int sgl_xy_has_component( int x, int y, int xv, int yv)
 914:../source/sgl_core.h **** {
 915:../source/sgl_core.h ****     return ((x != 0 && ((xv ^ x) < 0)) || (y != 0 && ((yv ^ y) < 0)));
 916:../source/sgl_core.h **** }
 917:../source/sgl_core.h **** 
 918:../source/sgl_core.h **** 
 919:../source/sgl_core.h **** /**
 920:../source/sgl_core.h ****  * @brief Generate a random number.
 921:../source/sgl_core.h ****  * @param none
 922:../source/sgl_core.h ****  * @return Random number.
 923:../source/sgl_core.h ****  * @note The random number generator is in the range of [0, 32767].
 924:../source/sgl_core.h ****  */
 925:../source/sgl_core.h **** int16_t sgl_rand(void);
 926:../source/sgl_core.h **** 
 927:../source/sgl_core.h **** 
 928:../source/sgl_core.h **** /**
 929:../source/sgl_core.h ****  * @brief Set the seed of the random number generator.
 930:../source/sgl_core.h ****  * @param seed: The seed of the random number generator.
 931:../source/sgl_core.h ****  * @return none
 932:../source/sgl_core.h ****  */
 933:../source/sgl_core.h **** void sgl_srand(unsigned int seed);
 934:../source/sgl_core.h **** 
 935:../source/sgl_core.h **** 
 936:../source/sgl_core.h **** /**
 937:../source/sgl_core.h ****  * @brief for each child object of parent
 938:../source/sgl_core.h ****  * @param _child: pointer of child object
 939:../source/sgl_core.h ****  * @param parent: pointer of parent object
 940:../source/sgl_core.h ****  */
 941:../source/sgl_core.h **** #define  sgl_obj_for_each_child(_child, parent)             for (_child = parent->child; _child != 
 942:../source/sgl_core.h **** 
 943:../source/sgl_core.h **** 
 944:../source/sgl_core.h **** /**
 945:../source/sgl_core.h ****  * @brief for each child object of parent safely
 946:../source/sgl_core.h ****  * @param _child: pointer of child object
 947:../source/sgl_core.h ****  * @param parent: pointer of parent object
 948:../source/sgl_core.h ****  */
GAS LISTING C:\Users\lsw\AppData\Local\Temp\ccSZcLze.s 			page 20


 949:../source/sgl_core.h **** #define sgl_obj_for_each_child_safe(_child, n, parent)      for (_child = parent->child, n = (_chil
 950:../source/sgl_core.h ****                                                                  _child = n, n = (_child ? _child->
 951:../source/sgl_core.h **** 
 952:../source/sgl_core.h **** 
 953:../source/sgl_core.h **** 
 954:../source/sgl_core.h **** /* dont to use this variable, it is used internally by sgl library */
 955:../source/sgl_core.h **** extern sgl_system_t sgl_system;
 956:../source/sgl_core.h **** 
 957:../source/sgl_core.h **** 
 958:../source/sgl_core.h **** /**
 959:../source/sgl_core.h ****  * @brief register the frame buffer device
 960:../source/sgl_core.h ****  * @param fbinfo the frame buffer device information
 961:../source/sgl_core.h ****  * @return int, 0 if success, -1 if failed
 962:../source/sgl_core.h ****  * @note you must check the result of this function
 963:../source/sgl_core.h ****  */
 964:../source/sgl_core.h **** int sgl_fbdev_register(sgl_fbinfo_t *fbinfo);
 965:../source/sgl_core.h **** 
 966:../source/sgl_core.h **** 
 967:../source/sgl_core.h **** /**
 968:../source/sgl_core.h ****  * @brief set framebuffer device flush ready
 969:../source/sgl_core.h ****  * @param none
 970:../source/sgl_core.h ****  * @return none
 971:../source/sgl_core.h ****  * @note this function must be called in DMA callback function after framebuffer device flush
 972:../source/sgl_core.h ****  */
 973:../source/sgl_core.h **** static inline void sgl_fbdev_flush_ready(void)
 974:../source/sgl_core.h **** {
 975:../source/sgl_core.h ****     sgl_system.fbdev.fb_status |= (1 << sgl_system.fbdev.fb_swap);
 976:../source/sgl_core.h **** 
 977:../source/sgl_core.h ****     /* change to next framebuffer */
 978:../source/sgl_core.h ****     if (sgl_system.fbdev.fbinfo.buffer[1] != NULL) {
 979:../source/sgl_core.h ****         sgl_system.fbdev.surf.buffer = (sgl_color_t *)sgl_system.fbdev.fbinfo.buffer[sgl_system.fbd
 980:../source/sgl_core.h ****     }
 981:../source/sgl_core.h **** }
 982:../source/sgl_core.h **** 
 983:../source/sgl_core.h **** 
 984:../source/sgl_core.h **** /**
 985:../source/sgl_core.h ****  * @brief check if framebuffer device buffer need to wait ready
 986:../source/sgl_core.h ****  * @param fbdev point to the framebuffer device
 987:../source/sgl_core.h ****  * @return bool true if need to wait ready, false if not
 988:../source/sgl_core.h ****  */
 989:../source/sgl_core.h **** static inline bool sgl_fbdev_flush_wait_ready(sgl_fbdev_t *fbdev)
 990:../source/sgl_core.h **** {
 991:../source/sgl_core.h ****     return (fbdev->fb_status & (1 << sgl_system.fbdev.fb_swap)) == 0;
 992:../source/sgl_core.h **** }
 993:../source/sgl_core.h **** 
 994:../source/sgl_core.h **** 
 995:../source/sgl_core.h **** /**
 996:../source/sgl_core.h ****  * @brief get framebuffer device buffer resolution width
 997:../source/sgl_core.h ****  * @param none
 998:../source/sgl_core.h ****  * @return framebuffer device buffer resolution width
 999:../source/sgl_core.h ****  */
1000:../source/sgl_core.h **** static inline int16_t sgl_fbdev_resolution_width(void)
1001:../source/sgl_core.h **** {
1002:../source/sgl_core.h ****     return sgl_system.fbdev.fbinfo.xres;
1003:../source/sgl_core.h **** }
1004:../source/sgl_core.h **** 
1005:../source/sgl_core.h **** /**
GAS LISTING C:\Users\lsw\AppData\Local\Temp\ccSZcLze.s 			page 21


1006:../source/sgl_core.h ****  * @brief get framebuffer device buffer resolution height
1007:../source/sgl_core.h ****  * @param none
1008:../source/sgl_core.h ****  * @return framebuffer device buffer resolution height
1009:../source/sgl_core.h ****  */
1010:../source/sgl_core.h **** #define  SGL_SCREEN_WIDTH  sgl_fbdev_resolution_width()
1011:../source/sgl_core.h **** 
1012:../source/sgl_core.h **** 
1013:../source/sgl_core.h **** /**
1014:../source/sgl_core.h ****  * @brief get framebuffer device buffer resolution height
1015:../source/sgl_core.h ****  * @param none
1016:../source/sgl_core.h ****  * @return framebuffer device buffer resolution height
1017:../source/sgl_core.h ****  */
1018:../source/sgl_core.h **** static inline int16_t sgl_fbdev_resolution_height(void)
1019:../source/sgl_core.h **** {
1020:../source/sgl_core.h ****     return sgl_system.fbdev.fbinfo.yres;
1021:../source/sgl_core.h **** }
1022:../source/sgl_core.h **** 
1023:../source/sgl_core.h **** /**
1024:../source/sgl_core.h ****  * @brief get framebuffer device buffer resolution width
1025:../source/sgl_core.h ****  * @param none
1026:../source/sgl_core.h ****  * @return framebuffer device buffer resolution width
1027:../source/sgl_core.h ****  */
1028:../source/sgl_core.h **** #define  SGL_SCREEN_HEIGHT  sgl_fbdev_resolution_height()
1029:../source/sgl_core.h **** 
1030:../source/sgl_core.h **** 
1031:../source/sgl_core.h **** /**
1032:../source/sgl_core.h ****  * @brief get framebuffer device buffer address
1033:../source/sgl_core.h ****  * @param none
1034:../source/sgl_core.h ****  * @return framebuffer device buffer address
1035:../source/sgl_core.h ****  */
1036:../source/sgl_core.h **** static inline void* sgl_fbdev_buffer_address(void)
1037:../source/sgl_core.h **** {
1038:../source/sgl_core.h ****     return sgl_system.fbdev.fbinfo.buffer[0];
1039:../source/sgl_core.h **** }
1040:../source/sgl_core.h **** 
1041:../source/sgl_core.h **** 
1042:../source/sgl_core.h **** /**
1043:../source/sgl_core.h ****  * @brief framebuffer device flush function
1044:../source/sgl_core.h ****  * @param area [in] area of flush, that is x1, y1, x2, y2: area of flush
1045:../source/sgl_core.h ****  *                  area contains the coordinates of the area to be flushed
1046:../source/sgl_core.h ****  *                  - x1: x coordinate of the top left corner of the area
1047:../source/sgl_core.h ****  *                  - y1: y coordinate of the top left corner of the area
1048:../source/sgl_core.h ****  *                  - x2: x coordinate of the bottom right corner of the area
1049:../source/sgl_core.h ****  *                  - y2: y coordinate of the bottom right corner of the area
1050:../source/sgl_core.h ****  * @param src [in] source color
1051:../source/sgl_core.h ****  */
1052:../source/sgl_core.h **** static inline void sgl_fbdev_flush_area(sgl_area_t *area, sgl_color_t *src)
1053:../source/sgl_core.h **** {
1054:../source/sgl_core.h **** #if CONFIG_SGL_COLOR16_SWAP
1055:../source/sgl_core.h ****     uint16_t w = area->x2 - area->x1 + 1;
1056:../source/sgl_core.h ****     uint16_t h = area->y2 - area->y1 + 1;
1057:../source/sgl_core.h ****     uint16_t *dst = (uint16_t *)src;
1058:../source/sgl_core.h ****     for (size_t i = 0; i < (size_t)(w * h); i++) {
1059:../source/sgl_core.h ****         dst[i] = (dst[i] << 8) | (dst[i] >> 8);
1060:../source/sgl_core.h ****     }
1061:../source/sgl_core.h **** #endif
1062:../source/sgl_core.h **** 
GAS LISTING C:\Users\lsw\AppData\Local\Temp\ccSZcLze.s 			page 22


1063:../source/sgl_core.h **** #if (CONFIG_SGL_FBDEV_ROTATION != 0)
1064:../source/sgl_core.h ****     uint16_t width = area->x2 - area->x1 + 1;
1065:../source/sgl_core.h ****     uint16_t height = area->y2 - area->y1 + 1;
1066:../source/sgl_core.h ****     sgl_area_t area_dst = *area;
1067:../source/sgl_core.h **** 
1068:../source/sgl_core.h **** #if (CONFIG_SGL_FBDEV_ROTATION == 90)
1069:../source/sgl_core.h ****     for (uint16_t y = 0; y < height; y++) {
1070:../source/sgl_core.h ****         for (uint16_t x = 0; x < width; x++) {
1071:../source/sgl_core.h ****             size_t src_idx = y * width + x;
1072:../source/sgl_core.h ****             size_t dst_idx = (width - 1 - x) * height + y;
1073:../source/sgl_core.h ****             sgl_system.rotation[dst_idx] = src[src_idx];
1074:../source/sgl_core.h ****         }
1075:../source/sgl_core.h ****     }
1076:../source/sgl_core.h **** 
1077:../source/sgl_core.h ****     area_dst.x1 = area->y1;
1078:../source/sgl_core.h ****     area_dst.y1 = SGL_SCREEN_WIDTH - area->x2 - 1;
1079:../source/sgl_core.h ****     area_dst.x2 = sgl_min(area->y2, SGL_SCREEN_HEIGHT - 1);
1080:../source/sgl_core.h ****     area_dst.y2 = sgl_min(SGL_SCREEN_WIDTH - area->x1 - 1, SGL_SCREEN_WIDTH - 1);
1081:../source/sgl_core.h **** 
1082:../source/sgl_core.h **** #elif (CONFIG_SGL_FBDEV_ROTATION == 180)
1083:../source/sgl_core.h ****     size_t total = (size_t)(width * height);
1084:../source/sgl_core.h ****     for (size_t i = 0; i < total; i++) {
1085:../source/sgl_core.h ****         sgl_system.rotation[i] = src[total - 1 - i];
1086:../source/sgl_core.h ****     }
1087:../source/sgl_core.h **** 
1088:../source/sgl_core.h ****     area_dst.x1 = SGL_SCREEN_WIDTH  - area->x2 - 1;
1089:../source/sgl_core.h ****     area_dst.y1 = SGL_SCREEN_HEIGHT - area->y2 - 1;
1090:../source/sgl_core.h ****     area_dst.x2 = SGL_SCREEN_WIDTH  - area->x1 - 1;
1091:../source/sgl_core.h ****     area_dst.y2 = SGL_SCREEN_HEIGHT - area->y1 - 1;
1092:../source/sgl_core.h **** 
1093:../source/sgl_core.h **** #elif (CONFIG_SGL_FBDEV_ROTATION == 270)
1094:../source/sgl_core.h ****     for (uint16_t y = 0; y < height; y++) {
1095:../source/sgl_core.h ****         for (uint16_t x = 0; x < width; x++) {
1096:../source/sgl_core.h ****             size_t src_idx = y * width + x;
1097:../source/sgl_core.h ****             size_t dst_idx = x * height + (height - 1 - y);
1098:../source/sgl_core.h ****             sgl_system.rotation[dst_idx] = src[src_idx];
1099:../source/sgl_core.h ****         }
1100:../source/sgl_core.h ****     }
1101:../source/sgl_core.h **** 
1102:../source/sgl_core.h ****     area_dst.x1 = SGL_SCREEN_HEIGHT - area->y2 - 1;
1103:../source/sgl_core.h ****     area_dst.y1 = area->x1;
1104:../source/sgl_core.h ****     area_dst.x2 = sgl_min(area_dst.x1 + height - 1, SGL_SCREEN_HEIGHT - 1);
1105:../source/sgl_core.h ****     area_dst.y2 = sgl_min(area_dst.y1 + width - 1, SGL_SCREEN_WIDTH - 1);
1106:../source/sgl_core.h **** #else
1107:../source/sgl_core.h **** #error "CONFIG_SGL_FBDEV_ROTATION is invalid rotation value (only 0/90/180/270 supported)"
1108:../source/sgl_core.h **** #endif
1109:../source/sgl_core.h ****     sgl_system.fbdev.fbinfo.flush_area(&area_dst, sgl_system.rotation);
1110:../source/sgl_core.h **** #else
1111:../source/sgl_core.h ****     sgl_system.fbdev.fbinfo.flush_area(area, src);
1112:../source/sgl_core.h **** #endif
1113:../source/sgl_core.h **** }
1114:../source/sgl_core.h **** 
1115:../source/sgl_core.h **** 
1116:../source/sgl_core.h **** /**
1117:../source/sgl_core.h ****  * @brief register log output device
1118:../source/sgl_core.h ****  * @param log_puts log output function
1119:../source/sgl_core.h ****  * @return none
GAS LISTING C:\Users\lsw\AppData\Local\Temp\ccSZcLze.s 			page 23


1120:../source/sgl_core.h ****  * @note if you want to use print log into uart or other devices, you must register log output devi
1121:../source/sgl_core.h ****  */
1122:../source/sgl_core.h **** static inline void sgl_logdev_register(void (*puts)(const char *str))
1123:../source/sgl_core.h **** {
1124:../source/sgl_core.h ****     sgl_system.logdev = puts;
1125:../source/sgl_core.h **** }
1126:../source/sgl_core.h **** 
1127:../source/sgl_core.h **** 
1128:../source/sgl_core.h **** /**
1129:../source/sgl_core.h ****  * @brief log output function
1130:../source/sgl_core.h ****  * @param str log string
1131:../source/sgl_core.h ****  * @return none
1132:../source/sgl_core.h ****  * @note if you want to use printf function, you must register log output device first
1133:../source/sgl_core.h ****  */
1134:../source/sgl_core.h **** static inline void sgl_log_stdout(const char *str)
1135:../source/sgl_core.h **** {
1136:../source/sgl_core.h ****     if (sgl_system.logdev) {
1137:../source/sgl_core.h ****         sgl_system.logdev(str);
1138:../source/sgl_core.h ****     }
1139:../source/sgl_core.h **** }
1140:../source/sgl_core.h **** 
1141:../source/sgl_core.h **** 
1142:../source/sgl_core.h **** /**
1143:../source/sgl_core.h ****  * @brief get pixmap format bits
1144:../source/sgl_core.h ****  * @param pixmap pointer to pixmap
1145:../source/sgl_core.h ****  * @return pixmap bits
1146:../source/sgl_core.h ****  */
1147:../source/sgl_core.h **** uint8_t sgl_pixmal_get_bits(const sgl_pixmap_t *pixmap);
1148:../source/sgl_core.h **** 
1149:../source/sgl_core.h **** 
1150:../source/sgl_core.h **** /**
1151:../source/sgl_core.h ****  * @brief get tick milliseconds
1152:../source/sgl_core.h ****  * @param none
1153:../source/sgl_core.h ****  * @return tick milliseconds
1154:../source/sgl_core.h ****  */
1155:../source/sgl_core.h **** static inline uint8_t sgl_tick_get(void)
1156:../source/sgl_core.h **** {
1157:../source/sgl_core.h ****     return sgl_system.tick_ms;
1158:../source/sgl_core.h **** }
1159:../source/sgl_core.h **** 
1160:../source/sgl_core.h **** 
1161:../source/sgl_core.h **** /**
1162:../source/sgl_core.h ****  * @brief increase tick milliseconds
1163:../source/sgl_core.h ****  * @param ms milliseconds
1164:../source/sgl_core.h ****  * @return none
1165:../source/sgl_core.h ****  * @note in general, you should call this function in the 1ms tick interrupt handler
1166:../source/sgl_core.h ****  *       of course, you can use polling function to increase tick milliseconds.
1167:../source/sgl_core.h ****  */
1168:../source/sgl_core.h **** static inline void sgl_tick_inc(uint8_t ms)
  24              		.loc 2 1168 20 view .LVU4
  25              	.LBB7:
1169:../source/sgl_core.h **** {
1170:../source/sgl_core.h ****     sgl_system.tick_ms += ms;
  26              		.loc 2 1170 5 view .LVU5
  27              	.LBE7:
  28              	.LBE6:
 111:sgl_port_sdl2.c ****     SGL_UNUSED(param);
GAS LISTING C:\Users\lsw\AppData\Local\Temp\ccSZcLze.s 			page 24


  29              		.loc 1 111 1 is_stmt 0 view .LVU6
  30 0000 89C8     		movl	%ecx, %eax
  31              	.LBB9:
  32              	.LBB8:
  33              		.loc 2 1170 15 view .LVU7
  34 0002 488B0D00 		movq	.refptr.sgl_system(%rip), %rcx
  34      000000
  35              	.LVL2:
  36              		.loc 2 1170 15 view .LVU8
  37 0009 8B5160   		movl	96(%rcx), %edx
  38              	.LVL3:
  39              		.loc 2 1170 24 view .LVU9
  40 000c 83C201   		addl	$1, %edx
  41 000f 895160   		movl	%edx, 96(%rcx)
  42              	.LVL4:
  43              		.loc 2 1170 24 view .LVU10
  44              	.LBE8:
  45              	.LBE9:
 114:sgl_port_sdl2.c ****     return interval;
  46              		.loc 1 114 5 is_stmt 1 view .LVU11
 115:sgl_port_sdl2.c **** }
  47              		.loc 1 115 1 is_stmt 0 view .LVU12
  48 0012 C3       		ret
  49              		.cfi_endproc
  50              	.LFE6951:
  51              		.seh_endproc
  52 0013 90909090 		.section	.text$flush_window,"x"
  52      90909090 
  52      90909090 
  52      90
  53              		.p2align 4
  55              		.seh_proc	flush_window
  56              	flush_window:
  57              	.LVL5:
  58              	.LFB6949:
  89:sgl_port_sdl2.c ****     SDL_Texture *texture = SDL_CreateTexture(m_renderer, SDL_PIXEL_FORMAT, SDL_TEXTUREACCESS_STREAM
  59              		.loc 1 89 1 is_stmt 1 view -0
  60              		.cfi_startproc
  89:sgl_port_sdl2.c ****     SDL_Texture *texture = SDL_CreateTexture(m_renderer, SDL_PIXEL_FORMAT, SDL_TEXTUREACCESS_STREAM
  61              		.loc 1 89 1 is_stmt 0 view .LVU14
  62 0000 56       		pushq	%rsi
  63              		.seh_pushreg	%rsi
  64              		.cfi_def_cfa_offset 16
  65              		.cfi_offset 4, -16
  66 0001 53       		pushq	%rbx
  67              		.seh_pushreg	%rbx
  68              		.cfi_def_cfa_offset 24
  69              		.cfi_offset 3, -24
  70 0002 4883EC38 		subq	$56, %rsp
  71              		.seh_stackalloc	56
  72              		.cfi_def_cfa_offset 80
  73              		.seh_endprologue
  90:sgl_port_sdl2.c ****     SDL_UpdateTexture(texture, NULL, sdl2_frame_buffer, CONFIG_SGL_PANEL_WIDTH * sizeof(sgl_color_t
  74              		.loc 1 90 5 is_stmt 1 view .LVU15
  90:sgl_port_sdl2.c ****     SDL_UpdateTexture(texture, NULL, sdl2_frame_buffer, CONFIG_SGL_PANEL_WIDTH * sizeof(sgl_color_t
  75              		.loc 1 90 28 is_stmt 0 view .LVU16
  76 0006 41B9F000 		movl	$240, %r9d
GAS LISTING C:\Users\lsw\AppData\Local\Temp\ccSZcLze.s 			page 25


  76      0000
  77 000c 41B80100 		movl	$1, %r8d
  77      0000
  78 0012 BA021015 		movl	$353701890, %edx
  78      15
  79 0017 C7442420 		movl	$284, 32(%rsp)
  79      1C010000 
  89:sgl_port_sdl2.c ****     SDL_Texture *texture = SDL_CreateTexture(m_renderer, SDL_PIXEL_FORMAT, SDL_TEXTUREACCESS_STREAM
  80              		.loc 1 89 1 view .LVU17
  81 001f 4889CE   		movq	%rcx, %rsi
  90:sgl_port_sdl2.c ****     SDL_UpdateTexture(texture, NULL, sdl2_frame_buffer, CONFIG_SGL_PANEL_WIDTH * sizeof(sgl_color_t
  82              		.loc 1 90 28 view .LVU18
  83 0022 E8000000 		call	SDL_CreateTexture
  83      00
  84              	.LVL6:
  91:sgl_port_sdl2.c ****     SDL_RenderCopy(m_renderer, texture, NULL, NULL);
  85              		.loc 1 91 5 view .LVU19
  86 0027 31D2     		xorl	%edx, %edx
  87 0029 41B9E001 		movl	$480, %r9d
  87      0000
  88 002f 4C8D0500 		leaq	sdl2_frame_buffer(%rip), %r8
  88      000000
  90:sgl_port_sdl2.c ****     SDL_UpdateTexture(texture, NULL, sdl2_frame_buffer, CONFIG_SGL_PANEL_WIDTH * sizeof(sgl_color_t
  89              		.loc 1 90 28 view .LVU20
  90 0036 4889C3   		movq	%rax, %rbx
  91              	.LVL7:
  91:sgl_port_sdl2.c ****     SDL_RenderCopy(m_renderer, texture, NULL, NULL);
  92              		.loc 1 91 5 is_stmt 1 view .LVU21
  93 0039 4889C1   		movq	%rax, %rcx
  94 003c E8000000 		call	SDL_UpdateTexture
  94      00
  95              	.LVL8:
  92:sgl_port_sdl2.c ****     SDL_RenderPresent(m_renderer);
  96              		.loc 1 92 5 view .LVU22
  97 0041 4531C9   		xorl	%r9d, %r9d
  98 0044 4531C0   		xorl	%r8d, %r8d
  99 0047 4889DA   		movq	%rbx, %rdx
 100 004a 4889F1   		movq	%rsi, %rcx
 101 004d E8000000 		call	SDL_RenderCopy
 101      00
 102              	.LVL9:
  93:sgl_port_sdl2.c ****     SDL_DestroyTexture(texture);
 103              		.loc 1 93 5 view .LVU23
 104 0052 4889F1   		movq	%rsi, %rcx
 105 0055 E8000000 		call	SDL_RenderPresent
 105      00
 106              	.LVL10:
  94:sgl_port_sdl2.c **** }
 107              		.loc 1 94 5 view .LVU24
 108 005a 4889D9   		movq	%rbx, %rcx
  95:sgl_port_sdl2.c **** 
 109              		.loc 1 95 1 is_stmt 0 view .LVU25
 110 005d 4883C438 		addq	$56, %rsp
 111              		.cfi_def_cfa_offset 24
 112 0061 5B       		popq	%rbx
 113              		.cfi_restore 3
 114              		.cfi_def_cfa_offset 16
GAS LISTING C:\Users\lsw\AppData\Local\Temp\ccSZcLze.s 			page 26


 115              	.LVL11:
  95:sgl_port_sdl2.c **** 
 116              		.loc 1 95 1 view .LVU26
 117 0062 5E       		popq	%rsi
 118              		.cfi_restore 4
 119              		.cfi_def_cfa_offset 8
 120              	.LVL12:
  94:sgl_port_sdl2.c **** }
 121              		.loc 1 94 5 view .LVU27
 122 0063 E9000000 		jmp	SDL_DestroyTexture
 122      00
 123              	.LVL13:
  94:sgl_port_sdl2.c **** }
 124              		.loc 1 94 5 view .LVU28
 125              		.cfi_endproc
 126              	.LFE6949:
 127              		.seh_endproc
 128 0068 90909090 		.section	.text$log_stdout,"x"
 128      90909090 
 129              		.p2align 4
 130              		.globl	log_stdout
 132              		.seh_proc	log_stdout
 133              	log_stdout:
 134              	.LVL14:
 135              	.LFB6954:
 116:sgl_port_sdl2.c **** 
 117:sgl_port_sdl2.c **** 
 118:sgl_port_sdl2.c **** void test_flush(void)
 119:sgl_port_sdl2.c **** {
 120:sgl_port_sdl2.c ****     flush_window(m_renderer);
 121:sgl_port_sdl2.c **** }
 122:sgl_port_sdl2.c **** 
 123:sgl_port_sdl2.c **** static void panel_flush_area(sgl_area_t *area, sgl_color_t *src)
 124:sgl_port_sdl2.c **** {
 125:sgl_port_sdl2.c ****     int x = area->x1;
 126:sgl_port_sdl2.c ****     int y = area->y1;
 127:sgl_port_sdl2.c ****     int w = area->x2 - x + 1;
 128:sgl_port_sdl2.c ****     int h = area->y2 - y + 1;
 129:sgl_port_sdl2.c **** 
 130:sgl_port_sdl2.c ****     sgl_color_t *dest = sdl2_frame_buffer;
 131:sgl_port_sdl2.c ****     dest += (x + y * CONFIG_SGL_PANEL_WIDTH);
 132:sgl_port_sdl2.c **** 
 133:sgl_port_sdl2.c ****     for(int i = 0; i < h; i ++) {
 134:sgl_port_sdl2.c ****         memcpy(dest, src, w * sizeof(sgl_color_t));
 135:sgl_port_sdl2.c ****         dest += CONFIG_SGL_PANEL_WIDTH;
 136:sgl_port_sdl2.c ****         src += w;
 137:sgl_port_sdl2.c ****     }
 138:sgl_port_sdl2.c **** 
 139:sgl_port_sdl2.c ****     flush_window(m_renderer);
 140:sgl_port_sdl2.c ****     sgl_fbdev_flush_ready();
 141:sgl_port_sdl2.c **** }
 142:sgl_port_sdl2.c **** 
 143:sgl_port_sdl2.c **** 
 144:sgl_port_sdl2.c **** static sgl_color_t panel_buffer0[CONFIG_SGL_PANEL_WIDTH * CONFIG_SGL_PANEL_BUFFER_LINE] = {0};
 145:sgl_port_sdl2.c **** static sgl_color_t panel_buffer1[CONFIG_SGL_PANEL_WIDTH * CONFIG_SGL_PANEL_BUFFER_LINE] = {0};
 146:sgl_port_sdl2.c **** 
 147:sgl_port_sdl2.c **** 
GAS LISTING C:\Users\lsw\AppData\Local\Temp\ccSZcLze.s 			page 27


 148:sgl_port_sdl2.c **** void log_stdout(const char *str)
 149:sgl_port_sdl2.c **** {
 136              		.loc 1 149 1 is_stmt 1 view -0
 137              		.cfi_startproc
 138              		.loc 1 149 1 is_stmt 0 view .LVU30
 139 0000 4883EC28 		subq	$40, %rsp
 140              		.seh_stackalloc	40
 141              		.cfi_def_cfa_offset 48
 142              		.seh_endprologue
 150:sgl_port_sdl2.c ****     printf(str);
 143              		.loc 1 150 5 is_stmt 1 view .LVU31
 144 0004 E8000000 		call	printf
 144      00
 145              	.LVL15:
 151:sgl_port_sdl2.c ****     fflush(stdout);
 146              		.loc 1 151 5 view .LVU32
 147 0009 B9010000 		movl	$1, %ecx
 147      00
 148 000e FF150000 		call	*__imp___acrt_iob_func(%rip)
 148      0000
 149              	.LVL16:
 150 0014 4889C1   		movq	%rax, %rcx
 152:sgl_port_sdl2.c **** }
 151              		.loc 1 152 1 is_stmt 0 view .LVU33
 152 0017 4883C428 		addq	$40, %rsp
 153              		.cfi_def_cfa_offset 8
 151:sgl_port_sdl2.c ****     fflush(stdout);
 154              		.loc 1 151 5 discriminator 1 view .LVU34
 155 001b E9000000 		jmp	fflush
 155      00
 156              	.LVL17:
 157              		.cfi_endproc
 158              	.LFE6954:
 159              		.seh_endproc
 160              		.section .rdata,"dr"
 161              	.LC1:
 162 0000 53474C20 		.ascii "SGL SDL2 Frame = %lld\12\0"
 162      53444C32 
 162      20467261 
 162      6D65203D 
 162      20256C6C 
 163 0017 00       		.align 8
 164              	.LC2:
 165 0018 4D656D6F 		.ascii "Memory: total: %lld used: %lld, free = %lld\12\0"
 165      72793A20 
 165      746F7461 
 165      6C3A2025 
 165      6C6C6420 
 166              		.section	.text$system_tick,"x"
 167              		.p2align 4
 169              		.seh_proc	system_tick
 170              	system_tick:
 171              	.LVL18:
 172              	.LFB6950:
  99:sgl_port_sdl2.c ****     sgl_mm_monitor_t mm = sgl_mm_get_monitor();
 173              		.loc 1 99 1 is_stmt 1 view -0
 174              		.cfi_startproc
GAS LISTING C:\Users\lsw\AppData\Local\Temp\ccSZcLze.s 			page 28


  99:sgl_port_sdl2.c ****     sgl_mm_monitor_t mm = sgl_mm_get_monitor();
 175              		.loc 1 99 1 is_stmt 0 view .LVU36
 176 0000 56       		pushq	%rsi
 177              		.seh_pushreg	%rsi
 178              		.cfi_def_cfa_offset 16
 179              		.cfi_offset 4, -16
 180 0001 53       		pushq	%rbx
 181              		.seh_pushreg	%rbx
 182              		.cfi_def_cfa_offset 24
 183              		.cfi_offset 3, -24
 184 0002 4883EC48 		subq	$72, %rsp
 185              		.seh_stackalloc	72
 186              		.cfi_def_cfa_offset 96
 187              		.seh_endprologue
 100:sgl_port_sdl2.c ****     sgl_port_sdl2_t *sdl2_dev = (sgl_port_sdl2_t*)param;
 188              		.loc 1 100 5 is_stmt 1 view .LVU37
  99:sgl_port_sdl2.c ****     sgl_mm_monitor_t mm = sgl_mm_get_monitor();
 189              		.loc 1 99 1 is_stmt 0 view .LVU38
 190 0006 4889D3   		movq	%rdx, %rbx
 191 0009 89CE     		movl	%ecx, %esi
 100:sgl_port_sdl2.c ****     sgl_port_sdl2_t *sdl2_dev = (sgl_port_sdl2_t*)param;
 192              		.loc 1 100 27 view .LVU39
 193 000b 488D4C24 		leaq	32(%rsp), %rcx
 193      20
 194              	.LVL19:
 100:sgl_port_sdl2.c ****     sgl_port_sdl2_t *sdl2_dev = (sgl_port_sdl2_t*)param;
 195              		.loc 1 100 27 view .LVU40
 196 0010 E8000000 		call	sgl_mm_get_monitor
 196      00
 197              	.LVL20:
 101:sgl_port_sdl2.c ****     SGL_UNUSED(mm);
 198              		.loc 1 101 5 is_stmt 1 view .LVU41
 102:sgl_port_sdl2.c ****     printf("SGL SDL2 Frame = %lld\n", sdl2_dev->frame_count);
 199              		.loc 1 102 5 view .LVU42
 103:sgl_port_sdl2.c ****     printf("Memory: total: %lld used: %lld, free = %lld\n", mm.total_size, mm.used_size, mm.free_si
 200              		.loc 1 103 5 view .LVU43
 201 0015 488B5310 		movq	16(%rbx), %rdx
 202 0019 488D0D00 		leaq	.LC1(%rip), %rcx
 202      000000
 203 0020 E8000000 		call	printf
 203      00
 204              	.LVL21:
 104:sgl_port_sdl2.c ****     sdl2_dev->frame_count = 0;
 205              		.loc 1 104 5 view .LVU44
 206 0025 4C8B4C24 		movq	40(%rsp), %r9
 206      28
 207 002a 488D0D18 		leaq	.LC2(%rip), %rcx
 207      000000
 208 0031 4C8B4424 		movq	48(%rsp), %r8
 208      30
 209 0036 488B5424 		movq	32(%rsp), %rdx
 209      20
 210 003b E8000000 		call	printf
 210      00
 211              	.LVL22:
 105:sgl_port_sdl2.c **** 	return interval;
 212              		.loc 1 105 5 view .LVU45
GAS LISTING C:\Users\lsw\AppData\Local\Temp\ccSZcLze.s 			page 29


 107:sgl_port_sdl2.c **** 
 213              		.loc 1 107 1 is_stmt 0 view .LVU46
 214 0040 89F0     		movl	%esi, %eax
 105:sgl_port_sdl2.c **** 	return interval;
 215              		.loc 1 105 27 view .LVU47
 216 0042 48C74310 		movq	$0, 16(%rbx)
 216      00000000 
 106:sgl_port_sdl2.c **** }
 217              		.loc 1 106 2 is_stmt 1 view .LVU48
 107:sgl_port_sdl2.c **** 
 218              		.loc 1 107 1 is_stmt 0 view .LVU49
 219 004a 4883C448 		addq	$72, %rsp
 220              		.cfi_def_cfa_offset 24
 221 004e 5B       		popq	%rbx
 222              		.cfi_restore 3
 223              		.cfi_def_cfa_offset 16
 224              	.LVL23:
 107:sgl_port_sdl2.c **** 
 225              		.loc 1 107 1 view .LVU50
 226 004f 5E       		popq	%rsi
 227              		.cfi_restore 4
 228              		.cfi_def_cfa_offset 8
 229              	.LVL24:
 107:sgl_port_sdl2.c **** 
 230              		.loc 1 107 1 view .LVU51
 231 0050 C3       		ret
 232              		.cfi_endproc
 233              	.LFE6950:
 234              		.seh_endproc
 235 0051 90909090 		.section	.text$panel_flush_area,"x"
 235      90909090 
 235      90909090 
 235      909090
 236              		.p2align 4
 238              		.seh_proc	panel_flush_area
 239              	panel_flush_area:
 240              	.LVL25:
 241              	.LFB6953:
 124:sgl_port_sdl2.c ****     int x = area->x1;
 242              		.loc 1 124 1 is_stmt 1 view -0
 243              		.cfi_startproc
 124:sgl_port_sdl2.c ****     int x = area->x1;
 244              		.loc 1 124 1 is_stmt 0 view .LVU53
 245 0000 4154     		pushq	%r12
 246              		.seh_pushreg	%r12
 247              		.cfi_def_cfa_offset 16
 248              		.cfi_offset 12, -16
 249 0002 55       		pushq	%rbp
 250              		.seh_pushreg	%rbp
 251              		.cfi_def_cfa_offset 24
 252              		.cfi_offset 6, -24
 253 0003 57       		pushq	%rdi
 254              		.seh_pushreg	%rdi
 255              		.cfi_def_cfa_offset 32
 256              		.cfi_offset 5, -32
 257 0004 56       		pushq	%rsi
 258              		.seh_pushreg	%rsi
GAS LISTING C:\Users\lsw\AppData\Local\Temp\ccSZcLze.s 			page 30


 259              		.cfi_def_cfa_offset 40
 260              		.cfi_offset 4, -40
 261 0005 53       		pushq	%rbx
 262              		.seh_pushreg	%rbx
 263              		.cfi_def_cfa_offset 48
 264              		.cfi_offset 3, -48
 265 0006 4883EC20 		subq	$32, %rsp
 266              		.seh_stackalloc	32
 267              		.cfi_def_cfa_offset 80
 268              		.seh_endprologue
 125:sgl_port_sdl2.c ****     int y = area->y1;
 269              		.loc 1 125 5 is_stmt 1 view .LVU54
 125:sgl_port_sdl2.c ****     int y = area->y1;
 270              		.loc 1 125 9 is_stmt 0 view .LVU55
 271 000a 440FBF01 		movswl	(%rcx), %r8d
 272              	.LVL26:
 126:sgl_port_sdl2.c ****     int w = area->x2 - x + 1;
 273              		.loc 1 126 5 is_stmt 1 view .LVU56
 127:sgl_port_sdl2.c ****     int h = area->y2 - y + 1;
 274              		.loc 1 127 17 is_stmt 0 view .LVU57
 275 000e 0FBF6904 		movswl	4(%rcx), %ebp
 128:sgl_port_sdl2.c **** 
 276              		.loc 1 128 17 view .LVU58
 277 0012 440FBF61 		movswl	6(%rcx), %r12d
 277      06
 124:sgl_port_sdl2.c ****     int x = area->x1;
 278              		.loc 1 124 1 view .LVU59
 279 0017 4889D3   		movq	%rdx, %rbx
 126:sgl_port_sdl2.c ****     int w = area->x2 - x + 1;
 280              		.loc 1 126 9 view .LVU60
 281 001a 0FBF5102 		movswl	2(%rcx), %edx
 282              	.LVL27:
 127:sgl_port_sdl2.c ****     int h = area->y2 - y + 1;
 283              		.loc 1 127 5 is_stmt 1 view .LVU61
 131:sgl_port_sdl2.c **** 
 284              		.loc 1 131 10 is_stmt 0 view .LVU62
 285 001e 488D0D00 		leaq	sdl2_frame_buffer(%rip), %rcx
 285      000000
 286              	.LVL28:
 127:sgl_port_sdl2.c ****     int h = area->y2 - y + 1;
 287              		.loc 1 127 22 view .LVU63
 288 0025 4429C5   		subl	%r8d, %ebp
 127:sgl_port_sdl2.c ****     int h = area->y2 - y + 1;
 289              		.loc 1 127 9 view .LVU64
 290 0028 83C501   		addl	$1, %ebp
 291              	.LVL29:
 128:sgl_port_sdl2.c **** 
 292              		.loc 1 128 5 is_stmt 1 view .LVU65
 130:sgl_port_sdl2.c ****     dest += (x + y * CONFIG_SGL_PANEL_WIDTH);
 293              		.loc 1 130 5 view .LVU66
 131:sgl_port_sdl2.c **** 
 294              		.loc 1 131 5 view .LVU67
 131:sgl_port_sdl2.c **** 
 295              		.loc 1 131 20 is_stmt 0 view .LVU68
 296 002b 69C2F000 		imull	$240, %edx, %eax
 296      0000
 131:sgl_port_sdl2.c **** 
GAS LISTING C:\Users\lsw\AppData\Local\Temp\ccSZcLze.s 			page 31


 297              		.loc 1 131 16 view .LVU69
 298 0031 4401C0   		addl	%r8d, %eax
 299              	.LBB13:
 133:sgl_port_sdl2.c ****         memcpy(dest, src, w * sizeof(sgl_color_t));
 300              		.loc 1 133 22 discriminator 1 view .LVU70
 301 0034 4129D4   		subl	%edx, %r12d
 302              	.LVL30:
 133:sgl_port_sdl2.c ****         memcpy(dest, src, w * sizeof(sgl_color_t));
 303              		.loc 1 133 22 discriminator 1 view .LVU71
 304              	.LBE13:
 131:sgl_port_sdl2.c **** 
 305              		.loc 1 131 16 view .LVU72
 306 0037 4898     		cltq
 131:sgl_port_sdl2.c **** 
 307              		.loc 1 131 10 view .LVU73
 308 0039 488D3441 		leaq	(%rcx,%rax,2), %rsi
 309              	.LVL31:
 133:sgl_port_sdl2.c ****         memcpy(dest, src, w * sizeof(sgl_color_t));
 310              		.loc 1 133 5 is_stmt 1 view .LVU74
 311              	.LBB14:
 133:sgl_port_sdl2.c ****         memcpy(dest, src, w * sizeof(sgl_color_t));
 312              		.loc 1 133 9 view .LVU75
 133:sgl_port_sdl2.c ****         memcpy(dest, src, w * sizeof(sgl_color_t));
 313              		.loc 1 133 22 discriminator 1 view .LVU76
 314 003d 7831     		js	.L7
 134:sgl_port_sdl2.c ****         dest += CONFIG_SGL_PANEL_WIDTH;
 315              		.loc 1 134 9 is_stmt 0 view .LVU77
 316 003f 4863ED   		movslq	%ebp, %rbp
 133:sgl_port_sdl2.c ****         memcpy(dest, src, w * sizeof(sgl_color_t));
 317              		.loc 1 133 13 view .LVU78
 318 0042 31FF     		xorl	%edi, %edi
 134:sgl_port_sdl2.c ****         dest += CONFIG_SGL_PANEL_WIDTH;
 319              		.loc 1 134 9 view .LVU79
 320 0044 4801ED   		addq	%rbp, %rbp
 321              	.LVL32:
 322 0047 660F1F84 		.p2align 4,,10
 322      00000000 
 322      00
 323              		.p2align 3
 324              	.L8:
 134:sgl_port_sdl2.c ****         dest += CONFIG_SGL_PANEL_WIDTH;
 325              		.loc 1 134 9 is_stmt 1 view .LVU80
 326 0050 4889DA   		movq	%rbx, %rdx
 327 0053 4889F1   		movq	%rsi, %rcx
 328 0056 4989E8   		movq	%rbp, %r8
 133:sgl_port_sdl2.c ****         memcpy(dest, src, w * sizeof(sgl_color_t));
 329              		.loc 1 133 29 is_stmt 0 discriminator 3 view .LVU81
 330 0059 83C701   		addl	$1, %edi
 331              	.LVL33:
 135:sgl_port_sdl2.c ****         src += w;
 332              		.loc 1 135 14 view .LVU82
 333 005c 4881C6E0 		addq	$480, %rsi
 333      010000
 334              	.LVL34:
 136:sgl_port_sdl2.c ****     }
 335              		.loc 1 136 13 view .LVU83
 336 0063 4801EB   		addq	%rbp, %rbx
GAS LISTING C:\Users\lsw\AppData\Local\Temp\ccSZcLze.s 			page 32


 337              	.LVL35:
 134:sgl_port_sdl2.c ****         dest += CONFIG_SGL_PANEL_WIDTH;
 338              		.loc 1 134 9 view .LVU84
 339 0066 E8000000 		call	memcpy
 339      00
 340              	.LVL36:
 135:sgl_port_sdl2.c ****         src += w;
 341              		.loc 1 135 9 is_stmt 1 view .LVU85
 136:sgl_port_sdl2.c ****     }
 342              		.loc 1 136 9 view .LVU86
 133:sgl_port_sdl2.c ****         memcpy(dest, src, w * sizeof(sgl_color_t));
 343              		.loc 1 133 29 discriminator 3 view .LVU87
 133:sgl_port_sdl2.c ****         memcpy(dest, src, w * sizeof(sgl_color_t));
 344              		.loc 1 133 22 discriminator 1 view .LVU88
 345 006b 4139FC   		cmpl	%edi, %r12d
 346 006e 7DE0     		jge	.L8
 347              	.LVL37:
 348              	.L7:
 133:sgl_port_sdl2.c ****         memcpy(dest, src, w * sizeof(sgl_color_t));
 349              		.loc 1 133 22 is_stmt 0 discriminator 1 view .LVU89
 350              	.LBE14:
 139:sgl_port_sdl2.c ****     sgl_fbdev_flush_ready();
 351              		.loc 1 139 5 is_stmt 1 view .LVU90
 352 0070 488B0D00 		movq	m_renderer(%rip), %rcx
 352      000000
 353 0077 E8000000 		call	flush_window
 353      00
 354              	.LVL38:
 140:sgl_port_sdl2.c **** }
 355              		.loc 1 140 5 view .LVU91
 356              	.LBB15:
 357              	.LBI15:
 973:../source/sgl_core.h **** {
 358              		.loc 2 973 20 view .LVU92
 359              	.LBB16:
 975:../source/sgl_core.h **** 
 360              		.loc 2 975 5 view .LVU93
 975:../source/sgl_core.h **** 
 361              		.loc 2 975 21 is_stmt 0 view .LVU94
 362 007c 488B0500 		movq	.refptr.sgl_system(%rip), %rax
 362      000000
 975:../source/sgl_core.h **** 
 363              		.loc 2 975 38 view .LVU95
 364 0083 41B80100 		movl	$1, %r8d
 364      0000
 975:../source/sgl_core.h **** 
 365              		.loc 2 975 57 view .LVU96
 366 0089 0FB64850 		movzbl	80(%rax), %ecx
 975:../source/sgl_core.h **** 
 367              		.loc 2 975 21 view .LVU97
 368 008d 0FB65051 		movzbl	81(%rax), %edx
 975:../source/sgl_core.h **** 
 369              		.loc 2 975 38 view .LVU98
 370 0091 41D3E0   		sall	%cl, %r8d
 975:../source/sgl_core.h **** 
 371              		.loc 2 975 32 view .LVU99
 372 0094 4409C2   		orl	%r8d, %edx
GAS LISTING C:\Users\lsw\AppData\Local\Temp\ccSZcLze.s 			page 33


 978:../source/sgl_core.h ****         sgl_system.fbdev.surf.buffer = (sgl_color_t *)sgl_system.fbdev.fbinfo.buffer[sgl_system.fbd
 373              		.loc 2 978 8 view .LVU100
 374 0097 48837810 		cmpq	$0, 16(%rax)
 374      00
 975:../source/sgl_core.h **** 
 375              		.loc 2 975 32 view .LVU101
 376 009c 885051   		movb	%dl, 81(%rax)
 978:../source/sgl_core.h ****         sgl_system.fbdev.surf.buffer = (sgl_color_t *)sgl_system.fbdev.fbinfo.buffer[sgl_system.fbd
 377              		.loc 2 978 5 is_stmt 1 view .LVU102
 978:../source/sgl_core.h ****         sgl_system.fbdev.surf.buffer = (sgl_color_t *)sgl_system.fbdev.fbinfo.buffer[sgl_system.fbd
 378              		.loc 2 978 8 is_stmt 0 view .LVU103
 379 009f 7412     		je	.L6
 979:../source/sgl_core.h ****     }
 380              		.loc 2 979 9 is_stmt 1 view .LVU104
 979:../source/sgl_core.h ****     }
 381              		.loc 2 979 111 is_stmt 0 view .LVU105
 382 00a1 83F101   		xorl	$1, %ecx
 383 00a4 884850   		movb	%cl, 80(%rax)
 979:../source/sgl_core.h ****     }
 384              		.loc 2 979 85 view .LVU106
 385 00a7 0FB6C9   		movzbl	%cl, %ecx
 979:../source/sgl_core.h ****     }
 386              		.loc 2 979 38 view .LVU107
 387 00aa 488B54C8 		movq	8(%rax,%rcx,8), %rdx
 387      08
 388 00af 48895030 		movq	%rdx, 48(%rax)
 389              	.L6:
 390              	.LBE16:
 391              	.LBE15:
 141:sgl_port_sdl2.c **** 
 392              		.loc 1 141 1 view .LVU108
 393 00b3 4883C420 		addq	$32, %rsp
 394              		.cfi_def_cfa_offset 48
 395 00b7 5B       		popq	%rbx
 396              		.cfi_restore 3
 397              		.cfi_def_cfa_offset 40
 398              	.LVL39:
 141:sgl_port_sdl2.c **** 
 399              		.loc 1 141 1 view .LVU109
 400 00b8 5E       		popq	%rsi
 401              		.cfi_restore 4
 402              		.cfi_def_cfa_offset 32
 403              	.LVL40:
 141:sgl_port_sdl2.c **** 
 404              		.loc 1 141 1 view .LVU110
 405 00b9 5F       		popq	%rdi
 406              		.cfi_restore 5
 407              		.cfi_def_cfa_offset 24
 408 00ba 5D       		popq	%rbp
 409              		.cfi_restore 6
 410              		.cfi_def_cfa_offset 16
 411 00bb 415C     		popq	%r12
 412              		.cfi_restore 12
 413              		.cfi_def_cfa_offset 8
 414              	.LVL41:
 141:sgl_port_sdl2.c **** 
 415              		.loc 1 141 1 view .LVU111
GAS LISTING C:\Users\lsw\AppData\Local\Temp\ccSZcLze.s 			page 34


 416 00bd C3       		ret
 417              		.cfi_endproc
 418              	.LFE6953:
 419              		.seh_endproc
 420 00be 9090     		.section	.text$test_flush,"x"
 421              		.p2align 4
 422              		.globl	test_flush
 424              		.seh_proc	test_flush
 425              	test_flush:
 426              	.LFB6952:
 119:sgl_port_sdl2.c ****     flush_window(m_renderer);
 427              		.loc 1 119 1 is_stmt 1 view -0
 428              		.cfi_startproc
 429              		.seh_endprologue
 120:sgl_port_sdl2.c **** }
 430              		.loc 1 120 5 view .LVU113
 431 0000 488B0D00 		movq	m_renderer(%rip), %rcx
 431      000000
 121:sgl_port_sdl2.c **** 
 432              		.loc 1 121 1 is_stmt 0 view .LVU114
 120:sgl_port_sdl2.c **** }
 433              		.loc 1 120 5 view .LVU115
 434 0007 E9000000 		jmp	flush_window
 434      00
 435              	.LVL42:
 436              		.cfi_endproc
 437              	.LFE6952:
 438              		.seh_endproc
 439 000c 90909090 		.section .rdata,"dr"
 440 0045 000000   		.align 8
 441              	.LC3:
 442 0048 53474C20 		.ascii "SGL SDL2 device alloc initialize failed\0"
 442      53444C32 
 442      20646576 
 442      69636520 
 442      616C6C6F 
 443              	.LC4:
 444 0070 5B455252 		.ascii "[ERROR] \0"
 444      4F525D20 
 444      00
 445              	.LC5:
 446 0079 53474C20 		.ascii "SGL SDL2 initialize failed\0"
 446      53444C32 
 446      20696E69 
 446      7469616C 
 446      697A6520 
 447              	.LC6:
 448 0094 53474C20 		.ascii "SGL SDL2 create window failed\0"
 448      53444C32 
 448      20637265 
 448      61746520 
 448      77696E64 
 449              	.LC7:
 450 00b2 53474C20 		.ascii "SGL SDL2 demo\0"
 450      53444C32 
 450      2064656D 
 450      6F00
GAS LISTING C:\Users\lsw\AppData\Local\Temp\ccSZcLze.s 			page 35


 451              	.LC8:
 452 00c0 726200   		.ascii "rb\0"
 453              	.LC9:
 454 00c3 73676C5F 		.ascii "sgl_log.bmp\0"
 454      6C6F672E 
 454      626D7000 
 455 00cf 00       		.data
 456              		.align 2
 457              	.LC0:
 458 0000 FF       		.byte	255
 459 0001 FF       		.byte	255
 460 0002 00000000 		.section	.text$sgl_port_sdl2_init,"x"
 460      00000000 
 460      00000000 
 460      0000
 461              		.p2align 4
 462              		.globl	sgl_port_sdl2_init
 464              		.seh_proc	sgl_port_sdl2_init
 465              	sgl_port_sdl2_init:
 466              	.LFB6955:
 153:sgl_port_sdl2.c **** 
 154:sgl_port_sdl2.c **** 
 155:sgl_port_sdl2.c **** sgl_port_sdl2_t* sgl_port_sdl2_init(void)
 156:sgl_port_sdl2.c **** {
 467              		.loc 1 156 1 is_stmt 1 view -0
 468              		.cfi_startproc
 469 0000 56       		pushq	%rsi
 470              		.seh_pushreg	%rsi
 471              		.cfi_def_cfa_offset 16
 472              		.cfi_offset 4, -16
 473 0001 53       		pushq	%rbx
 474              		.seh_pushreg	%rbx
 475              		.cfi_def_cfa_offset 24
 476              		.cfi_offset 3, -24
 477 0002 4883EC58 		subq	$88, %rsp
 478              		.seh_stackalloc	88
 479              		.cfi_def_cfa_offset 112
 480              		.seh_endprologue
 157:sgl_port_sdl2.c ****     sgl_port_sdl2_t *sdl2_dev = NULL;
 481              		.loc 1 157 5 view .LVU117
 482              	.LVL43:
 158:sgl_port_sdl2.c **** 
 159:sgl_port_sdl2.c ****     sgl_fbinfo_t fb_dev = {
 483              		.loc 1 159 5 view .LVU118
 484              		.loc 1 159 18 is_stmt 0 view .LVU119
 485 0006 488D0500 		leaq	panel_buffer1(%rip), %rax
 485      000000
 486 000d 488D3500 		leaq	panel_buffer0(%rip), %rsi
 486      000000
 487 0014 66480F6E 		movq	%rax, %xmm1
 487      C8
 488 0019 48B8C003 		movabsq	$79939924177978304, %rax
 488      0000F000 
 488      1C01
 489 0023 66480F6E 		movq	%rsi, %xmm0
 489      C6
 490              	.LBB25:
GAS LISTING C:\Users\lsw\AppData\Local\Temp\ccSZcLze.s 			page 36


 491              	.LBB26:
1124:../source/sgl_core.h **** }
 492              		.loc 2 1124 23 view .LVU120
 493 0028 488D3500 		leaq	log_stdout(%rip), %rsi
 493      000000
 494              	.LBE26:
 495              	.LBE25:
 496              		.loc 1 159 18 view .LVU121
 497 002f 660F6CC1 		punpcklqdq	%xmm1, %xmm0
 498 0033 48894424 		movq	%rax, 64(%rsp)
 498      40
 499 0038 488D0500 		leaq	panel_flush_area(%rip), %rax
 499      000000
 500 003f 48894424 		movq	%rax, 72(%rsp)
 500      48
 160:sgl_port_sdl2.c ****         .xres = CONFIG_SGL_PANEL_WIDTH,
 161:sgl_port_sdl2.c ****         .yres = CONFIG_SGL_PANEL_HEIGHT,
 162:sgl_port_sdl2.c ****         .flush_area = panel_flush_area,
 163:sgl_port_sdl2.c ****         .buffer[0] = panel_buffer0,
 164:sgl_port_sdl2.c ****         .buffer[1] = panel_buffer1,
 165:sgl_port_sdl2.c ****         .buffer_size = SGL_ARRAY_SIZE(panel_buffer0),
 166:sgl_port_sdl2.c ****     };
 167:sgl_port_sdl2.c **** 
 168:sgl_port_sdl2.c ****     sgl_logdev_register(log_stdout);
 501              		.loc 1 168 5 is_stmt 1 view .LVU122
 502              	.LVL44:
 503              	.LBB29:
 504              	.LBI25:
1122:../source/sgl_core.h **** {
 505              		.loc 2 1122 20 view .LVU123
 506              	.LBB27:
1124:../source/sgl_core.h **** }
 507              		.loc 2 1124 5 view .LVU124
1124:../source/sgl_core.h **** }
 508              		.loc 2 1124 23 is_stmt 0 view .LVU125
 509 0044 488B0500 		movq	.refptr.sgl_system(%rip), %rax
 509      000000
 510              	.LBE27:
 511              	.LBE29:
 169:sgl_port_sdl2.c ****     sgl_fbdev_register(&fb_dev);
 512              		.loc 1 169 5 view .LVU126
 513 004b 488D4C24 		leaq	48(%rsp), %rcx
 513      30
 159:sgl_port_sdl2.c ****         .xres = CONFIG_SGL_PANEL_WIDTH,
 514              		.loc 1 159 18 view .LVU127
 515 0050 0F294424 		movaps	%xmm0, 48(%rsp)
 515      30
 516              	.LBB30:
 517              	.LBB28:
1124:../source/sgl_core.h **** }
 518              		.loc 2 1124 23 view .LVU128
 519 0055 488930   		movq	%rsi, (%rax)
 520              	.LVL45:
1124:../source/sgl_core.h **** }
 521              		.loc 2 1124 23 view .LVU129
 522              	.LBE28:
 523              	.LBE30:
GAS LISTING C:\Users\lsw\AppData\Local\Temp\ccSZcLze.s 			page 37


 524              		.loc 1 169 5 is_stmt 1 view .LVU130
 525 0058 E8000000 		call	sgl_fbdev_register
 525      00
 526              	.LVL46:
 170:sgl_port_sdl2.c **** 
 171:sgl_port_sdl2.c ****     /* init sgl */
 172:sgl_port_sdl2.c ****     sgl_init();
 527              		.loc 1 172 5 view .LVU131
 528 005d E8000000 		call	sgl_init
 528      00
 529              	.LVL47:
 173:sgl_port_sdl2.c **** 
 174:sgl_port_sdl2.c ****     sdl2_dev = sgl_malloc(sizeof(sgl_port_sdl2_t));
 530              		.loc 1 174 5 view .LVU132
 531              		.loc 1 174 16 is_stmt 0 view .LVU133
 532 0062 B9180000 		movl	$24, %ecx
 532      00
 533 0067 E8000000 		call	sgl_malloc
 533      00
 534              	.LVL48:
 175:sgl_port_sdl2.c ****     if(sdl2_dev == NULL) {
 535              		.loc 1 175 7 view .LVU134
 536 006c 4885C0   		testq	%rax, %rax
 174:sgl_port_sdl2.c ****     if(sdl2_dev == NULL) {
 537              		.loc 1 174 16 view .LVU135
 538 006f 4889C3   		movq	%rax, %rbx
 539              	.LVL49:
 540              		.loc 1 175 5 is_stmt 1 view .LVU136
 541              		.loc 1 175 7 is_stmt 0 view .LVU137
 542 0072 0F845E01 		je	.L25
 542      0000
 176:sgl_port_sdl2.c ****         SGL_LOG_ERROR("SGL SDL2 device alloc initialize failed");
 177:sgl_port_sdl2.c ****         return NULL;
 178:sgl_port_sdl2.c ****     }
 179:sgl_port_sdl2.c **** 
 180:sgl_port_sdl2.c ****     if ( SDL_Init(SDL_INIT_VIDEO | SDL_INIT_TIMER) != 0 ) {
 543              		.loc 1 180 5 is_stmt 1 view .LVU138
 544              		.loc 1 180 10 is_stmt 0 view .LVU139
 545 0078 B9210000 		movl	$33, %ecx
 545      00
 546 007d E8000000 		call	SDL_Init
 546      00
 547              	.LVL50:
 548              		.loc 1 180 8 discriminator 1 view .LVU140
 549 0082 85C0     		testl	%eax, %eax
 550 0084 0F850601 		jne	.L26
 550      0000
 181:sgl_port_sdl2.c ****         SGL_LOG_ERROR("SGL SDL2 initialize failed");
 182:sgl_port_sdl2.c ****         sgl_free(sdl2_dev);
 183:sgl_port_sdl2.c ****         return NULL;
 184:sgl_port_sdl2.c ****     }
 185:sgl_port_sdl2.c **** 
 186:sgl_port_sdl2.c ****     if(sdl_create_windows(&sdl2_dev->m_window, &m_renderer, "SGL SDL2 demo") < 0) {
 551              		.loc 1 186 5 is_stmt 1 view .LVU141
 552              	.LVL51:
 553              	.LBB31:
 554              	.LBI31:
GAS LISTING C:\Users\lsw\AppData\Local\Temp\ccSZcLze.s 			page 38


  62:sgl_port_sdl2.c **** {
 555              		.loc 1 62 12 view .LVU142
 556              	.LBB32:
  64:sgl_port_sdl2.c ****                                       &(*m_window), &(*m_renderer )) != 0 ) {
 557              		.loc 1 64 5 view .LVU143
  64:sgl_port_sdl2.c ****                                       &(*m_window), &(*m_renderer )) != 0 ) {
 558              		.loc 1 64 10 is_stmt 0 view .LVU144
 559 008a 488D0500 		leaq	m_renderer(%rip), %rax
 559      000000
 560 0091 4989D9   		movq	%rbx, %r9
 561 0094 41B80400 		movl	$4, %r8d
 561      0000
 562 009a 48894424 		movq	%rax, 32(%rsp)
 562      20
 563 009f BA1C0100 		movl	$284, %edx
 563      00
 564 00a4 B9F00000 		movl	$240, %ecx
 564      00
 565 00a9 E8000000 		call	SDL_CreateWindowAndRenderer
 565      00
 566              	.LVL52:
  64:sgl_port_sdl2.c ****                                       &(*m_window), &(*m_renderer )) != 0 ) {
 567              		.loc 1 64 8 discriminator 1 view .LVU145
 568 00ae 85C0     		testl	%eax, %eax
 569 00b0 0F850101 		jne	.L27
 569      0000
  69:sgl_port_sdl2.c **** 
 570              		.loc 1 69 5 is_stmt 1 view .LVU146
 571 00b6 488B0B   		movq	(%rbx), %rcx
 572 00b9 488D15B2 		leaq	.LC7(%rip), %rdx
 572      000000
 573 00c0 E8000000 		call	SDL_SetWindowTitle
 573      00
 574              	.LVL53:
  71:sgl_port_sdl2.c ****     if (icon) {
 575              		.loc 1 71 5 view .LVU147
  71:sgl_port_sdl2.c ****     if (icon) {
 576              		.loc 1 71 25 is_stmt 0 view .LVU148
 577 00c5 488D15C0 		leaq	.LC8(%rip), %rdx
 577      000000
 578 00cc 488D0DC3 		leaq	.LC9(%rip), %rcx
 578      000000
 579 00d3 E8000000 		call	SDL_RWFromFile
 579      00
 580              	.LVL54:
  71:sgl_port_sdl2.c ****     if (icon) {
 581              		.loc 1 71 25 discriminator 1 view .LVU149
 582 00d8 BA010000 		movl	$1, %edx
 582      00
  71:sgl_port_sdl2.c ****     if (icon) {
 583              		.loc 1 71 25 view .LVU150
 584 00dd 4889C1   		movq	%rax, %rcx
  71:sgl_port_sdl2.c ****     if (icon) {
 585              		.loc 1 71 25 discriminator 1 view .LVU151
 586 00e0 E8000000 		call	SDL_LoadBMP_RW
 586      00
 587              	.LVL55:
GAS LISTING C:\Users\lsw\AppData\Local\Temp\ccSZcLze.s 			page 39


  72:sgl_port_sdl2.c ****         SDL_SetWindowIcon(*m_window, icon);
 588              		.loc 1 72 8 view .LVU152
 589 00e5 4885C0   		testq	%rax, %rax
  71:sgl_port_sdl2.c ****     if (icon) {
 590              		.loc 1 71 25 discriminator 1 view .LVU153
 591 00e8 4889C6   		movq	%rax, %rsi
 592              	.LVL56:
  72:sgl_port_sdl2.c ****         SDL_SetWindowIcon(*m_window, icon);
 593              		.loc 1 72 5 is_stmt 1 view .LVU154
  72:sgl_port_sdl2.c ****         SDL_SetWindowIcon(*m_window, icon);
 594              		.loc 1 72 8 is_stmt 0 view .LVU155
 595 00eb 7413     		je	.L18
  73:sgl_port_sdl2.c ****         SDL_FreeSurface(icon);
 596              		.loc 1 73 9 is_stmt 1 view .LVU156
 597 00ed 488B0B   		movq	(%rbx), %rcx
 598 00f0 4889C2   		movq	%rax, %rdx
 599 00f3 E8000000 		call	SDL_SetWindowIcon
 599      00
 600              	.LVL57:
  74:sgl_port_sdl2.c ****     }
 601              		.loc 1 74 9 view .LVU157
 602 00f8 4889F1   		movq	%rsi, %rcx
 603 00fb E8000000 		call	SDL_FreeSurface
 603      00
 604              	.LVL58:
 605              	.LBB33:
  78:sgl_port_sdl2.c ****         sdl2_frame_buffer[i] = SGL_COLOR_WHITE;
 606              		.loc 1 78 21 discriminator 1 view .LVU158
 607              	.L18:
  78:sgl_port_sdl2.c ****         sdl2_frame_buffer[i] = SGL_COLOR_WHITE;
 608              		.loc 1 78 21 is_stmt 0 discriminator 1 view .LVU159
 609 0100 0FB70D00 		movzwl	.LC0(%rip), %ecx
 609      000000
 610 0107 488D1500 		leaq	sdl2_frame_buffer(%rip), %rdx
 610      000000
 611 010e 4C8D8280 		leaq	136320(%rdx), %r8
 611      140200
 612              		.p2align 4,,10
 613 0115 0F1F00   		.p2align 3
 614              	.L19:
 615              	.LVL59:
 616              	.LBB34:
  79:sgl_port_sdl2.c ****     }
 617              		.loc 1 79 9 is_stmt 1 view .LVU160
  79:sgl_port_sdl2.c ****     }
 618              		.loc 1 79 30 is_stmt 0 view .LVU161
 619 0118 66890A   		movw	%cx, (%rdx)
 620              	.LBE34:
  78:sgl_port_sdl2.c ****         sdl2_frame_buffer[i] = SGL_COLOR_WHITE;
 621              		.loc 1 78 74 is_stmt 1 discriminator 3 view .LVU162
 622              	.LVL60:
  78:sgl_port_sdl2.c ****         sdl2_frame_buffer[i] = SGL_COLOR_WHITE;
 623              		.loc 1 78 21 discriminator 1 view .LVU163
 624              	.LBB35:
  79:sgl_port_sdl2.c ****     }
 625              		.loc 1 79 9 view .LVU164
 626              	.LBE35:
GAS LISTING C:\Users\lsw\AppData\Local\Temp\ccSZcLze.s 			page 40


  78:sgl_port_sdl2.c ****         sdl2_frame_buffer[i] = SGL_COLOR_WHITE;
 627              		.loc 1 78 21 is_stmt 0 discriminator 1 view .LVU165
 628 011b 4883C204 		addq	$4, %rdx
 629              	.LVL61:
 630              	.LBB36:
  79:sgl_port_sdl2.c ****     }
 631              		.loc 1 79 30 view .LVU166
 632 011f 66894AFE 		movw	%cx, -2(%rdx)
 633              	.LBE36:
  78:sgl_port_sdl2.c ****         sdl2_frame_buffer[i] = SGL_COLOR_WHITE;
 634              		.loc 1 78 74 is_stmt 1 discriminator 3 view .LVU167
 635              	.LVL62:
  78:sgl_port_sdl2.c ****         sdl2_frame_buffer[i] = SGL_COLOR_WHITE;
 636              		.loc 1 78 21 discriminator 1 view .LVU168
 637 0123 4C39C2   		cmpq	%r8, %rdx
 638 0126 75F0     		jne	.L19
 639              	.LBE33:
  82:sgl_port_sdl2.c ****     SDL_RenderClear( *m_renderer );
 640              		.loc 1 82 5 view .LVU169
 641 0128 488B0D00 		movq	m_renderer(%rip), %rcx
 641      000000
 642 012f 4531C9   		xorl	%r9d, %r9d
 643 0132 4531C0   		xorl	%r8d, %r8d
 644 0135 31D2     		xorl	%edx, %edx
 645              	.LVL63:
  82:sgl_port_sdl2.c ****     SDL_RenderClear( *m_renderer );
 646              		.loc 1 82 5 is_stmt 0 view .LVU170
 647 0137 C7442420 		movl	$255, 32(%rsp)
 647      FF000000 
 648 013f E8000000 		call	SDL_SetRenderDrawColor
 648      00
 649              	.LVL64:
  83:sgl_port_sdl2.c ****     return 0;
 650              		.loc 1 83 5 is_stmt 1 view .LVU171
 651 0144 488B0D00 		movq	m_renderer(%rip), %rcx
 651      000000
 652 014b E8000000 		call	SDL_RenderClear
 652      00
 653              	.LVL65:
  84:sgl_port_sdl2.c **** }
 654              		.loc 1 84 5 view .LVU172
  84:sgl_port_sdl2.c **** }
 655              		.loc 1 84 5 is_stmt 0 view .LVU173
 656              	.LBE32:
 657              	.LBE31:
 187:sgl_port_sdl2.c ****         SGL_LOG_ERROR("SGL SDL2 create window failed");
 188:sgl_port_sdl2.c ****         sgl_free(sdl2_dev);
 189:sgl_port_sdl2.c ****         return NULL;
 190:sgl_port_sdl2.c ****     }
 191:sgl_port_sdl2.c **** 
 192:sgl_port_sdl2.c ****     sdl2_dev->systick = SDL_AddTimer(1000, system_tick, sdl2_dev);
 658              		.loc 1 192 5 is_stmt 1 view .LVU174
 659              		.loc 1 192 25 is_stmt 0 view .LVU175
 660 0150 4989D8   		movq	%rbx, %r8
 661 0153 B9E80300 		movl	$1000, %ecx
 661      00
 662 0158 488D1500 		leaq	system_tick(%rip), %rdx
GAS LISTING C:\Users\lsw\AppData\Local\Temp\ccSZcLze.s 			page 41


 662      000000
 663 015f E8000000 		call	SDL_AddTimer
 663      00
 664              	.LVL66:
 193:sgl_port_sdl2.c ****     sdl2_dev->anim_systick = SDL_AddTimer(1, anim_systick, sdl2_dev);
 665              		.loc 1 193 30 view .LVU176
 666 0164 4989D8   		movq	%rbx, %r8
 667 0167 B9010000 		movl	$1, %ecx
 667      00
 192:sgl_port_sdl2.c ****     sdl2_dev->anim_systick = SDL_AddTimer(1, anim_systick, sdl2_dev);
 668              		.loc 1 192 23 discriminator 1 view .LVU177
 669 016c 894308   		movl	%eax, 8(%rbx)
 670              		.loc 1 193 5 is_stmt 1 view .LVU178
 671              		.loc 1 193 30 is_stmt 0 view .LVU179
 672 016f 488D1500 		leaq	anim_systick(%rip), %rdx
 672      000000
 673 0176 E8000000 		call	SDL_AddTimer
 673      00
 674              	.LVL67:
 194:sgl_port_sdl2.c ****     sdl2_dev->frame_count = 0;
 675              		.loc 1 194 27 view .LVU180
 676 017b 48C74310 		movq	$0, 16(%rbx)
 676      00000000 
 193:sgl_port_sdl2.c ****     sdl2_dev->anim_systick = SDL_AddTimer(1, anim_systick, sdl2_dev);
 677              		.loc 1 193 28 discriminator 1 view .LVU181
 678 0183 89430C   		movl	%eax, 12(%rbx)
 679              		.loc 1 194 5 is_stmt 1 view .LVU182
 195:sgl_port_sdl2.c **** 
 196:sgl_port_sdl2.c ****     return sdl2_dev;
 680              		.loc 1 196 5 view .LVU183
 197:sgl_port_sdl2.c **** }
 681              		.loc 1 197 1 is_stmt 0 view .LVU184
 682 0186 4889D8   		movq	%rbx, %rax
 683 0189 4883C458 		addq	$88, %rsp
 684              		.cfi_remember_state
 685              		.cfi_def_cfa_offset 24
 686 018d 5B       		popq	%rbx
 687              		.cfi_restore 3
 688              		.cfi_def_cfa_offset 16
 689              	.LVL68:
 690              		.loc 1 197 1 view .LVU185
 691 018e 5E       		popq	%rsi
 692              		.cfi_restore 4
 693              		.cfi_def_cfa_offset 8
 694 018f C3       		ret
 695              	.LVL69:
 696              	.L26:
 697              		.cfi_restore_state
 181:sgl_port_sdl2.c ****         sgl_free(sdl2_dev);
 698              		.loc 1 181 9 is_stmt 1 view .LVU186
 699 0190 488D1579 		leaq	.LC5(%rip), %rdx
 699      000000
 700 0197 488D0D70 		leaq	.LC4(%rip), %rcx
 700      000000
 701 019e E8000000 		call	sgl_log
 701      00
 702              	.LVL70:
GAS LISTING C:\Users\lsw\AppData\Local\Temp\ccSZcLze.s 			page 42


 182:sgl_port_sdl2.c ****         return NULL;
 703              		.loc 1 182 9 view .LVU187
 704 01a3 4889D9   		movq	%rbx, %rcx
 177:sgl_port_sdl2.c ****     }
 705              		.loc 1 177 16 is_stmt 0 view .LVU188
 706 01a6 31DB     		xorl	%ebx, %ebx
 707              	.LVL71:
 182:sgl_port_sdl2.c ****         return NULL;
 708              		.loc 1 182 9 view .LVU189
 709 01a8 E8000000 		call	sgl_free
 709      00
 710              	.LVL72:
 183:sgl_port_sdl2.c ****     }
 711              		.loc 1 183 9 is_stmt 1 view .LVU190
 712              	.L28:
 713              		.loc 1 197 1 is_stmt 0 view .LVU191
 714 01ad 4889D8   		movq	%rbx, %rax
 715 01b0 4883C458 		addq	$88, %rsp
 716              		.cfi_remember_state
 717              		.cfi_def_cfa_offset 24
 718 01b4 5B       		popq	%rbx
 719              		.cfi_restore 3
 720              		.cfi_def_cfa_offset 16
 721 01b5 5E       		popq	%rsi
 722              		.cfi_restore 4
 723              		.cfi_def_cfa_offset 8
 724 01b6 C3       		ret
 725              	.LVL73:
 726              	.L27:
 727              		.cfi_restore_state
 187:sgl_port_sdl2.c ****         sgl_free(sdl2_dev);
 728              		.loc 1 187 9 is_stmt 1 view .LVU192
 729 01b7 488D1594 		leaq	.LC6(%rip), %rdx
 729      000000
 730 01be 488D0D70 		leaq	.LC4(%rip), %rcx
 730      000000
 731 01c5 E8000000 		call	sgl_log
 731      00
 732              	.LVL74:
 188:sgl_port_sdl2.c ****         return NULL;
 733              		.loc 1 188 9 view .LVU193
 734 01ca 4889D9   		movq	%rbx, %rcx
 177:sgl_port_sdl2.c ****     }
 735              		.loc 1 177 16 is_stmt 0 view .LVU194
 736 01cd 31DB     		xorl	%ebx, %ebx
 737              	.LVL75:
 188:sgl_port_sdl2.c ****         return NULL;
 738              		.loc 1 188 9 view .LVU195
 739 01cf E8000000 		call	sgl_free
 739      00
 740              	.LVL76:
 189:sgl_port_sdl2.c ****     }
 741              		.loc 1 189 9 is_stmt 1 view .LVU196
 742 01d4 EBD7     		jmp	.L28
 743              	.LVL77:
 744              	.L25:
 176:sgl_port_sdl2.c ****         return NULL;
GAS LISTING C:\Users\lsw\AppData\Local\Temp\ccSZcLze.s 			page 43


 745              		.loc 1 176 9 view .LVU197
 746 01d6 488D1548 		leaq	.LC3(%rip), %rdx
 746      000000
 177:sgl_port_sdl2.c ****     }
 747              		.loc 1 177 16 is_stmt 0 view .LVU198
 748 01dd 31DB     		xorl	%ebx, %ebx
 176:sgl_port_sdl2.c ****         return NULL;
 749              		.loc 1 176 9 view .LVU199
 750 01df 488D0D70 		leaq	.LC4(%rip), %rcx
 750      000000
 751 01e6 E8000000 		call	sgl_log
 751      00
 752              	.LVL78:
 177:sgl_port_sdl2.c ****     }
 753              		.loc 1 177 9 is_stmt 1 view .LVU200
 754 01eb EBC0     		jmp	.L28
 755              		.cfi_endproc
 756              	.LFE6955:
 757              		.seh_endproc
 758 01ed 909090   		.section	.text$sgl_port_sdl2_get_frame_count,"x"
 759              		.p2align 4
 760              		.globl	sgl_port_sdl2_get_frame_count
 762              		.seh_proc	sgl_port_sdl2_get_frame_count
 763              	sgl_port_sdl2_get_frame_count:
 764              	.LVL79:
 765              	.LFB6956:
 198:sgl_port_sdl2.c **** 
 199:sgl_port_sdl2.c **** 
 200:sgl_port_sdl2.c **** size_t sgl_port_sdl2_get_frame_count(sgl_port_sdl2_t* sdl2_dev)
 201:sgl_port_sdl2.c **** {
 766              		.loc 1 201 1 view -0
 767              		.cfi_startproc
 768              		.loc 1 201 1 is_stmt 0 view .LVU202
 769              		.seh_endprologue
 202:sgl_port_sdl2.c ****     return sdl2_dev->frame_count;
 770              		.loc 1 202 5 is_stmt 1 view .LVU203
 771              		.loc 1 202 20 is_stmt 0 discriminator 1 view .LVU204
 772 0000 488B4110 		movq	16(%rcx), %rax
 203:sgl_port_sdl2.c **** }
 773              		.loc 1 203 1 view .LVU205
 774 0004 C3       		ret
 775              		.cfi_endproc
 776              	.LFE6956:
 777              		.seh_endproc
 778 0005 90909090 		.section	.text$sgl_port_sdl2_increase_frame_count,"x"
 778      90909090 
 778      909090
 779              		.p2align 4
 780              		.globl	sgl_port_sdl2_increase_frame_count
 782              		.seh_proc	sgl_port_sdl2_increase_frame_count
 783              	sgl_port_sdl2_increase_frame_count:
 784              	.LVL80:
 785              	.LFB6957:
 204:sgl_port_sdl2.c **** 
 205:sgl_port_sdl2.c **** 
 206:sgl_port_sdl2.c **** void sgl_port_sdl2_increase_frame_count(sgl_port_sdl2_t* sdl2_dev)
 207:sgl_port_sdl2.c **** {
GAS LISTING C:\Users\lsw\AppData\Local\Temp\ccSZcLze.s 			page 44


 786              		.loc 1 207 1 is_stmt 1 view -0
 787              		.cfi_startproc
 788              		.loc 1 207 1 is_stmt 0 view .LVU207
 789              		.seh_endprologue
 208:sgl_port_sdl2.c ****     sdl2_dev->frame_count ++;
 790              		.loc 1 208 5 is_stmt 1 view .LVU208
 791              		.loc 1 208 27 is_stmt 0 view .LVU209
 792 0000 48834110 		addq	$1, 16(%rcx)
 792      01
 209:sgl_port_sdl2.c **** }
 793              		.loc 1 209 1 view .LVU210
 794 0005 C3       		ret
 795              		.cfi_endproc
 796              	.LFE6957:
 797              		.seh_endproc
 798 0006 90909090 		.section	.text$sgl_port_sdl2_deinit,"x"
 798      90909090 
 798      9090
 799              		.p2align 4
 800              		.globl	sgl_port_sdl2_deinit
 802              		.seh_proc	sgl_port_sdl2_deinit
 803              	sgl_port_sdl2_deinit:
 804              	.LVL81:
 805              	.LFB6958:
 210:sgl_port_sdl2.c **** 
 211:sgl_port_sdl2.c **** 
 212:sgl_port_sdl2.c **** void sgl_port_sdl2_deinit(sgl_port_sdl2_t* sdl2_dev)
 213:sgl_port_sdl2.c **** {
 806              		.loc 1 213 1 is_stmt 1 view -0
 807              		.cfi_startproc
 808              		.loc 1 213 1 is_stmt 0 view .LVU212
 809 0000 53       		pushq	%rbx
 810              		.seh_pushreg	%rbx
 811              		.cfi_def_cfa_offset 16
 812              		.cfi_offset 3, -16
 813 0001 4883EC20 		subq	$32, %rsp
 814              		.seh_stackalloc	32
 815              		.cfi_def_cfa_offset 48
 816              		.seh_endprologue
 214:sgl_port_sdl2.c ****     SDL_RemoveTimer(sdl2_dev->systick);
 817              		.loc 1 214 5 is_stmt 1 view .LVU213
 213:sgl_port_sdl2.c ****     SDL_RemoveTimer(sdl2_dev->systick);
 818              		.loc 1 213 1 is_stmt 0 view .LVU214
 819 0005 4889CB   		movq	%rcx, %rbx
 820              		.loc 1 214 5 view .LVU215
 821 0008 8B4908   		movl	8(%rcx), %ecx
 822              	.LVL82:
 823              		.loc 1 214 5 view .LVU216
 824 000b E8000000 		call	SDL_RemoveTimer
 824      00
 825              	.LVL83:
 215:sgl_port_sdl2.c ****     SDL_RemoveTimer(sdl2_dev->anim_systick);
 826              		.loc 1 215 5 is_stmt 1 view .LVU217
 827 0010 8B4B0C   		movl	12(%rbx), %ecx
 828 0013 E8000000 		call	SDL_RemoveTimer
 828      00
 829              	.LVL84:
GAS LISTING C:\Users\lsw\AppData\Local\Temp\ccSZcLze.s 			page 45


 216:sgl_port_sdl2.c ****     SDL_DestroyWindow(sdl2_dev->m_window);
 830              		.loc 1 216 5 view .LVU218
 831 0018 488B0B   		movq	(%rbx), %rcx
 832 001b E8000000 		call	SDL_DestroyWindow
 832      00
 833              	.LVL85:
 217:sgl_port_sdl2.c ****     SDL_DestroyRenderer(m_renderer);
 834              		.loc 1 217 5 view .LVU219
 835 0020 488B0D00 		movq	m_renderer(%rip), %rcx
 835      000000
 218:sgl_port_sdl2.c **** }
 836              		.loc 1 218 1 is_stmt 0 view .LVU220
 837 0027 4883C420 		addq	$32, %rsp
 838              		.cfi_def_cfa_offset 16
 839 002b 5B       		popq	%rbx
 840              		.cfi_restore 3
 841              		.cfi_def_cfa_offset 8
 842              	.LVL86:
 217:sgl_port_sdl2.c ****     SDL_DestroyRenderer(m_renderer);
 843              		.loc 1 217 5 view .LVU221
 844 002c E9000000 		jmp	SDL_DestroyRenderer
 844      00
 845              	.LVL87:
 846              		.cfi_endproc
 847              	.LFE6958:
 848              		.seh_endproc
 849 0031 90909090 		.section	.data$panel_buffer1,"w"
 849      90909090 
 849      90909090 
 849      909090
 850              		.align 32
 851              	panel_buffer1:
 852 0000 00000000 		.space 1920
 852      00000000 
 852      00000000 
 852      00000000 
 852      00000000 
 853              		.section	.data$panel_buffer0,"w"
 854              		.align 32
 855              	panel_buffer0:
 856 0000 00000000 		.space 1920
 856      00000000 
 856      00000000 
 856      00000000 
 856      00000000 
 857              		.globl	sdl2_frame_buffer
 858              		.section	.data$sdl2_frame_buffer,"w"
 859              		.align 32
 860              	sdl2_frame_buffer:
 861 0000 00000000 		.space 136320
 861      00000000 
 861      00000000 
 861      00000000 
 861      00000000 
 862              		.section	.data$m_renderer,"w"
 863              		.align 8
 864              	m_renderer:
GAS LISTING C:\Users\lsw\AppData\Local\Temp\ccSZcLze.s 			page 46


 865 0000 00000000 		.space 8
 865      00000000 
 866 0008 00000000 		.text
 866      00000000 
 867              	.Letext0:
 868              		.file 3 "C:/mingw64/x86_64-w64-mingw32/include/corecrt.h"
 869              		.file 4 "C:/mingw64/lib/gcc/x86_64-w64-mingw32/13.2.0/include/stdint-gcc.h"
 870              		.file 5 "sdl/include/SDL2/SDL_stdinc.h"
 871              		.file 6 "sdl/include/SDL2/SDL_rwops.h"
 872              		.file 7 "sdl/include/SDL2/SDL_pixels.h"
 873              		.file 8 "sdl/include/SDL2/SDL_rect.h"
 874              		.file 9 "sdl/include/SDL2/SDL_surface.h"
 875              		.file 10 "sdl/include/SDL2/SDL_video.h"
 876              		.file 11 "sdl/include/SDL2/SDL_scancode.h"
 877              		.file 12 "sdl/include/SDL2/SDL_keycode.h"
 878              		.file 13 "sdl/include/SDL2/SDL_keyboard.h"
 879              		.file 14 "sdl/include/SDL2/SDL_joystick.h"
 880              		.file 15 "sdl/include/SDL2/SDL_touch.h"
 881              		.file 16 "sdl/include/SDL2/SDL_gesture.h"
 882              		.file 17 "sdl/include/SDL2/SDL_events.h"
 883              		.file 18 "sdl/include/SDL2/SDL_messagebox.h"
 884              		.file 19 "sdl/include/SDL2/SDL_render.h"
 885              		.file 20 "sdl/include/SDL2/SDL_timer.h"
 886              		.file 21 "C:/mingw64/x86_64-w64-mingw32/include/stdio.h"
 887              		.file 22 "../source/sgl_mm.h"
 888              		.file 23 "C:/mingw64/x86_64-w64-mingw32/include/string.h"
 889              		.file 24 "sdl/include/SDL2/SDL.h"
 8988 0033 433A2F55 		.section	.rdata$.refptr.sgl_system, "dr"
 8988      73657273 
 8988      2F6C7377 
 8988      2F446573 
 8988      6B746F70 
 8989              		.globl	.refptr.sgl_system
 8990              		.linkonce	discard
 8991              	.refptr.sgl_system:
 8992 0000 00000000 		.quad	sgl_system
 8992      00000000 
 8992      00000000 
 8992      00000000 
GAS LISTING C:\Users\lsw\AppData\Local\Temp\ccSZcLze.s 			page 228

