GAS LISTING C:\Users\lsw\AppData\Local\Temp\ccSZcLze.s 			page 1


   1              		.file	"sgl_port_sdl2.c"
   2              		.text
   3              	.Ltext0:
   4              		.cfi_sections	.debug_frame
   5              		.file 0 "C:/Users/lsw/Desktop/sgl-lite/demo" "sgl_port_sdl2.c"
   6              		.section	.text$anim_systick,"x"
   7              		.p2align 4
   9              		.seh_proc	anim_systick
  10              	anim_systick:
  11              	.LVL0:
  12              	.LFB6951:
  13              		.file 1 "sgl_port_sdl2.c"
   1:sgl_port_sdl2.c **** /* source/port/sgl_port.c
   2:sgl_port_sdl2.c ****  *
   3:sgl_port_sdl2.c ****  * MIT License
   4:sgl_port_sdl2.c ****  *
   5:sgl_port_sdl2.c ****  * Copyright(c) 2023-present All contributors of SGL  
   6:sgl_port_sdl2.c ****  * Document reference link: docs directory
   7:sgl_port_sdl2.c ****  * 
   8:sgl_port_sdl2.c ****  * Permission is hereby granted, free of charge, to any person obtaining a copy
   9:sgl_port_sdl2.c ****  * of this software and associated documentation files (the "Software"), to deal
  10:sgl_port_sdl2.c ****  * in the Software without restriction, including without limitation the rights
  11:sgl_port_sdl2.c ****  * to use, copy, modify, merge, publish, distribute, sublicense, and/or sell
  12:sgl_port_sdl2.c ****  * copies of the Software, and to permit persons to whom the Software is
  13:sgl_port_sdl2.c ****  * furnished to do so, subject to the following conditions:
  14:sgl_port_sdl2.c ****  * The above copyright notice and this permission notice shall be included in all
  15:sgl_port_sdl2.c ****  * copies or substantial portions of the Software.
  16:sgl_port_sdl2.c ****  * THE SOFTWARE IS PROVIDED "AS IS", WITHOUT WARRANTY OF ANY KIND, EXPRESS OR
  17:sgl_port_sdl2.c ****  * IMPLIED, INCLUDING BUT NOT LIMITED TO THE WARRANTIES OF MERCHANTABILITY,
  18:sgl_port_sdl2.c ****  * FITNESS FOR A PARTICULAR PURPOSE AND NONINFRINGEMENT. IN NO EVENT SHALL THE
  19:sgl_port_sdl2.c ****  * AUTHORS OR COPYRIGHT HOLDERS BE LIABLE FOR ANY CLAIM, DAMAGES OR OTHER
  20:sgl_port_sdl2.c ****  * LIABILITY, WHETHER IN AN ACTION OF CONTRACT, TORT OR OTHERWISE, ARISING FROM,
  21:sgl_port_sdl2.c ****  * OUT OF OR IN CONNECTION WITH THE SOFTWARE OR THE USE OR OTHER DEALINGS IN THE
  22:sgl_port_sdl2.c ****  * SOFTWARE.
  23:sgl_port_sdl2.c ****  */
  24:sgl_port_sdl2.c **** 
  25:sgl_port_sdl2.c **** 
  26:sgl_port_sdl2.c **** #include <SDL.h>
  27:sgl_port_sdl2.c **** #include <stdlib.h>
  28:sgl_port_sdl2.c **** #include <time.h>
  29:sgl_port_sdl2.c **** #include <stdio.h>
  30:sgl_port_sdl2.c **** #include <sgl.h>
  31:sgl_port_sdl2.c **** 
  32:sgl_port_sdl2.c **** 
  33:sgl_port_sdl2.c **** #define  CONFIG_SGL_PANEL_WIDTH         240
  34:sgl_port_sdl2.c **** #define  CONFIG_SGL_PANEL_HEIGHT        284
  35:sgl_port_sdl2.c **** #define  CONFIG_SGL_PANEL_BUFFER_LINE   4
  36:sgl_port_sdl2.c **** 
  37:sgl_port_sdl2.c **** 
  38:sgl_port_sdl2.c **** static SDL_Renderer * m_renderer = NULL;
  39:sgl_port_sdl2.c **** 
  40:sgl_port_sdl2.c **** typedef struct sgl_port_sdl2 {
  41:sgl_port_sdl2.c ****     SDL_Window    *m_window;
  42:sgl_port_sdl2.c ****     SDL_TimerID   systick;
  43:sgl_port_sdl2.c ****     SDL_TimerID   anim_systick;
  44:sgl_port_sdl2.c ****     size_t        frame_count;
  45:sgl_port_sdl2.c **** } sgl_port_sdl2_t;
GAS LISTING C:\Users\lsw\AppData\Local\Temp\ccSZcLze.s 			page 2


  46:sgl_port_sdl2.c **** 
  47:sgl_port_sdl2.c **** 
  48:sgl_port_sdl2.c **** #if (CONFIG_SGL_FBDEV_PIXEL_DEPTH == 32)
  49:sgl_port_sdl2.c **** #define  SDL_PIXEL_FORMAT       SDL_PIXELFORMAT_ARGB8888
  50:sgl_port_sdl2.c **** #elif (CONFIG_SGL_FBDEV_PIXEL_DEPTH == 24)
  51:sgl_port_sdl2.c **** #define  SDL_PIXEL_FORMAT       SDL_PIXELFORMAT_BGR24
  52:sgl_port_sdl2.c **** #elif (CONFIG_SGL_FBDEV_PIXEL_DEPTH == 16)
  53:sgl_port_sdl2.c **** #define  SDL_PIXEL_FORMAT       SDL_PIXELFORMAT_RGB565
  54:sgl_port_sdl2.c **** #elif (CONFIG_SGL_FBDEV_PIXEL_DEPTH == 8)
  55:sgl_port_sdl2.c **** #define  SDL_PIXEL_FORMAT       SDL_PIXELFORMAT_RGB332
  56:sgl_port_sdl2.c **** #endif
  57:sgl_port_sdl2.c **** 
  58:sgl_port_sdl2.c **** 
  59:sgl_port_sdl2.c **** sgl_color_t sdl2_frame_buffer[CONFIG_SGL_PANEL_WIDTH * CONFIG_SGL_PANEL_HEIGHT] = {0};
  60:sgl_port_sdl2.c **** 
  61:sgl_port_sdl2.c **** 
  62:sgl_port_sdl2.c **** static int sdl_create_windows(SDL_Window **m_window, SDL_Renderer **m_renderer, const char *title)
  63:sgl_port_sdl2.c **** {
  64:sgl_port_sdl2.c ****     if ( SDL_CreateWindowAndRenderer( CONFIG_SGL_PANEL_WIDTH, CONFIG_SGL_PANEL_HEIGHT, SDL_WINDOW_S
  65:sgl_port_sdl2.c ****                                       &(*m_window), &(*m_renderer )) != 0 ) {
  66:sgl_port_sdl2.c ****         return -1;
  67:sgl_port_sdl2.c ****     }
  68:sgl_port_sdl2.c **** 
  69:sgl_port_sdl2.c ****     SDL_SetWindowTitle(*m_window, title);
  70:sgl_port_sdl2.c **** 
  71:sgl_port_sdl2.c ****     SDL_Surface* icon = SDL_LoadBMP("sgl_log.bmp");
  72:sgl_port_sdl2.c ****     if (icon) {
  73:sgl_port_sdl2.c ****         SDL_SetWindowIcon(*m_window, icon);
  74:sgl_port_sdl2.c ****         SDL_FreeSurface(icon);
  75:sgl_port_sdl2.c ****     }
  76:sgl_port_sdl2.c **** 
  77:sgl_port_sdl2.c ****     // Clear the window with a SGL_COLOR_WHITE background
  78:sgl_port_sdl2.c ****     for(int i = 0; i< CONFIG_SGL_PANEL_WIDTH * CONFIG_SGL_PANEL_HEIGHT; i++) {
  79:sgl_port_sdl2.c ****         sdl2_frame_buffer[i] = SGL_COLOR_WHITE;
  80:sgl_port_sdl2.c ****     }
  81:sgl_port_sdl2.c **** 
  82:sgl_port_sdl2.c ****     SDL_SetRenderDrawColor( *m_renderer, 0, 0, 0, 255);
  83:sgl_port_sdl2.c ****     SDL_RenderClear( *m_renderer );
  84:sgl_port_sdl2.c ****     return 0;
  85:sgl_port_sdl2.c **** }
  86:sgl_port_sdl2.c **** 
  87:sgl_port_sdl2.c **** 
  88:sgl_port_sdl2.c **** static void flush_window(SDL_Renderer * m_renderer)
  89:sgl_port_sdl2.c **** {
  90:sgl_port_sdl2.c ****     SDL_Texture *texture = SDL_CreateTexture(m_renderer, SDL_PIXEL_FORMAT, SDL_TEXTUREACCESS_STREAM
  91:sgl_port_sdl2.c ****     SDL_UpdateTexture(texture, NULL, sdl2_frame_buffer, CONFIG_SGL_PANEL_WIDTH * sizeof(sgl_color_t
  92:sgl_port_sdl2.c ****     SDL_RenderCopy(m_renderer, texture, NULL, NULL);
  93:sgl_port_sdl2.c ****     SDL_RenderPresent(m_renderer);
  94:sgl_port_sdl2.c ****     SDL_DestroyTexture(texture);
  95:sgl_port_sdl2.c **** }
  96:sgl_port_sdl2.c **** 
  97:sgl_port_sdl2.c **** 
  98:sgl_port_sdl2.c **** static uint32_t system_tick(uint32_t interval, void *param)
  99:sgl_port_sdl2.c **** {
 100:sgl_port_sdl2.c ****     sgl_mm_monitor_t mm = sgl_mm_get_monitor();
 101:sgl_port_sdl2.c ****     sgl_port_sdl2_t *sdl2_dev = (sgl_port_sdl2_t*)param;
 102:sgl_port_sdl2.c ****     SGL_UNUSED(mm);
GAS LISTING C:\Users\lsw\AppData\Local\Temp\ccSZcLze.s 			page 3


 103:sgl_port_sdl2.c ****     printf("SGL SDL2 Frame = %lld\n", sdl2_dev->frame_count);
 104:sgl_port_sdl2.c ****     printf("Memory: total: %lld used: %lld, free = %lld\n", mm.total_size, mm.used_size, mm.free_si
 105:sgl_port_sdl2.c ****     sdl2_dev->frame_count = 0;
 106:sgl_port_sdl2.c **** 	return interval;
 107:sgl_port_sdl2.c **** }
 108:sgl_port_sdl2.c **** 
 109:sgl_port_sdl2.c **** 
 110:sgl_port_sdl2.c **** static uint32_t anim_systick(uint32_t interval, void *param)
 111:sgl_port_sdl2.c **** {
  14              		.loc 1 111 1 view -0
  15              		.cfi_startproc
  16              		.loc 1 111 1 is_stmt 0 view .LVU1
  17              		.seh_endprologue
 112:sgl_port_sdl2.c ****     SGL_UNUSED(param);
  18              		.loc 1 112 5 is_stmt 1 view .LVU2
 113:sgl_port_sdl2.c ****     sgl_tick_inc(1);
  19              		.loc 1 113 5 view .LVU3
  20              	.LVL1:
  21              	.LBB6:
  22              	.LBI6:
  23              		.file 2 "../source/sgl_core.h"
   1:../source/sgl_core.h **** /* source: sgl_core.h
   2:../source/sgl_core.h ****  * Copyright (c) 2026-2028, Lishanwen
   3:../source/sgl_core.h ****  *
   4:../source/sgl_core.h ****  * Licensed under the Apache License, Version 2.0 (the "License");
   5:../source/sgl_core.h ****  * you may not use this file except in compliance with the License.
   6:../source/sgl_core.h ****  * You may obtain a copy of the License at
   7:../source/sgl_core.h ****  *
   8:../source/sgl_core.h ****  *     http://www.apache.org/licenses/LICENSE-2.0
   9:../source/sgl_core.h ****  *
  10:../source/sgl_core.h ****  * Unless required by applicable law or agreed to in writing, software
  11:../source/sgl_core.h ****  * distributed under the License is distributed on an "AS IS" BASIS,
  12:../source/sgl_core.h ****  * WITHOUT WARRANTIES OR CONDITIONS OF ANY KIND, either express or implied.
  13:../source/sgl_core.h ****  * See the License for the specific language governing permissions and
  14:../source/sgl_core.h ****  * limitations under the License.
  15:../source/sgl_core.h ****  */
  16:../source/sgl_core.h **** 
  17:../source/sgl_core.h **** #ifndef __SGL_CORE_H__
  18:../source/sgl_core.h **** #define __SGL_CORE_H__
  19:../source/sgl_core.h **** 
  20:../source/sgl_core.h **** #include "sgl_config.h"
  21:../source/sgl_core.h **** #include <stdint.h>
  22:../source/sgl_core.h **** #include <stdbool.h>
  23:../source/sgl_core.h **** #include <stddef.h>
  24:../source/sgl_core.h **** #include <string.h>
  25:../source/sgl_core.h **** #include <stdarg.h>
  26:../source/sgl_core.h **** 
  27:../source/sgl_core.h **** #ifdef __cplusplus
  28:../source/sgl_core.h **** extern "C" {
  29:../source/sgl_core.h **** #endif
  30:../source/sgl_core.h **** 
  31:../source/sgl_core.h **** #ifndef CONFIG_SGL_FBDEV_PIXEL_DEPTH
  32:../source/sgl_core.h **** #define CONFIG_SGL_FBDEV_PIXEL_DEPTH             (16)
  33:../source/sgl_core.h **** #endif
  34:../source/sgl_core.h **** 
  35:../source/sgl_core.h **** #ifndef CONFIG_SGL_SYSTICK_MS
  36:../source/sgl_core.h **** #define CONFIG_SGL_SYSTICK_MS                    (10)
GAS LISTING C:\Users\lsw\AppData\Local\Temp\ccSZcLze.s 			page 4


  37:../source/sgl_core.h **** #endif
  38:../source/sgl_core.h **** 
  39:../source/sgl_core.h **** #ifndef CONFIG_SGL_HEAP_SIZE
  40:../source/sgl_core.h **** #define CONFIG_SGL_HEAP_SIZE                     (10240)
  41:../source/sgl_core.h **** #endif
  42:../source/sgl_core.h **** 
  43:../source/sgl_core.h **** #ifndef CONFIG_SGL_DEBUG
  44:../source/sgl_core.h **** #define CONFIG_SGL_DEBUG                         (0)
  45:../source/sgl_core.h **** #endif
  46:../source/sgl_core.h **** 
  47:../source/sgl_core.h **** #ifndef CONFIG_SGL_FONT_COMPRESSED
  48:../source/sgl_core.h **** #define CONFIG_SGL_FONT_COMPRESSED               (0)
  49:../source/sgl_core.h **** #endif
  50:../source/sgl_core.h **** 
  51:../source/sgl_core.h **** #ifndef CONFIG_SGL_FONT_SMALL_TABLE
  52:../source/sgl_core.h **** #define CONFIG_SGL_FONT_SMALL_TABLE              (0)
  53:../source/sgl_core.h **** #endif
  54:../source/sgl_core.h **** 
  55:../source/sgl_core.h **** /* the maximum depth of object*/
  56:../source/sgl_core.h **** #define  SGL_OBJ_DEPTH_MAX                       (8)
  57:../source/sgl_core.h **** /* the maximum number of drawing buffers */
  58:../source/sgl_core.h **** #define  SGL_DRAW_BUFFER_MAX                     (2)
  59:../source/sgl_core.h **** /* define default animation tick ms */
  60:../source/sgl_core.h **** #define  SGL_SYSTEM_TICK_MS                      CONFIG_SGL_SYSTICK_MS
  61:../source/sgl_core.h **** 
  62:../source/sgl_core.h **** 
  63:../source/sgl_core.h **** /**
  64:../source/sgl_core.h ****  * @brief Get the offset of internal members of the structure
  65:../source/sgl_core.h ****  * 
  66:../source/sgl_core.h ****  * @struct_t: structure typedef 
  67:../source/sgl_core.h ****  * @member: member in structure
  68:../source/sgl_core.h ****  * 
  69:../source/sgl_core.h ****  * @return offset of member in the structure
  70:../source/sgl_core.h **** */
  71:../source/sgl_core.h **** #define sgl_offsetof(struct_t, member)          ((size_t)&((struct_t*)0)->member)
  72:../source/sgl_core.h **** 
  73:../source/sgl_core.h **** 
  74:../source/sgl_core.h **** /**
  75:../source/sgl_core.h ****  * @brief Get the address of the structure instance.
  76:../source/sgl_core.h ****  *
  77:../source/sgl_core.h ****  * @ptr: address of the structure member.
  78:../source/sgl_core.h ****  * @type: type of the structure.
  79:../source/sgl_core.h ****  * @member: member name of the ptr in structure.
  80:../source/sgl_core.h ****  * @return pointer to address of structure 
  81:../source/sgl_core.h ****  */
  82:../source/sgl_core.h **** #define sgl_container_of(ptr, type, member)     ((type *)((char *)ptr - sgl_offsetof(type, member))
  83:../source/sgl_core.h **** 
  84:../source/sgl_core.h **** 
  85:../source/sgl_core.h **** #ifndef SGL_ARRAY_SIZE
  86:../source/sgl_core.h **** #define SGL_ARRAY_SIZE(array)                   (sizeof(array) / sizeof(array[0]))
  87:../source/sgl_core.h **** #endif
  88:../source/sgl_core.h **** 
  89:../source/sgl_core.h **** 
  90:../source/sgl_core.h **** #define SGL_ALIGN_UP(x, align)                  (((x) + ((align) - 1)) & ~((align) - 1))
  91:../source/sgl_core.h **** #define SGL_ROUND_UP(x, round)                  ((((x) + ((round) - 1)) / (round)) * (round))
  92:../source/sgl_core.h **** 
  93:../source/sgl_core.h **** #define SGL_UNUSED(x)                           (void)(x)
GAS LISTING C:\Users\lsw\AppData\Local\Temp\ccSZcLze.s 			page 5


  94:../source/sgl_core.h **** 
  95:../source/sgl_core.h **** 
  96:../source/sgl_core.h **** #define SGL_POS_INVALID                         (0xefff)
  97:../source/sgl_core.h **** #define SGL_POS_MAX                             (8192)
  98:../source/sgl_core.h **** #define SGL_POS_MIN                             (-8192)
  99:../source/sgl_core.h **** #define SGL_RADIUS_INVALID                      (0xFFF)
 100:../source/sgl_core.h **** 
 101:../source/sgl_core.h **** #define SGL_AREA_MAX                            {.x1 = SGL_POS_MIN, .y1 = SGL_POS_MIN, .x2 = SGL_PO
 102:../source/sgl_core.h **** #define SGL_AREA_INVALID                        {.x1 = SGL_POS_MAX, .y1 = SGL_POS_MAX, .x2 = SGL_PO
 103:../source/sgl_core.h **** 
 104:../source/sgl_core.h **** #define SGL_WIDTH_INVALID                       (-1)
 105:../source/sgl_core.h **** #define SGL_WIDTH_MAX                           (8192)
 106:../source/sgl_core.h **** #define SGL_WIDTH_MIN                           (0)
 107:../source/sgl_core.h **** #define SGL_HEIGHT_INVALID                      (-1)
 108:../source/sgl_core.h **** #define SGL_HEIGHT_MAX                          (8192)
 109:../source/sgl_core.h **** #define SGL_HEIGHT_MIN                          (0)
 110:../source/sgl_core.h **** 
 111:../source/sgl_core.h **** 
 112:../source/sgl_core.h **** #define SGL_DIRECT_HORIZONTAL                   (0)
 113:../source/sgl_core.h **** #define SGL_DIRECT_VERTICAL                     (1)
 114:../source/sgl_core.h **** 
 115:../source/sgl_core.h **** 
 116:../source/sgl_core.h **** #define SGL_ALPHA_MAX                           (255)
 117:../source/sgl_core.h **** #define SGL_ALPHA_MIN                           (0)
 118:../source/sgl_core.h **** #define SGL_ALPHA_NUM                           (256)
 119:../source/sgl_core.h **** 
 120:../source/sgl_core.h **** 
 121:../source/sgl_core.h **** #define SGL_STYLE_OK                            (0)
 122:../source/sgl_core.h **** #define SGL_STYLE_FAILED                        (UINT32_MAX)
 123:../source/sgl_core.h **** #define SGL_STYLE_INVALID                       (UINT32_MAX)
 124:../source/sgl_core.h **** 
 125:../source/sgl_core.h **** 
 126:../source/sgl_core.h **** #define SGL_COLOR_RGB233                        (8)
 127:../source/sgl_core.h **** #define SGL_COLOR_RGB565                        (16)
 128:../source/sgl_core.h **** #define SGL_COLOR_RGB888                        (24)
 129:../source/sgl_core.h **** #define SGL_COLOR_ARGB8888                      (32)
 130:../source/sgl_core.h **** 
 131:../source/sgl_core.h **** /* the pixmap format */
 132:../source/sgl_core.h **** #define  SGL_PIXMAP_FMT_NONE                    (0)
 133:../source/sgl_core.h **** #define  SGL_PIXMAP_FMT_RGB332                  (1)
 134:../source/sgl_core.h **** #define  SGL_PIXMAP_FMT_RGB565                  (2)
 135:../source/sgl_core.h **** #define  SGL_PIXMAP_FMT_RGB888                  (3)
 136:../source/sgl_core.h **** #define  SGL_PIXMAP_FMT_RLE_RGB332              (4)
 137:../source/sgl_core.h **** #define  SGL_PIXMAP_FMT_RLE_RGB565              (5)
 138:../source/sgl_core.h **** #define  SGL_PIXMAP_FMT_RLE_RGB888              (6)
 139:../source/sgl_core.h **** #define  SGL_PIXMAP_FMT_RLE_RGBA8888            (7)
 140:../source/sgl_core.h **** #define  SGL_PIXMAP_FMT_RLE_1                   (8)
 141:../source/sgl_core.h **** #define  SGL_PIXMAP_FMT_MAX                     (9)
 142:../source/sgl_core.h **** 
 143:../source/sgl_core.h **** 
 144:../source/sgl_core.h **** #ifdef __GNUC__            /* gcc compiler   */
 145:../source/sgl_core.h **** #ifndef likely
 146:../source/sgl_core.h **** #  define likely(x)                             __builtin_expect(!!(x), 1)
 147:../source/sgl_core.h **** #  define unlikely(x)                           __builtin_expect(!!(x), 0)
 148:../source/sgl_core.h **** #endif
 149:../source/sgl_core.h **** #elif defined(__clang__)   /* clang compiler */
 150:../source/sgl_core.h **** #ifndef likely
GAS LISTING C:\Users\lsw\AppData\Local\Temp\ccSZcLze.s 			page 6


 151:../source/sgl_core.h **** #  define likely(x)                             __builtin_expect(!!(x), 1)
 152:../source/sgl_core.h **** #  define unlikely(x)                           __builtin_expect(!!(x), 0)
 153:../source/sgl_core.h **** #endif
 154:../source/sgl_core.h **** #elif defined(__CC_ARM)    /* RealView compiler (Keil ARMCC) */
 155:../source/sgl_core.h **** #ifndef likely
 156:../source/sgl_core.h **** #  define likely(x)                             __builtin_expect(!!(x), 1)
 157:../source/sgl_core.h **** #  define unlikely(x)                           __builtin_expect(!!(x), 0)
 158:../source/sgl_core.h **** #endif
 159:../source/sgl_core.h **** #elif defined(__ICCARM__)  /* IAR compiler    */
 160:../source/sgl_core.h **** #ifndef likely
 161:../source/sgl_core.h **** #  define likely(x)                             __iar_builtin_expect(!!(x), 1)
 162:../source/sgl_core.h **** #  define unlikely(x)                           __iar_builtin_expect(!!(x), 0)
 163:../source/sgl_core.h **** #endif
 164:../source/sgl_core.h **** #elif defined(_MSC_VER)    /* MSVC compiler   */
 165:../source/sgl_core.h **** #ifndef likely
 166:../source/sgl_core.h **** #  define likely(x)                             (x)
 167:../source/sgl_core.h **** #  define unlikely(x)                           (x)
 168:../source/sgl_core.h **** #endif
 169:../source/sgl_core.h **** #elif defined(__MINGW32__) /* MinGW compiler  */
 170:../source/sgl_core.h **** #ifndef likely
 171:../source/sgl_core.h **** #define likely(x)                               __builtin_expect(!!(x), 1)
 172:../source/sgl_core.h **** #define unlikely(x)                             __builtin_expect(!!(x), 0)
 173:../source/sgl_core.h **** #endif
 174:../source/sgl_core.h **** #else                      /* others compiler */
 175:../source/sgl_core.h **** #ifndef likely
 176:../source/sgl_core.h **** #  define likely(x)                             (x)
 177:../source/sgl_core.h **** #  define unlikely(x)                           (x)
 178:../source/sgl_core.h **** #endif
 179:../source/sgl_core.h **** #endif
 180:../source/sgl_core.h **** 
 181:../source/sgl_core.h **** /**
 182:../source/sgl_core.h **** * @brief This structure defines a 32 bit color bit field
 183:../source/sgl_core.h **** *
 184:../source/sgl_core.h **** * @blue: Blue color component
 185:../source/sgl_core.h **** * @green: Green color component
 186:../source/sgl_core.h **** * @red: Red color component
 187:../source/sgl_core.h **** * @alpha: Color transparency
 188:../source/sgl_core.h **** */
 189:../source/sgl_core.h **** typedef union {
 190:../source/sgl_core.h ****     struct {
 191:../source/sgl_core.h ****         uint8_t blue;
 192:../source/sgl_core.h ****         uint8_t green;
 193:../source/sgl_core.h ****         uint8_t red;
 194:../source/sgl_core.h ****         uint8_t alpha;
 195:../source/sgl_core.h ****     } ch;
 196:../source/sgl_core.h ****     uint32_t full;
 197:../source/sgl_core.h **** } sgl_color32_t;
 198:../source/sgl_core.h **** 
 199:../source/sgl_core.h **** 
 200:../source/sgl_core.h **** /**
 201:../source/sgl_core.h **** * @brief This structure defines a 24 bit color bit field
 202:../source/sgl_core.h **** *
 203:../source/sgl_core.h **** * @blue: Blue color component
 204:../source/sgl_core.h **** * @green: Green color component
 205:../source/sgl_core.h **** * @red: Red color component
 206:../source/sgl_core.h **** */
 207:../source/sgl_core.h **** typedef union {
GAS LISTING C:\Users\lsw\AppData\Local\Temp\ccSZcLze.s 			page 7


 208:../source/sgl_core.h ****     struct {
 209:../source/sgl_core.h ****         uint8_t blue;
 210:../source/sgl_core.h ****         uint8_t green;
 211:../source/sgl_core.h ****         uint8_t red;
 212:../source/sgl_core.h ****     } ch;
 213:../source/sgl_core.h ****     uint8_t full[3];
 214:../source/sgl_core.h **** } sgl_color24_t;
 215:../source/sgl_core.h **** 
 216:../source/sgl_core.h **** 
 217:../source/sgl_core.h **** /**
 218:../source/sgl_core.h **** * @brief This structure defines a 16 bit color bit field
 219:../source/sgl_core.h **** *
 220:../source/sgl_core.h **** * @blue: Blue color component
 221:../source/sgl_core.h **** * @green: Green color component
 222:../source/sgl_core.h **** * @red: Red color component
 223:../source/sgl_core.h **** * @alpha: Color transparency
 224:../source/sgl_core.h **** */
 225:../source/sgl_core.h **** typedef union {
 226:../source/sgl_core.h ****     struct {
 227:../source/sgl_core.h ****         uint16_t blue : 5;
 228:../source/sgl_core.h ****         uint16_t green : 6;
 229:../source/sgl_core.h ****         uint16_t red : 5;
 230:../source/sgl_core.h ****     } ch;
 231:../source/sgl_core.h ****     uint16_t full;
 232:../source/sgl_core.h **** } sgl_color16_t;
 233:../source/sgl_core.h **** 
 234:../source/sgl_core.h **** 
 235:../source/sgl_core.h **** /**
 236:../source/sgl_core.h **** * @brief This structure defines a 8 bit color bit field
 237:../source/sgl_core.h **** *
 238:../source/sgl_core.h **** * @blue: Blue color component
 239:../source/sgl_core.h **** * @green: Green color component
 240:../source/sgl_core.h **** * @red: Red color component
 241:../source/sgl_core.h **** * @alpha: Color transparency
 242:../source/sgl_core.h **** */
 243:../source/sgl_core.h **** typedef union {
 244:../source/sgl_core.h ****     struct {
 245:../source/sgl_core.h ****         uint8_t blue : 2;
 246:../source/sgl_core.h ****         uint8_t green : 3;
 247:../source/sgl_core.h ****         uint8_t red : 3;
 248:../source/sgl_core.h ****     } ch;
 249:../source/sgl_core.h ****     uint8_t full;
 250:../source/sgl_core.h **** } sgl_color8_t;
 251:../source/sgl_core.h **** 
 252:../source/sgl_core.h **** 
 253:../source/sgl_core.h **** #if (CONFIG_SGL_FBDEV_PIXEL_DEPTH == 32)
 254:../source/sgl_core.h **** #define sgl_color_t sgl_color32_t
 255:../source/sgl_core.h **** #elif (CONFIG_SGL_FBDEV_PIXEL_DEPTH == 24)
 256:../source/sgl_core.h **** #define sgl_color_t sgl_color24_t
 257:../source/sgl_core.h **** #elif (CONFIG_SGL_FBDEV_PIXEL_DEPTH == 16)
 258:../source/sgl_core.h **** #define sgl_color_t sgl_color16_t
 259:../source/sgl_core.h **** #elif (CONFIG_SGL_FBDEV_PIXEL_DEPTH == 8)
 260:../source/sgl_core.h **** #define sgl_color_t sgl_color8_t
 261:../source/sgl_core.h **** #endif
 262:../source/sgl_core.h **** 
 263:../source/sgl_core.h **** 
 264:../source/sgl_core.h **** // prototype: sgl_rgb(uint8_t r, uint8_t g, uint8_t b)
GAS LISTING C:\Users\lsw\AppData\Local\Temp\ccSZcLze.s 			page 8


 265:../source/sgl_core.h **** #if (CONFIG_SGL_FBDEV_PIXEL_DEPTH == SGL_COLOR_ARGB8888 || CONFIG_SGL_FBDEV_PIXEL_DEPTH == SGL_COLO
 266:../source/sgl_core.h **** #define sgl_rgb(r,g,b)                          (sgl_color_t){ .ch.blue    = (b),              \
 267:../source/sgl_core.h ****                                                                .ch.green   = (g),              \
 268:../source/sgl_core.h ****                                                                .ch.red     = (r),}
 269:../source/sgl_core.h **** #elif (CONFIG_SGL_FBDEV_PIXEL_DEPTH == SGL_COLOR_RGB565)
 270:../source/sgl_core.h **** #define sgl_rgb(r,g,b)                          (sgl_color_t){ .ch.blue    = (b) >> 3,         \
 271:../source/sgl_core.h ****                                                                .ch.green   = (g) >> 2,         \
 272:../source/sgl_core.h ****                                                                .ch.red     = (r) >> 3,}
 273:../source/sgl_core.h **** #elif (CONFIG_SGL_FBDEV_PIXEL_DEPTH == SGL_COLOR_RGB233)
 274:../source/sgl_core.h **** #define sgl_rgb(r,g,b)                          (sgl_color_t){ .ch.blue    = (b >> 6),         \
 275:../source/sgl_core.h ****                                                                .ch.green   = (g >> 5),         \
 276:../source/sgl_core.h ****                                                                .ch.red     = (r >> 5),}
 277:../source/sgl_core.h **** #endif
 278:../source/sgl_core.h **** 
 279:../source/sgl_core.h **** 
 280:../source/sgl_core.h **** /**
 281:../source/sgl_core.h ****  * Define some basic colors
 282:../source/sgl_core.h **** */
 283:../source/sgl_core.h **** #define SGL_COLOR_RED                           sgl_rgb(0xFF, 0, 0)
 284:../source/sgl_core.h **** #define SGL_COLOR_GREEN                         sgl_rgb(0, 0xFF, 0)
 285:../source/sgl_core.h **** #define SGL_COLOR_BLUE                          sgl_rgb(0, 0, 0xFF)
 286:../source/sgl_core.h **** #define SGL_COLOR_WHITE                         sgl_rgb(0xFF, 0xFF, 0xFF)
 287:../source/sgl_core.h **** #define SGL_COLOR_BLACK                         sgl_rgb(0, 0, 0)
 288:../source/sgl_core.h **** #define SGL_COLOR_CYAN                          sgl_rgb(0, 0xFF, 0xFF)
 289:../source/sgl_core.h **** #define SGL_COLOR_MAGENTA                       sgl_rgb(0xFF, 0, 0xFF)
 290:../source/sgl_core.h **** #define SGL_COLOR_YELLOW                        sgl_rgb(0xFF, 0xFF, 0)
 291:../source/sgl_core.h **** #define SGL_COLOR_GRAY                          sgl_rgb(0x80, 0x80, 0x80)
 292:../source/sgl_core.h **** #define SGL_COLOR_DARK_GRAY                     sgl_rgb(0x40, 0x40, 0x40)
 293:../source/sgl_core.h **** #define SGL_COLOR_LIGHT_GRAY                    sgl_rgb(0xC0, 0xC0, 0xC0)
 294:../source/sgl_core.h **** #define SGL_COLOR_BRIGHT_PURPLE                 sgl_rgb(0xFF, 0x00, 0xFF)
 295:../source/sgl_core.h **** #define SGL_COLOR_BRIGHT_BLUE                   sgl_rgb(0x00, 0xFF, 0xFF)
 296:../source/sgl_core.h **** #define SGL_COLOR_ORANGE                        sgl_rgb(0xFF, 0xA5, 0x00)
 297:../source/sgl_core.h **** #define SGL_COLOR_DARK_ORANGE                   sgl_rgb(0xFF, 0x8C, 0x00)
 298:../source/sgl_core.h **** #define SGL_COLOR_RED_ORANGE                    sgl_rgb(0xFF, 0x45, 0x00)
 299:../source/sgl_core.h **** #define SGL_COLOR_GOLD                          sgl_rgb(0xFF, 0xD7, 0x00)
 300:../source/sgl_core.h **** #define SGL_COLOR_GOLDENROD                     sgl_rgb(0xDA, 0xA5, 0x20)
 301:../source/sgl_core.h **** #define SGL_COLOR_BROWN                         sgl_rgb(0xA5, 0x2A, 0x2A)
 302:../source/sgl_core.h **** #define SGL_COLOR_SADDLE_BROWN                  sgl_rgb(0x8B, 0x45, 0x13)
 303:../source/sgl_core.h **** #define SGL_COLOR_TOMATO                        sgl_rgb(0xFF, 0x63, 0x47)
 304:../source/sgl_core.h **** #define SGL_COLOR_CORAL                         sgl_rgb(0xFF, 0x7F, 0x50)
 305:../source/sgl_core.h **** #define SGL_COLOR_SALMON                        sgl_rgb(0xFA, 0x80, 0x72)
 306:../source/sgl_core.h **** #define SGL_COLOR_LIME                          sgl_rgb(0x32, 0xCD, 0x32)
 307:../source/sgl_core.h **** #define SGL_COLOR_OLIVE                         sgl_rgb(0x80, 0x80, 0x00)
 308:../source/sgl_core.h **** #define SGL_COLOR_DARK_OLIVE_GREEN              sgl_rgb(0x55, 0x6B, 0x2F)
 309:../source/sgl_core.h **** #define SGL_COLOR_FOREST_GREEN                  sgl_rgb(0x22, 0x8B, 0x2F)
 310:../source/sgl_core.h **** #define SGL_COLOR_DARK_GREEN                    sgl_rgb(0x00, 0x64, 0x00)
 311:../source/sgl_core.h **** #define SGL_COLOR_LAWN_GREEN                    sgl_rgb(0x7C, 0xFC, 0x00)
 312:../source/sgl_core.h **** #define SGL_COLOR_CHARTREUSE                    sgl_rgb(0x7F, 0xFF, 0x00)
 313:../source/sgl_core.h **** #define SGL_COLOR_YELLOW_GREEN                  sgl_rgb(0x9A, 0xCD, 0x32)
 314:../source/sgl_core.h **** #define SGL_COLOR_SPRING_GREEN                  sgl_rgb(0x00, 0xFF, 0x7F)
 315:../source/sgl_core.h **** #define SGL_COLOR_DEEP_SKY_BLUE                 sgl_rgb(0x00, 0xBF, 0xFF)
 316:../source/sgl_core.h **** #define SGL_COLOR_DODGER_BLUE                   sgl_rgb(0x1E, 0x90, 0xFF)
 317:../source/sgl_core.h **** #define SGL_COLOR_ROYAL_BLUE                    sgl_rgb(0x41, 0x69, 0xE1)
 318:../source/sgl_core.h **** #define SGL_COLOR_MIDNIGHT_BLUE                 sgl_rgb(0x19, 0x19, 0x70)
 319:../source/sgl_core.h **** #define SGL_COLOR_NAVY                          sgl_rgb(0x00, 0x00, 0x80)
 320:../source/sgl_core.h **** #define SGL_COLOR_TEAL                          sgl_rgb(0x00, 0x80, 0x80)
 321:../source/sgl_core.h **** #define SGL_COLOR_DARK_CYAN                     sgl_rgb(0x00, 0x8B, 0x8B)
GAS LISTING C:\Users\lsw\AppData\Local\Temp\ccSZcLze.s 			page 9


 322:../source/sgl_core.h **** #define SGL_COLOR_LIGHT_SEA_GREEN               sgl_rgb(0x20, 0xB2, 0xAA)
 323:../source/sgl_core.h **** #define SGL_COLOR_CADET_BLUE                    sgl_rgb(0x5F, 0x9E, 0xA0)
 324:../source/sgl_core.h **** #define SGL_COLOR_INDIGO                        sgl_rgb(0x4B, 0x00, 0x82)
 325:../source/sgl_core.h **** #define SGL_COLOR_VIOLET                        sgl_rgb(0xEE, 0x82, 0xEE)
 326:../source/sgl_core.h **** #define SGL_COLOR_DARK_VIOLET                   sgl_rgb(0x94, 0x00, 0xD3)
 327:../source/sgl_core.h **** #define SGL_COLOR_MEDIUM_VIOLET_RED             sgl_rgb(0xC7, 0x15, 0x85)
 328:../source/sgl_core.h **** #define SGL_COLOR_PINK                          sgl_rgb(0xFF, 0xC0, 0xCB)
 329:../source/sgl_core.h **** #define SGL_COLOR_HOT_PINK                      sgl_rgb(0xFF, 0x69, 0xB4)
 330:../source/sgl_core.h **** #define SGL_COLOR_DEEP_PINK                     sgl_rgb(0xFF, 0x14, 0x93)
 331:../source/sgl_core.h **** #define SGL_COLOR_PLUM                          sgl_rgb(0xDD, 0xA0, 0xDD)
 332:../source/sgl_core.h **** #define SGL_COLOR_ORCHID                        sgl_rgb(0xDA, 0x70, 0xD6)
 333:../source/sgl_core.h **** #define SGL_COLOR_TAN                           sgl_rgb(0xD2, 0xB4, 0x8C)
 334:../source/sgl_core.h **** #define SGL_COLOR_WHEAT                         sgl_rgb(0xF5, 0xDE, 0xB3)
 335:../source/sgl_core.h **** #define SGL_COLOR_SAND                          sgl_rgb(0xC2, 0xB2, 0x90)
 336:../source/sgl_core.h **** #define SGL_COLOR_BEIGE                         sgl_rgb(0xF5, 0xF5, 0xDC)
 337:../source/sgl_core.h **** #define SGL_COLOR_IVORY                         sgl_rgb(0xFF, 0xFF, 0xF0)
 338:../source/sgl_core.h **** #define SGL_COLOR_LAVENDER                      sgl_rgb(0xE6, 0xE6, 0xFA)
 339:../source/sgl_core.h **** #define SGL_COLOR_MISTY_ROSE                    sgl_rgb(0xFF, 0xE4, 0xE1)
 340:../source/sgl_core.h **** #define SGL_COLOR_SEASHELL                      sgl_rgb(0xFF, 0xF5, 0xEE)
 341:../source/sgl_core.h **** #define SGL_COLOR_FLORAL_WHITE                  sgl_rgb(0xFF, 0xFA, 0xF0)
 342:../source/sgl_core.h **** 
 343:../source/sgl_core.h **** 
 344:../source/sgl_core.h **** #if CONFIG_SGL_DEBUG
 345:../source/sgl_core.h **** #define SGL_LOG_LEVEL_TRACE                     0 /**< A lot of logs to give detailed information*/
 346:../source/sgl_core.h **** #define SGL_LOG_LEVEL_INFO                      1 /**< Log important events*/
 347:../source/sgl_core.h **** #define SGL_LOG_LEVEL_WARN                      2 /**< Log if something unwanted happened but didn'
 348:../source/sgl_core.h **** #define SGL_LOG_LEVEL_ERROR                     3 /**< Only critical issue, when the system may fai
 349:../source/sgl_core.h **** #define SGL_LOG_LEVEL_USER                      4 /**< Custom logs from the user*/
 350:../source/sgl_core.h **** #define SGL_LOG_LEVEL_NONE                      5 /**< Do not log anything*/
 351:../source/sgl_core.h **** #define _SGL_LOG_LEVEL_NUM                      6 /**< Number of log levels*/
 352:../source/sgl_core.h **** 
 353:../source/sgl_core.h **** #if CONFIG_SGL_LOG_COLOR
 354:../source/sgl_core.h **** 
 355:../source/sgl_core.h **** #define SGL_LOG_NONE                            "\033[0m"
 356:../source/sgl_core.h **** #define SGL_LOG_RED                             "\033[31m"
 357:../source/sgl_core.h **** #define SGL_LOG_GREEN                           "\033[32m"
 358:../source/sgl_core.h **** #define SGL_LOG_YELLOW                          "\033[33m"
 359:../source/sgl_core.h **** #define SGL_LOG_BLUE                            "\033[34m"
 360:../source/sgl_core.h **** #define SGL_LOG_PURPLE                          "\033[35m"
 361:../source/sgl_core.h **** #define SGL_LOG_CYAN                            "\033[36m"
 362:../source/sgl_core.h **** #define SGL_LOG_WHITE                           "\033[37m"
 363:../source/sgl_core.h **** #define SGL_LOG_LIGHT_BLUE                      "\033[1;34m"
 364:../source/sgl_core.h **** 
 365:../source/sgl_core.h **** 
 366:../source/sgl_core.h **** #define SGL_LOG_TRACE_FLAG                      SGL_LOG_BLUE"[TRACE]"
 367:../source/sgl_core.h **** #define SGL_LOG_INFO_FLAG                       SGL_LOG_GREEN"[INFO]"
 368:../source/sgl_core.h **** #define SGL_LOG_WARN_FLAG                       SGL_LOG_YELLOW"[WARN]"
 369:../source/sgl_core.h **** #define SGL_LOG_ERROR_FLAG                      SGL_LOG_RED"[ERROR]"
 370:../source/sgl_core.h **** #define SGL_LOG_USER_FLAG                       SGL_LOG_PURPLE"[USER]"
 371:../source/sgl_core.h **** #define SGL_ASSERT_FLAG                         SGL_LOG_CYAN"[ASSERT]"
 372:../source/sgl_core.h **** #define SGL_DEBUG_TRACE_FLAG                    SGL_LOG_LIGHT_BLUE"[DEBUG]"
 373:../source/sgl_core.h **** 
 374:../source/sgl_core.h **** 
 375:../source/sgl_core.h **** #else
 376:../source/sgl_core.h **** #define SGL_LOG_TRACE_FLAG                      "[TRACE] "
 377:../source/sgl_core.h **** #define SGL_LOG_INFO_FLAG                       "[INFO] "
 378:../source/sgl_core.h **** #define SGL_LOG_WARN_FLAG                       "[WARN] "
GAS LISTING C:\Users\lsw\AppData\Local\Temp\ccSZcLze.s 			page 10


 379:../source/sgl_core.h **** #define SGL_LOG_ERROR_FLAG                      "[ERROR] "
 380:../source/sgl_core.h **** #define SGL_LOG_USER_FLAG                       "[USER] "
 381:../source/sgl_core.h **** #define SGL_ASSERT_FLAG                         "[ASSERT] "
 382:../source/sgl_core.h **** #define SGL_DEBUG_TRACE_FLAG                    "[DEBUG]"
 383:../source/sgl_core.h **** #define SGL_LOG_NONE                            ""
 384:../source/sgl_core.h **** 
 385:../source/sgl_core.h **** #endif // !CONFIG_SGL_LOG_COLOR
 386:../source/sgl_core.h **** 
 387:../source/sgl_core.h **** 
 388:../source/sgl_core.h **** #ifndef SGL_LOG_TRACE
 389:../source/sgl_core.h **** #    if CONFIG_SGL_LOG_LEVEL <= SGL_LOG_LEVEL_TRACE
 390:../source/sgl_core.h **** #        define SGL_LOG_TRACE(...)              sgl_log(SGL_LOG_TRACE_FLAG, __VA_ARGS__)
 391:../source/sgl_core.h **** #    else         
 392:../source/sgl_core.h **** #        define SGL_LOG_TRACE(...)              do {} while(0)
 393:../source/sgl_core.h **** #    endif
 394:../source/sgl_core.h **** #endif
 395:../source/sgl_core.h **** 
 396:../source/sgl_core.h **** #ifndef SGL_LOG_INFO
 397:../source/sgl_core.h **** #    if CONFIG_SGL_LOG_LEVEL <= SGL_LOG_LEVEL_INFO
 398:../source/sgl_core.h **** #        define SGL_LOG_INFO(...)               sgl_log(SGL_LOG_INFO_FLAG,  __VA_ARGS__)
 399:../source/sgl_core.h **** #    else         
 400:../source/sgl_core.h **** #        define SGL_LOG_INFO(...)               do {} while(0)
 401:../source/sgl_core.h **** #    endif
 402:../source/sgl_core.h **** #endif
 403:../source/sgl_core.h **** 
 404:../source/sgl_core.h **** #ifndef SGL_LOG_WARN
 405:../source/sgl_core.h **** #    if CONFIG_SGL_LOG_LEVEL <= SGL_LOG_LEVEL_WARN
 406:../source/sgl_core.h **** #        define SGL_LOG_WARN(...)               sgl_log(SGL_LOG_WARN_FLAG, __VA_ARGS__)
 407:../source/sgl_core.h **** #    else         
 408:../source/sgl_core.h **** #        define SGL_LOG_WARN(...)               do {} while(0)
 409:../source/sgl_core.h **** #    endif
 410:../source/sgl_core.h **** #endif
 411:../source/sgl_core.h **** 
 412:../source/sgl_core.h **** #ifndef SGL_LOG_ERROR
 413:../source/sgl_core.h **** #    if CONFIG_SGL_LOG_LEVEL <= SGL_LOG_LEVEL_ERROR
 414:../source/sgl_core.h **** #        define SGL_LOG_ERROR(...)              sgl_log(SGL_LOG_ERROR_FLAG, __VA_ARGS__)
 415:../source/sgl_core.h **** #    else        
 416:../source/sgl_core.h **** #        define SGL_LOG_ERROR(...)              do {} while(0)
 417:../source/sgl_core.h **** #    endif
 418:../source/sgl_core.h **** #endif
 419:../source/sgl_core.h **** 
 420:../source/sgl_core.h **** #ifndef SGL_LOG_USER
 421:../source/sgl_core.h **** #    if CONFIG_SGL_LOG_LEVEL <= SGL_LOG_LEVEL_USER
 422:../source/sgl_core.h **** #        define SGL_LOG_USER(...)               sgl_log(SGL_LOG_USER_FLAG,  __VA_ARGS__)
 423:../source/sgl_core.h **** #    else        
 424:../source/sgl_core.h **** #        define SGL_LOG_USER(...)               do {} while(0)
 425:../source/sgl_core.h **** #    endif
 426:../source/sgl_core.h **** #endif
 427:../source/sgl_core.h **** 
 428:../source/sgl_core.h **** #if CONFIG_SGL_LOG_LEVEL < SGL_LOG_LEVEL_NONE
 429:../source/sgl_core.h **** #    define SGL_LOG(...)                        sgl_log(__VA_ARGS__)
 430:../source/sgl_core.h **** #else        
 431:../source/sgl_core.h **** #    define SGL_LOG(...)                        do {} while(0)
 432:../source/sgl_core.h **** #endif
 433:../source/sgl_core.h **** 
 434:../source/sgl_core.h **** 
 435:../source/sgl_core.h **** #define SGL_ASSERT(condition)                   do {                                               
GAS LISTING C:\Users\lsw\AppData\Local\Temp\ccSZcLze.s 			page 11


 436:../source/sgl_core.h ****                                                     if (!(condition)) {                            
 437:../source/sgl_core.h ****                                                         sgl_assert_handler(__FILE__, __FUNCTION__, 
 438:../source/sgl_core.h ****                                                     }                                              
 439:../source/sgl_core.h ****                                                 } while(0)
 440:../source/sgl_core.h **** 
 441:../source/sgl_core.h **** 
 442:../source/sgl_core.h **** #else // if no define debug mode macro
 443:../source/sgl_core.h **** 
 444:../source/sgl_core.h **** #define SGL_LOG_NONE                            0
 445:../source/sgl_core.h **** #define SGL_LOG_TRACE(...)                      do {} while(0)
 446:../source/sgl_core.h **** #define SGL_LOG_INFO(...)                       do {} while(0)
 447:../source/sgl_core.h **** #define SGL_LOG_WARN(...)                       do {} while(0)
 448:../source/sgl_core.h **** #define SGL_LOG_ERROR(...)                      do {} while(0)
 449:../source/sgl_core.h **** #define SGL_LOG_USER(...)                       do {} while(0)
 450:../source/sgl_core.h **** #define SGL_LOG(...)                            do {} while(0)
 451:../source/sgl_core.h **** 
 452:../source/sgl_core.h **** #define SGL_ASSERT(condition)                   do {} while(0)
 453:../source/sgl_core.h **** 
 454:../source/sgl_core.h **** #endif
 455:../source/sgl_core.h **** 
 456:../source/sgl_core.h **** 
 457:../source/sgl_core.h **** #if CONFIG_SGL_DEBUG
 458:../source/sgl_core.h **** #define SGL_DEBUG_TRACE(...)                    sgl_log(SGL_DEBUG_TRACE_FLAG, __VA_ARGS__)
 459:../source/sgl_core.h **** #else
 460:../source/sgl_core.h **** #define SGL_DEBUG_TRACE(...)                    do {} while(0)
 461:../source/sgl_core.h **** #endif
 462:../source/sgl_core.h **** 
 463:../source/sgl_core.h **** 
 464:../source/sgl_core.h **** #define sgl_min(a, b)                           ((a) < (b) ? (a) : (b))
 465:../source/sgl_core.h **** #define sgl_min3(a, b, c)                       (sgl_min(sgl_min((a), (b)), (c)))
 466:../source/sgl_core.h **** #define sgl_min4(a, b, c, d)                    (sgl_min(sgl_min((a), (b)), sgl_min((c), (d))))
 467:../source/sgl_core.h ****       
 468:../source/sgl_core.h ****       
 469:../source/sgl_core.h **** #define sgl_max(a, b)                           ((a) > (b) ? (a) : (b))
 470:../source/sgl_core.h **** #define sgl_max3(a, b, c)                       (sgl_max(sgl_max((a), (b)), (c)))
 471:../source/sgl_core.h **** #define sgl_max4(a, b, c, d)                    (sgl_max(sgl_max((a), (b)), sgl_max((c), (d))))
 472:../source/sgl_core.h ****       
 473:../source/sgl_core.h **** #define sgl_clamp(val, min, max)                (sgl_max(min, (sgl_min((val), (max)))))
 474:../source/sgl_core.h ****       
 475:../source/sgl_core.h **** #define sgl_abs(x)                              ((x) > 0 ? (x) : (- (x)))
 476:../source/sgl_core.h ****       
 477:../source/sgl_core.h **** #define sgl_pow2(x)                             ((x) * (x))
 478:../source/sgl_core.h **** #define sgl_pow3(x)                             ((x) * (x) * (x))
 479:../source/sgl_core.h **** #define sgl_pow4(x)                             ((x) * (x) * (x) * (x))
 480:../source/sgl_core.h ****       
 481:../source/sgl_core.h **** #define sgl_is_pow2(x)                          (((x) & ((x) - 1)) == 0)
 482:../source/sgl_core.h **** #define sgl_is_even(x)                          (((x) & 1) == 0)
 483:../source/sgl_core.h **** #define sgl_is_odd(x)                           ((x) & 1)
 484:../source/sgl_core.h ****       
 485:../source/sgl_core.h **** #define sgl_swap(a, b)                          do { (*a) ^= (*b); (*b) ^= (*a); (*a) ^= (*b); } wh
 486:../source/sgl_core.h **** 
 487:../source/sgl_core.h **** 
 488:../source/sgl_core.h **** /**
 489:../source/sgl_core.h **** * @brief This enumeration type defines the alignment of controls in sgl,
 490:../source/sgl_core.h **** *        i.e. coordinate positions
 491:../source/sgl_core.h **** */
 492:../source/sgl_core.h **** typedef enum sgl_align_type {
GAS LISTING C:\Users\lsw\AppData\Local\Temp\ccSZcLze.s 			page 12


 493:../source/sgl_core.h ****     SGL_ALIGN_CENTER = 0,
 494:../source/sgl_core.h ****     SGL_ALIGN_TOP_MID,
 495:../source/sgl_core.h ****     SGL_ALIGN_TOP_LEFT,
 496:../source/sgl_core.h ****     SGL_ALIGN_TOP_RIGHT,
 497:../source/sgl_core.h ****     SGL_ALIGN_BOT_MID,
 498:../source/sgl_core.h ****     SGL_ALIGN_BOT_LEFT,
 499:../source/sgl_core.h ****     SGL_ALIGN_BOT_RIGHT,
 500:../source/sgl_core.h ****     SGL_ALIGN_LEFT_MID,
 501:../source/sgl_core.h ****     SGL_ALIGN_RIGHT_MID,
 502:../source/sgl_core.h ****     SGL_ALIGN_VERT_LEFT,
 503:../source/sgl_core.h ****     SGL_ALIGN_VERT_RIGHT,
 504:../source/sgl_core.h ****     SGL_ALIGN_VERT_MID,
 505:../source/sgl_core.h ****     SGL_ALIGN_HORIZ_TOP,
 506:../source/sgl_core.h ****     SGL_ALIGN_HORIZ_BOT,
 507:../source/sgl_core.h ****     SGL_ALIGN_HORIZ_MID,
 508:../source/sgl_core.h ****     SGL_ALIGN_NUM,
 509:../source/sgl_core.h **** 
 510:../source/sgl_core.h **** } sgl_align_type_t;
 511:../source/sgl_core.h **** 
 512:../source/sgl_core.h **** 
 513:../source/sgl_core.h **** /**
 514:../source/sgl_core.h **** * @brief This enumeration type defines the layout of controls in sgl,
 515:../source/sgl_core.h **** *        i.e. coordinate positions
 516:../source/sgl_core.h **** */
 517:../source/sgl_core.h **** typedef enum sgl_layout_type {
 518:../source/sgl_core.h ****     SGL_LAYOUT_NONE = 0,
 519:../source/sgl_core.h ****     SGL_LAYOUT_HORIZONTAL = 1,
 520:../source/sgl_core.h ****     SGL_LAYOUT_VERTICAL = 2,
 521:../source/sgl_core.h ****     SGL_LAYOUT_GRID = 3,
 522:../source/sgl_core.h ****     SGL_LAYOUT_NUM = 4,
 523:../source/sgl_core.h **** } sgl_layout_type_t;
 524:../source/sgl_core.h **** 
 525:../source/sgl_core.h **** 
 526:../source/sgl_core.h **** /**
 527:../source/sgl_core.h **** * @brief This structure is a structure that describes the position of the control,
 528:../source/sgl_core.h **** *        where x represents the position of the x coordinate, which is the row coordinate position,
 529:../source/sgl_core.h **** *        and y represents the position of the y coordinate, which is the column coordinate position
 530:../source/sgl_core.h **** *
 531:../source/sgl_core.h **** * @x: x coordinate
 532:../source/sgl_core.h **** * @y: y coordinate
 533:../source/sgl_core.h **** */
 534:../source/sgl_core.h **** typedef struct sgl_pos {
 535:../source/sgl_core.h ****     int16_t x;
 536:../source/sgl_core.h ****     int16_t y;
 537:../source/sgl_core.h **** } sgl_pos_t;
 538:../source/sgl_core.h **** 
 539:../source/sgl_core.h **** 
 540:../source/sgl_core.h **** /**
 541:../source/sgl_core.h **** * @brief This structure describes the size of the object, including width and height, in pixels
 542:../source/sgl_core.h **** *
 543:../source/sgl_core.h **** * @w: width
 544:../source/sgl_core.h **** * @h: height
 545:../source/sgl_core.h **** */
 546:../source/sgl_core.h **** typedef struct sgl_size {
 547:../source/sgl_core.h ****     int16_t w;
 548:../source/sgl_core.h ****     int16_t h;
 549:../source/sgl_core.h **** } sgl_size_t;
GAS LISTING C:\Users\lsw\AppData\Local\Temp\ccSZcLze.s 			page 13


 550:../source/sgl_core.h **** 
 551:../source/sgl_core.h **** 
 552:../source/sgl_core.h **** /**
 553:../source/sgl_core.h **** * @brief This structure describes a rectangular region, where x1 and y1 represent the coordinates
 554:../source/sgl_core.h **** *        of the upper left corner of the rectangle, and x2 and y2 represent the coordinates of the
 555:../source/sgl_core.h **** *        lower right corner of the rectangle
 556:../source/sgl_core.h **** *
 557:../source/sgl_core.h **** * @x1: x position left corner of the rectangle
 558:../source/sgl_core.h **** * @y1: y position left corner of the rectangle
 559:../source/sgl_core.h **** * @x2: x position right corner of the rectangle
 560:../source/sgl_core.h **** * @y2: y position right corner of the rectangle
 561:../source/sgl_core.h **** */
 562:../source/sgl_core.h **** typedef struct sgl_area {
 563:../source/sgl_core.h ****     int16_t x1;
 564:../source/sgl_core.h ****     int16_t y1;
 565:../source/sgl_core.h ****     int16_t x2;
 566:../source/sgl_core.h ****     int16_t y2;
 567:../source/sgl_core.h **** } sgl_area_t;
 568:../source/sgl_core.h **** 
 569:../source/sgl_core.h **** #define sgl_rect_t sgl_area_t
 570:../source/sgl_core.h **** 
 571:../source/sgl_core.h **** 
 572:../source/sgl_core.h **** /**
 573:../source/sgl_core.h ****  * @brief This structure defines a surface, which is a rectangular area of the screen.
 574:../source/sgl_core.h ****  * @x1:     x1 coordinate
 575:../source/sgl_core.h ****  * @y1:     y1 coordinate
 576:../source/sgl_core.h ****  * @x2:     x2 coordinate
 577:../source/sgl_core.h ****  * @y2:     y2 coordinate
 578:../source/sgl_core.h ****  * @buffer: buffer pointer
 579:../source/sgl_core.h ****  * @size:   bytes of buffer
 580:../source/sgl_core.h ****  * @w:      surf width
 581:../source/sgl_core.h ****  * @h:      surf height
 582:../source/sgl_core.h ****  * @dirty:  pointer to dirty area
 583:../source/sgl_core.h ****  */
 584:../source/sgl_core.h **** typedef struct sgl_surf {
 585:../source/sgl_core.h ****     int16_t      x1;
 586:../source/sgl_core.h ****     int16_t      y1;
 587:../source/sgl_core.h ****     int16_t      x2;
 588:../source/sgl_core.h ****     int16_t      y2;
 589:../source/sgl_core.h ****     sgl_color_t *buffer;
 590:../source/sgl_core.h ****     uint32_t     size;
 591:../source/sgl_core.h ****     uint16_t     w;
 592:../source/sgl_core.h ****     uint16_t     h;
 593:../source/sgl_core.h ****     sgl_area_t   *dirty;
 594:../source/sgl_core.h **** } sgl_surf_t;
 595:../source/sgl_core.h **** 
 596:../source/sgl_core.h **** 
 597:../source/sgl_core.h **** /**
 598:../source/sgl_core.h **** * @brief This structure defines an image, with a bitmap pointing to the
 599:../source/sgl_core.h **** *        bitmap of the image, while specifying the width and height of the image
 600:../source/sgl_core.h **** *
 601:../source/sgl_core.h **** * @width: pixmap width
 602:../source/sgl_core.h **** * @height: pixmap height
 603:../source/sgl_core.h **** * @format: bitmap format 0: no compression, 1:
 604:../source/sgl_core.h **** * @bitmap: point to image bitmap
 605:../source/sgl_core.h **** *          data: address for internal flash memory
 606:../source/sgl_core.h **** *          addr: address for external flash memory
GAS LISTING C:\Users\lsw\AppData\Local\Temp\ccSZcLze.s 			page 14


 607:../source/sgl_core.h **** */
 608:../source/sgl_core.h **** typedef struct sgl_pixmap {
 609:../source/sgl_core.h ****     uint32_t width : 13;
 610:../source/sgl_core.h ****     uint32_t height : 13;
 611:../source/sgl_core.h ****     uint32_t format : 6;
 612:../source/sgl_core.h ****     union {
 613:../source/sgl_core.h ****         const uint8_t *data;
 614:../source/sgl_core.h ****         const size_t  addr;
 615:../source/sgl_core.h ****     } bitmap;
 616:../source/sgl_core.h **** } sgl_pixmap_t;
 617:../source/sgl_core.h **** 
 618:../source/sgl_core.h **** 
 619:../source/sgl_core.h **** /**
 620:../source/sgl_core.h ****  * @brief This structure defines an icon, with a bitmap pointing to the
 621:../source/sgl_core.h ****  * @width: pixmap width
 622:../source/sgl_core.h ****  * @height: pixmap height
 623:../source/sgl_core.h ****  * @bitmap: point to icon bitmap
 624:../source/sgl_core.h ****  */
 625:../source/sgl_core.h **** typedef struct sgl_icon_pixmap {
 626:../source/sgl_core.h ****     uint16_t       width;
 627:../source/sgl_core.h ****     uint16_t       height;
 628:../source/sgl_core.h ****     const uint8_t *bitmap;
 629:../source/sgl_core.h **** } sgl_icon_pixmap_t;
 630:../source/sgl_core.h **** 
 631:../source/sgl_core.h **** 
 632:../source/sgl_core.h **** /**
 633:../source/sgl_core.h **** * @brief Font index table structure, used to describe the bitmap index positions of
 634:../source/sgl_core.h **** *        all characters in a font, accelerating the search process
 635:../source/sgl_core.h **** *
 636:../source/sgl_core.h **** * @bitmap_index: point to bitmap index of font
 637:../source/sgl_core.h **** * @adv_w: advance width of character width
 638:../source/sgl_core.h **** * @box_h: height of font
 639:../source/sgl_core.h **** * @box_w: width of font
 640:../source/sgl_core.h **** * @ofs_x: offset of character x position
 641:../source/sgl_core.h **** * @ofs_y: offset of character y position
 642:../source/sgl_core.h **** */
 643:../source/sgl_core.h **** typedef struct sgl_font_table {
 644:../source/sgl_core.h **** #if (CONFIG_SGL_FONT_SMALL_TABLE)
 645:../source/sgl_core.h ****     const uint16_t bitmap_index;
 646:../source/sgl_core.h ****     const uint16_t adv_w;
 647:../source/sgl_core.h ****     const uint8_t  box_h;
 648:../source/sgl_core.h ****     const uint8_t  box_w;
 649:../source/sgl_core.h ****     const int8_t   ofs_x;
 650:../source/sgl_core.h ****     const int8_t   ofs_y;
 651:../source/sgl_core.h **** #else
 652:../source/sgl_core.h ****     const uint32_t bitmap_index;
 653:../source/sgl_core.h ****     const uint16_t adv_w;
 654:../source/sgl_core.h ****     const uint16_t box_h;
 655:../source/sgl_core.h ****     const uint16_t box_w;
 656:../source/sgl_core.h ****     const int8_t   ofs_x;
 657:../source/sgl_core.h ****     const int8_t   ofs_y;
 658:../source/sgl_core.h **** #endif
 659:../source/sgl_core.h **** } sgl_font_table_t;
 660:../source/sgl_core.h **** 
 661:../source/sgl_core.h **** 
 662:../source/sgl_core.h **** /**
 663:../source/sgl_core.h ****  * @brief This structure defines a font unicode information, which is a collection of fonts
GAS LISTING C:\Users\lsw\AppData\Local\Temp\ccSZcLze.s 			page 15


 664:../source/sgl_core.h ****  * @offset: offset of unicode for unicode list
 665:../source/sgl_core.h ****  * @len: length of unicode list
 666:../source/sgl_core.h ****  * @list: point to unicode list
 667:../source/sgl_core.h ****  * @tab_offset: offset of font table
 668:../source/sgl_core.h ****  */
 669:../source/sgl_core.h **** typedef struct sgl_font_unicode {
 670:../source/sgl_core.h ****     const uint32_t offset;
 671:../source/sgl_core.h ****     const uint32_t len;
 672:../source/sgl_core.h ****     const uint32_t *list;
 673:../source/sgl_core.h ****     const uint32_t tab_offset;
 674:../source/sgl_core.h **** } sgl_font_unicode_t;
 675:../source/sgl_core.h **** 
 676:../source/sgl_core.h **** 
 677:../source/sgl_core.h **** /**
 678:../source/sgl_core.h **** * @brief A structure used to describe information about a font, Defining a font set requires
 679:../source/sgl_core.h **** *        the use of this structure to describe relevant information
 680:../source/sgl_core.h **** *
 681:../source/sgl_core.h **** * @bitmap: point to bitmap of font
 682:../source/sgl_core.h **** * @table: point to struct sgl_font_table
 683:../source/sgl_core.h **** * @font_table_size: size of struct sgl_font_table
 684:../source/sgl_core.h **** * @font_height: height of font
 685:../source/sgl_core.h **** * @unicode: point to struct sgl_font_unicode struct
 686:../source/sgl_core.h **** * @unicode_num: number of unicode parts
 687:../source/sgl_core.h **** * @base_line: base line of font
 688:../source/sgl_core.h **** * @bpp: The anti aliasing level of the font, only support 2, 4
 689:../source/sgl_core.h **** * @compress: compress flag, 0: no compress, 1: compress
 690:../source/sgl_core.h **** */
 691:../source/sgl_core.h **** typedef struct sgl_font {
 692:../source/sgl_core.h ****     const uint8_t  *bitmap;
 693:../source/sgl_core.h ****     const sgl_font_table_t  *table;
 694:../source/sgl_core.h ****     const uint16_t  font_table_size;
 695:../source/sgl_core.h ****     const uint16_t  font_height;
 696:../source/sgl_core.h ****     const sgl_font_unicode_t *unicode;
 697:../source/sgl_core.h ****     const uint32_t  unicode_num;
 698:../source/sgl_core.h ****     const int16_t   base_line;
 699:../source/sgl_core.h ****     const uint8_t   bpp;
 700:../source/sgl_core.h ****     const uint8_t   compress;
 701:../source/sgl_core.h **** } sgl_font_t;
 702:../source/sgl_core.h **** 
 703:../source/sgl_core.h **** 
 704:../source/sgl_core.h **** typedef struct sgl_obj {
 705:../source/sgl_core.h ****     sgl_area_t      coords;
 706:../source/sgl_core.h ****     void            (*construct_fn)(sgl_surf_t *surf, struct sgl_obj *obj, sgl_area_t *area);
 707:../source/sgl_core.h ****     struct sgl_obj  *parent;
 708:../source/sgl_core.h ****     struct sgl_obj  *child;
 709:../source/sgl_core.h ****     struct sgl_obj  *sibling;
 710:../source/sgl_core.h ****     uint8_t         destroyed : 1;
 711:../source/sgl_core.h ****     uint8_t         dirty : 1;
 712:../source/sgl_core.h ****     uint8_t         hide : 1;
 713:../source/sgl_core.h ****     uint8_t         needinit : 1;
 714:../source/sgl_core.h ****     uint8_t         page : 1;
 715:../source/sgl_core.h ****     uint8_t         layout : 2;
 716:../source/sgl_core.h ****     uint8_t         border;
 717:../source/sgl_core.h ****     uint8_t         radius;
 718:../source/sgl_core.h **** } sgl_obj_t;
 719:../source/sgl_core.h **** 
 720:../source/sgl_core.h **** 
GAS LISTING C:\Users\lsw\AppData\Local\Temp\ccSZcLze.s 			page 16


 721:../source/sgl_core.h **** /**
 722:../source/sgl_core.h ****  * @brief Represents a page object in the SGL graphics system.
 723:../source/sgl_core.h ****  *
 724:../source/sgl_core.h ****  * An sgl_page_t encapsulates a complete, renderable UI page or screen.
 725:../source/sgl_core.h ****  * It combines a base graphical object, a drawing surface, a background color,
 726:../source/sgl_core.h ****  * and an optional background pixmap. Pages serve as top-level containers
 727:../source/sgl_core.h ****  * for UI elements and can be managed by a page manager or display stack.
 728:../source/sgl_core.h ****  *
 729:../source/sgl_core.h ****  * Members:
 730:../source/sgl_core.h ****  * - obj      : Base object (inherits sgl_obj_t), providing position, size, visibility, etc.
 731:../source/sgl_core.h ****  * - color    : Default background color used when no pixmap is set.
 732:../source/sgl_core.h ****  * - pixmap   : Optional pointer to a background pixmap. If non-NULL, it typically overrides 'color
 733:../source/sgl_core.h ****  *              as the background content during rendering (behavior depends on flush/render logic)
 734:../source/sgl_core.h ****  */
 735:../source/sgl_core.h **** typedef struct sgl_page {
 736:../source/sgl_core.h ****     sgl_obj_t          obj;
 737:../source/sgl_core.h ****     sgl_obj_t          *tail;
 738:../source/sgl_core.h ****     sgl_color_t        color;
 739:../source/sgl_core.h ****     const sgl_pixmap_t *pixmap;
 740:../source/sgl_core.h **** } sgl_page_t;
 741:../source/sgl_core.h **** 
 742:../source/sgl_core.h **** 
 743:../source/sgl_core.h **** /**
 744:../source/sgl_core.h ****  * @brief sgl framebuffer information struct
 745:../source/sgl_core.h ****  * @buffer: framebuffer, this specify the memory address of the framebuffer
 746:../source/sgl_core.h ****  * @buffer_size: framebuffer size
 747:../source/sgl_core.h ****  * @xres: x resolution
 748:../source/sgl_core.h ****  * @yres: y resolution
 749:../source/sgl_core.h ****  * @flush_area: flush area callback function pointer, return the finished flag
 750:../source/sgl_core.h ****  */
 751:../source/sgl_core.h **** typedef struct sgl_fbinfo {
 752:../source/sgl_core.h ****     void      *buffer[SGL_DRAW_BUFFER_MAX];
 753:../source/sgl_core.h ****     uint32_t   buffer_size;
 754:../source/sgl_core.h ****     int16_t    xres;
 755:../source/sgl_core.h ****     int16_t    yres;
 756:../source/sgl_core.h ****     void       (*flush_area)(sgl_area_t *area, sgl_color_t *src);
 757:../source/sgl_core.h **** } sgl_fbinfo_t;
 758:../source/sgl_core.h **** 
 759:../source/sgl_core.h **** 
 760:../source/sgl_core.h **** /**
 761:../source/sgl_core.h ****  * @brief sgl framebuffer device struct
 762:../source/sgl_core.h ****  * @fbinfo: framebuffer information, that specify the memory address of the framebuffer and resolut
 763:../source/sgl_core.h ****  * @surf: Drawing surface associated with this page; defines the target buffer or area for renderin
 764:../source/sgl_core.h ****  * @dirty_num: dirty area number
 765:../source/sgl_core.h ****  * @fb_swap: framebuffer swap flag
 766:../source/sgl_core.h ****  * @fb_status: framebuffer status flag
 767:../source/sgl_core.h ****  * @dirty: dirty area pool
 768:../source/sgl_core.h ****  * @page: current page
 769:../source/sgl_core.h ****  */
 770:../source/sgl_core.h **** typedef struct sgl_fbdev {
 771:../source/sgl_core.h ****     sgl_fbinfo_t      fbinfo;
 772:../source/sgl_core.h ****     sgl_surf_t        surf;
 773:../source/sgl_core.h ****     sgl_area_t        dirty;
 774:../source/sgl_core.h ****     uint8_t           fb_swap;
 775:../source/sgl_core.h ****     volatile uint8_t  fb_status;
 776:../source/sgl_core.h ****     sgl_obj_t         *active;
 777:../source/sgl_core.h **** } sgl_fbdev_t;
GAS LISTING C:\Users\lsw\AppData\Local\Temp\ccSZcLze.s 			page 17


 778:../source/sgl_core.h **** 
 779:../source/sgl_core.h **** 
 780:../source/sgl_core.h **** /**
 781:../source/sgl_core.h ****  * @brief sgl log print device struct
 782:../source/sgl_core.h ****  * @logdev: log print callback function pointer
 783:../source/sgl_core.h ****  * @tick_ms: tick milliseconds
 784:../source/sgl_core.h ****  */
 785:../source/sgl_core.h **** typedef struct sgl_system {
 786:../source/sgl_core.h ****     void               (*logdev)(const char *str);
 787:../source/sgl_core.h ****     sgl_fbdev_t        fbdev;
 788:../source/sgl_core.h ****     volatile uint32_t  tick_ms;
 789:../source/sgl_core.h **** #if (CONFIG_SGL_FBDEV_ROTATION != 0)
 790:../source/sgl_core.h ****     sgl_color_t        *rotation;
 791:../source/sgl_core.h **** #endif
 792:../source/sgl_core.h ****     uint8_t            mem_pool[CONFIG_SGL_HEAP_SIZE];
 793:../source/sgl_core.h **** } sgl_system_t;
 794:../source/sgl_core.h **** 
 795:../source/sgl_core.h **** 
 796:../source/sgl_core.h **** #if CONFIG_SGL_DEBUG
 797:../source/sgl_core.h **** /**
 798:../source/sgl_core.h ****  * @brief ebraid log printing function, used to print debugging information. Note that this functio
 799:../source/sgl_core.h ****  *        should only be called in debugging mode, otherwise it may affect system real-time 
 800:../source/sgl_core.h ****  *        performance due to long execution time
 801:../source/sgl_core.h ****  * 
 802:../source/sgl_core.h ****  * @param level:  log level, such as, INFO, USER...
 803:../source/sgl_core.h ****  * @param format:  log content
 804:../source/sgl_core.h ****  * 
 805:../source/sgl_core.h ****  * @return none
 806:../source/sgl_core.h **** */
 807:../source/sgl_core.h **** void sgl_log(const char *level, const char * format, ...);
 808:../source/sgl_core.h **** 
 809:../source/sgl_core.h **** 
 810:../source/sgl_core.h **** /**
 811:../source/sgl_core.h ****  * @brief ebraid assert handler, used to handle assertions
 812:../source/sgl_core.h ****  * 
 813:../source/sgl_core.h ****  * @param file:  file name
 814:../source/sgl_core.h ****  * @param func:  function name
 815:../source/sgl_core.h ****  * @param line:  line number
 816:../source/sgl_core.h ****  * 
 817:../source/sgl_core.h ****  * @return none
 818:../source/sgl_core.h **** */
 819:../source/sgl_core.h **** void sgl_assert_handler(const char *file, const char *func, int line);
 820:../source/sgl_core.h **** #endif // CONFIG_SGL_DEBUG
 821:../source/sgl_core.h **** 
 822:../source/sgl_core.h **** 
 823:../source/sgl_core.h **** /**
 824:../source/sgl_core.h ****  * @brief Calculate the sine of an angle
 825:../source/sgl_core.h ****  * @param angle: Angle in degrees such 0-359
 826:../source/sgl_core.h ****  * @return sine of the angle from sin0_90_table
 827:../source/sgl_core.h ****  */
 828:../source/sgl_core.h **** int32_t sgl_sin(int16_t angle);
 829:../source/sgl_core.h **** 
 830:../source/sgl_core.h **** 
 831:../source/sgl_core.h **** /**
 832:../source/sgl_core.h ****  * @brief Calculate the cos of an angle
 833:../source/sgl_core.h ****  * @param angle: Angle in degrees such 0-359
 834:../source/sgl_core.h ****  * @return cos of the angle from sin0_90_table
GAS LISTING C:\Users\lsw\AppData\Local\Temp\ccSZcLze.s 			page 18


 835:../source/sgl_core.h ****  */
 836:../source/sgl_core.h **** static inline int32_t sgl_cos(int16_t angle)
 837:../source/sgl_core.h **** {
 838:../source/sgl_core.h ****     return sgl_sin(angle + 90);
 839:../source/sgl_core.h **** }
 840:../source/sgl_core.h **** 
 841:../source/sgl_core.h **** 
 842:../source/sgl_core.h **** /**
 843:../source/sgl_core.h ****  * @brief  Calculate x number square root
 844:../source/sgl_core.h ****  * @param  x: x number
 845:../source/sgl_core.h ****  * @retval x number square root
 846:../source/sgl_core.h ****  */
 847:../source/sgl_core.h **** uint16_t sgl_sqrt(uint32_t x);
 848:../source/sgl_core.h **** 
 849:../source/sgl_core.h **** 
 850:../source/sgl_core.h **** /**
 851:../source/sgl_core.h ****  * @brief Calculate error of the square root for a number.
 852:../source/sgl_core.h ****  * @param x The number to calculate the error for.
 853:../source/sgl_core.h ****  * @return The error of the square root. [0 ~ 255]
 854:../source/sgl_core.h ****  */
 855:../source/sgl_core.h **** uint8_t sgl_sqrt_error(uint32_t x);
 856:../source/sgl_core.h **** 
 857:../source/sgl_core.h **** 
 858:../source/sgl_core.h **** /**
 859:../source/sgl_core.h ****  * @brief Calculate the angle based on the x and y coordinates. This function is a fast algorithm
 860:../source/sgl_core.h ****  *         implementation, with reference address: www.RomanBlack.com (Fast XY vector to integer de
 861:../source/sgl_core.h ****  *
 862:../source/sgl_core.h ****  * @param x:  The x coordinate on a circle
 863:../source/sgl_core.h ****  * @param y:  The y coordinate on a circle
 864:../source/sgl_core.h ****  * @return angle 
 865:../source/sgl_core.h ****  * @note return angle [-32767 ~ 32767]
 866:../source/sgl_core.h ****  */
 867:../source/sgl_core.h **** int32_t sgl_atan2_raw(int x, int y);
 868:../source/sgl_core.h **** 
 869:../source/sgl_core.h **** 
 870:../source/sgl_core.h **** /**
 871:../source/sgl_core.h ****  * @brief Calculate the angle based on the x and y coordinates. This function is a fast algorithm 
 872:../source/sgl_core.h ****  *        implementation, with reference address: www.RomanBlack.com (Fast XY vector to integer deg
 873:../source/sgl_core.h ****  * 
 874:../source/sgl_core.h ****  * @param x:  The x coordinate on a circle
 875:../source/sgl_core.h ****  * @param y:  The y coordinate on a circle
 876:../source/sgl_core.h ****  * @return angle
 877:../source/sgl_core.h ****  * @note return angle [0 ~ 359]
 878:../source/sgl_core.h **** */
 879:../source/sgl_core.h **** uint16_t sgl_atan2_angle(int x, int y);
 880:../source/sgl_core.h **** 
 881:../source/sgl_core.h **** 
 882:../source/sgl_core.h **** /**
 883:../source/sgl_core.h ****  * @brief Split the length into n parts, with the weight of each part.
 884:../source/sgl_core.h ****  * @param weight: The weight of each part.
 885:../source/sgl_core.h ****  * @param count: The count of parts.
 886:../source/sgl_core.h ****  * @param length: The length to split.
 887:../source/sgl_core.h ****  * @param gap: The gap between each part.
 888:../source/sgl_core.h ****  * @param out: The length of each part.
 889:../source/sgl_core.h ****  * @note The error accumulation method of Bresenham's algorithm
 890:../source/sgl_core.h ****  */
 891:../source/sgl_core.h **** void sgl_split_len(const uint8_t *weight, int count, int16_t length, int16_t gap, int16_t *out);
GAS LISTING C:\Users\lsw\AppData\Local\Temp\ccSZcLze.s 			page 19


 892:../source/sgl_core.h **** 
 893:../source/sgl_core.h **** 
 894:../source/sgl_core.h **** /**
 895:../source/sgl_core.h ****  * @brief Split the length into n parts, with the weight of each part.
 896:../source/sgl_core.h ****  * @param length: The length to split.
 897:../source/sgl_core.h ****  * @param count: The count of parts.
 898:../source/sgl_core.h ****  * @param gap: The gap between each part.
 899:../source/sgl_core.h ****  * @param out: The length of each part.
 900:../source/sgl_core.h ****  * @note The average method of Bresenham's algorithm
 901:../source/sgl_core.h ****  */
 902:../source/sgl_core.h **** void sgl_split_len_avg(int length, int count, int16_t gap, int16_t *out);
 903:../source/sgl_core.h **** 
 904:../source/sgl_core.h **** 
 905:../source/sgl_core.h **** /**
 906:../source/sgl_core.h ****  * @brief Calculate whether the x and y coordinates have a component.
 907:../source/sgl_core.h ****  * @param x:  The x coordinate on a circle
 908:../source/sgl_core.h ****  * @param y:  The y coordinate on a circle
 909:../source/sgl_core.h ****  * @param xv: The x coordinate of the vector
 910:../source/sgl_core.h ****  * @param yv: The y coordinate of the vector
 911:../source/sgl_core.h ****  * @return 1: The x and y coordinates have a component. 0: The x and y coordinates do not have a co
 912:../source/sgl_core.h ****  */
 913:../source/sgl_core.h **** static inline int sgl_xy_has_component( int x, int y, int xv, int yv)
 914:../source/sgl_core.h **** {
 915:../source/sgl_core.h ****     return ((x != 0 && ((xv ^ x) < 0)) || (y != 0 && ((yv ^ y) < 0)));
 916:../source/sgl_core.h **** }
 917:../source/sgl_core.h **** 
 918:../source/sgl_core.h **** 
 919:../source/sgl_core.h **** /**
 920:../source/sgl_core.h ****  * @brief Generate a random number.
 921:../source/sgl_core.h ****  * @param none
 922:../source/sgl_core.h ****  * @return Random number.
 923:../source/sgl_core.h ****  * @note The random number generator is in the range of [0, 32767].
 924:../source/sgl_core.h ****  */
 925:../source/sgl_core.h **** int16_t sgl_rand(void);
 926:../source/sgl_core.h **** 
 927:../source/sgl_core.h **** 
 928:../source/sgl_core.h **** /**
 929:../source/sgl_core.h ****  * @brief Set the seed of the random number generator.
 930:../source/sgl_core.h ****  * @param seed: The seed of the random number generator.
 931:../source/sgl_core.h ****  * @return none
 932:../source/sgl_core.h ****  */
 933:../source/sgl_core.h **** void sgl_srand(unsigned int seed);
 934:../source/sgl_core.h **** 
 935:../source/sgl_core.h **** 
 936:../source/sgl_core.h **** /**
 937:../source/sgl_core.h ****  * @brief for each child object of parent
 938:../source/sgl_core.h ****  * @param _child: pointer of child object
 939:../source/sgl_core.h ****  * @param parent: pointer of parent object
 940:../source/sgl_core.h ****  */
 941:../source/sgl_core.h **** #define  sgl_obj_for_each_child(_child, parent)             for (_child = parent->child; _child != 
 942:../source/sgl_core.h **** 
 943:../source/sgl_core.h **** 
 944:../source/sgl_core.h **** /**
 945:../source/sgl_core.h ****  * @brief for each child object of parent safely
 946:../source/sgl_core.h ****  * @param _child: pointer of child object
 947:../source/sgl_core.h ****  * @param parent: pointer of parent object
 948:../source/sgl_core.h ****  */
GAS LISTING C:\Users\lsw\AppData\Local\Temp\ccSZcLze.s 			page 20


 949:../source/sgl_core.h **** #define sgl_obj_for_each_child_safe(_child, n, parent)      for (_child = parent->child, n = (_chil
 950:../source/sgl_core.h ****                                                                  _child = n, n = (_child ? _child->
 951:../source/sgl_core.h **** 
 952:../source/sgl_core.h **** 
 953:../source/sgl_core.h **** 
 954:../source/sgl_core.h **** /* dont to use this variable, it is used internally by sgl library */
 955:../source/sgl_core.h **** extern sgl_system_t sgl_system;
 956:../source/sgl_core.h **** 
 957:../source/sgl_core.h **** 
 958:../source/sgl_core.h **** /**
 959:../source/sgl_core.h ****  * @brief register the frame buffer device
 960:../source/sgl_core.h ****  * @param fbinfo the frame buffer device information
 961:../source/sgl_core.h ****  * @return int, 0 if success, -1 if failed
 962:../source/sgl_core.h ****  * @note you must check the result of this function
 963:../source/sgl_core.h ****  */
 964:../source/sgl_core.h **** int sgl_fbdev_register(sgl_fbinfo_t *fbinfo);
 965:../source/sgl_core.h **** 
 966:../source/sgl_core.h **** 
 967:../source/sgl_core.h **** /**
 968:../source/sgl_core.h ****  * @brief set framebuffer device flush ready
 969:../source/sgl_core.h ****  * @param none
 970:../source/sgl_core.h ****  * @return none
 971:../source/sgl_core.h ****  * @note this function must be called in DMA callback function after framebuffer device flush
 972:../source/sgl_core.h ****  */
 973:../source/sgl_core.h **** static inline void sgl_fbdev_flush_ready(void)
 974:../source/sgl_core.h **** {
 975:../source/sgl_core.h ****     sgl_system.fbdev.fb_status |= (1 << sgl_system.fbdev.fb_swap);
 976:../source/sgl_core.h **** 
 977:../source/sgl_core.h ****     /* change to next framebuffer */
 978:../source/sgl_core.h ****     if (sgl_system.fbdev.fbinfo.buffer[1] != NULL) {
 979:../source/sgl_core.h ****         sgl_system.fbdev.surf.buffer = (sgl_color_t *)sgl_system.fbdev.fbinfo.buffer[sgl_system.fbd
 980:../source/sgl_core.h ****     }
 981:../source/sgl_core.h **** }
 982:../source/sgl_core.h **** 
 983:../source/sgl_core.h **** 
 984:../source/sgl_core.h **** /**
 985:../source/sgl_core.h ****  * @brief check if framebuffer device buffer need to wait ready
 986:../source/sgl_core.h ****  * @param fbdev point to the framebuffer device
 987:../source/sgl_core.h ****  * @return bool true if need to wait ready, false if not
 988:../source/sgl_core.h ****  */
 989:../source/sgl_core.h **** static inline bool sgl_fbdev_flush_wait_ready(sgl_fbdev_t *fbdev)
 990:../source/sgl_core.h **** {
 991:../source/sgl_core.h ****     return (fbdev->fb_status & (1 << sgl_system.fbdev.fb_swap)) == 0;
 992:../source/sgl_core.h **** }
 993:../source/sgl_core.h **** 
 994:../source/sgl_core.h **** 
 995:../source/sgl_core.h **** /**
 996:../source/sgl_core.h ****  * @brief get framebuffer device buffer resolution width
 997:../source/sgl_core.h ****  * @param none
 998:../source/sgl_core.h ****  * @return framebuffer device buffer resolution width
 999:../source/sgl_core.h ****  */
1000:../source/sgl_core.h **** static inline int16_t sgl_fbdev_resolution_width(void)
1001:../source/sgl_core.h **** {
1002:../source/sgl_core.h ****     return sgl_system.fbdev.fbinfo.xres;
1003:../source/sgl_core.h **** }
1004:../source/sgl_core.h **** 
1005:../source/sgl_core.h **** /**
GAS LISTING C:\Users\lsw\AppData\Local\Temp\ccSZcLze.s 			page 21


1006:../source/sgl_core.h ****  * @brief get framebuffer device buffer resolution height
1007:../source/sgl_core.h ****  * @param none
1008:../source/sgl_core.h ****  * @return framebuffer device buffer resolution height
1009:../source/sgl_core.h ****  */
1010:../source/sgl_core.h **** #define  SGL_SCREEN_WIDTH  sgl_fbdev_resolution_width()
1011:../source/sgl_core.h **** 
1012:../source/sgl_core.h **** 
1013:../source/sgl_core.h **** /**
1014:../source/sgl_core.h ****  * @brief get framebuffer device buffer resolution height
1015:../source/sgl_core.h ****  * @param none
1016:../source/sgl_core.h ****  * @return framebuffer device buffer resolution height
1017:../source/sgl_core.h ****  */
1018:../source/sgl_core.h **** static inline int16_t sgl_fbdev_resolution_height(void)
1019:../source/sgl_core.h **** {
1020:../source/sgl_core.h ****     return sgl_system.fbdev.fbinfo.yres;
1021:../source/sgl_core.h **** }
1022:../source/sgl_core.h **** 
1023:../source/sgl_core.h **** /**
1024:../source/sgl_core.h ****  * @brief get framebuffer device buffer resolution width
1025:../source/sgl_core.h ****  * @param none
1026:../source/sgl_core.h ****  * @return framebuffer device buffer resolution width
1027:../source/sgl_core.h ****  */
1028:../source/sgl_core.h **** #define  SGL_SCREEN_HEIGHT  sgl_fbdev_resolution_height()
1029:../source/sgl_core.h **** 
1030:../source/sgl_core.h **** 
1031:../source/sgl_core.h **** /**
1032:../source/sgl_core.h ****  * @brief get framebuffer device buffer address
1033:../source/sgl_core.h ****  * @param none
1034:../source/sgl_core.h ****  * @return framebuffer device buffer address
1035:../source/sgl_core.h ****  */
1036:../source/sgl_core.h **** static inline void* sgl_fbdev_buffer_address(void)
1037:../source/sgl_core.h **** {
1038:../source/sgl_core.h ****     return sgl_system.fbdev.fbinfo.buffer[0];
1039:../source/sgl_core.h **** }
1040:../source/sgl_core.h **** 
1041:../source/sgl_core.h **** 
1042:../source/sgl_core.h **** /**
1043:../source/sgl_core.h ****  * @brief framebuffer device flush function
1044:../source/sgl_core.h ****  * @param area [in] area of flush, that is x1, y1, x2, y2: area of flush
1045:../source/sgl_core.h ****  *                  area contains the coordinates of the area to be flushed
1046:../source/sgl_core.h ****  *                  - x1: x coordinate of the top left corner of the area
1047:../source/sgl_core.h ****  *                  - y1: y coordinate of the top left corner of the area
1048:../source/sgl_core.h ****  *                  - x2: x coordinate of the bottom right corner of the area
1049:../source/sgl_core.h ****  *                  - y2: y coordinate of the bottom right corner of the area
1050:../source/sgl_core.h ****  * @param src [in] source color
1051:../source/sgl_core.h ****  */
1052:../source/sgl_core.h **** static inline void sgl_fbdev_flush_area(sgl_area_t *area, sgl_color_t *src)
1053:../source/sgl_core.h **** {
1054:../source/sgl_core.h **** #if CONFIG_SGL_COLOR16_SWAP
1055:../source/sgl_core.h ****     uint16_t w = area->x2 - area->x1 + 1;
1056:../source/sgl_core.h ****     uint16_t h = area->y2 - area->y1 + 1;
1057:../source/sgl_core.h ****     uint16_t *dst = (uint16_t *)src;
1058:../source/sgl_core.h ****     for (size_t i = 0; i < (size_t)(w * h); i++) {
1059:../source/sgl_core.h ****         dst[i] = (dst[i] << 8) | (dst[i] >> 8);
1060:../source/sgl_core.h ****     }
1061:../source/sgl_core.h **** #endif
1062:../source/sgl_core.h **** 
GAS LISTING C:\Users\lsw\AppData\Local\Temp\ccSZcLze.s 			page 22


1063:../source/sgl_core.h **** #if (CONFIG_SGL_FBDEV_ROTATION != 0)
1064:../source/sgl_core.h ****     uint16_t width = area->x2 - area->x1 + 1;
1065:../source/sgl_core.h ****     uint16_t height = area->y2 - area->y1 + 1;
1066:../source/sgl_core.h ****     sgl_area_t area_dst = *area;
1067:../source/sgl_core.h **** 
1068:../source/sgl_core.h **** #if (CONFIG_SGL_FBDEV_ROTATION == 90)
1069:../source/sgl_core.h ****     for (uint16_t y = 0; y < height; y++) {
1070:../source/sgl_core.h ****         for (uint16_t x = 0; x < width; x++) {
1071:../source/sgl_core.h ****             size_t src_idx = y * width + x;
1072:../source/sgl_core.h ****             size_t dst_idx = (width - 1 - x) * height + y;
1073:../source/sgl_core.h ****             sgl_system.rotation[dst_idx] = src[src_idx];
1074:../source/sgl_core.h ****         }
1075:../source/sgl_core.h ****     }
1076:../source/sgl_core.h **** 
1077:../source/sgl_core.h ****     area_dst.x1 = area->y1;
1078:../source/sgl_core.h ****     area_dst.y1 = SGL_SCREEN_WIDTH - area->x2 - 1;
1079:../source/sgl_core.h ****     area_dst.x2 = sgl_min(area->y2, SGL_SCREEN_HEIGHT - 1);
1080:../source/sgl_core.h ****     area_dst.y2 = sgl_min(SGL_SCREEN_WIDTH - area->x1 - 1, SGL_SCREEN_WIDTH - 1);
1081:../source/sgl_core.h **** 
1082:../source/sgl_core.h **** #elif (CONFIG_SGL_FBDEV_ROTATION == 180)
1083:../source/sgl_core.h ****     size_t total = (size_t)(width * height);
1084:../source/sgl_core.h ****     for (size_t i = 0; i < total; i++) {
1085:../source/sgl_core.h ****         sgl_system.rotation[i] = src[total - 1 - i];
1086:../source/sgl_core.h ****     }
1087:../source/sgl_core.h **** 
1088:../source/sgl_core.h ****     area_dst.x1 = SGL_SCREEN_WIDTH  - area->x2 - 1;
1089:../source/sgl_core.h ****     area_dst.y1 = SGL_SCREEN_HEIGHT - area->y2 - 1;
1090:../source/sgl_core.h ****     area_dst.x2 = SGL_SCREEN_WIDTH  - area->x1 - 1;
1091:../source/sgl_core.h ****     area_dst.y2 = SGL_SCREEN_HEIGHT - area->y1 - 1;
1092:../source/sgl_core.h **** 
1093:../source/sgl_core.h **** #elif (CONFIG_SGL_FBDEV_ROTATION == 270)
1094:../source/sgl_core.h ****     for (uint16_t y = 0; y < height; y++) {
1095:../source/sgl_core.h ****         for (uint16_t x = 0; x < width; x++) {
1096:../source/sgl_core.h ****             size_t src_idx = y * width + x;
1097:../source/sgl_core.h ****             size_t dst_idx = x * height + (height - 1 - y);
1098:../source/sgl_core.h ****             sgl_system.rotation[dst_idx] = src[src_idx];
1099:../source/sgl_core.h ****         }
1100:../source/sgl_core.h ****     }
1101:../source/sgl_core.h **** 
1102:../source/sgl_core.h ****     area_dst.x1 = SGL_SCREEN_HEIGHT - area->y2 - 1;
1103:../source/sgl_core.h ****     area_dst.y1 = area->x1;
1104:../source/sgl_core.h ****     area_dst.x2 = sgl_min(area_dst.x1 + height - 1, SGL_SCREEN_HEIGHT - 1);
1105:../source/sgl_core.h ****     area_dst.y2 = sgl_min(area_dst.y1 + width - 1, SGL_SCREEN_WIDTH - 1);
1106:../source/sgl_core.h **** #else
1107:../source/sgl_core.h **** #error "CONFIG_SGL_FBDEV_ROTATION is invalid rotation value (only 0/90/180/270 supported)"
1108:../source/sgl_core.h **** #endif
1109:../source/sgl_core.h ****     sgl_system.fbdev.fbinfo.flush_area(&area_dst, sgl_system.rotation);
1110:../source/sgl_core.h **** #else
1111:../source/sgl_core.h ****     sgl_system.fbdev.fbinfo.flush_area(area, src);
1112:../source/sgl_core.h **** #endif
1113:../source/sgl_core.h **** }
1114:../source/sgl_core.h **** 
1115:../source/sgl_core.h **** 
1116:../source/sgl_core.h **** /**
1117:../source/sgl_core.h ****  * @brief register log output device
1118:../source/sgl_core.h ****  * @param log_puts log output function
1119:../source/sgl_core.h ****  * @return none
GAS LISTING C:\Users\lsw\AppData\Local\Temp\ccSZcLze.s 			page 23


1120:../source/sgl_core.h ****  * @note if you want to use print log into uart or other devices, you must register log output devi
1121:../source/sgl_core.h ****  */
1122:../source/sgl_core.h **** static inline void sgl_logdev_register(void (*puts)(const char *str))
1123:../source/sgl_core.h **** {
1124:../source/sgl_core.h ****     sgl_system.logdev = puts;
1125:../source/sgl_core.h **** }
1126:../source/sgl_core.h **** 
1127:../source/sgl_core.h **** 
1128:../source/sgl_core.h **** /**
1129:../source/sgl_core.h ****  * @brief log output function
1130:../source/sgl_core.h ****  * @param str log string
1131:../source/sgl_core.h ****  * @return none
1132:../source/sgl_core.h ****  * @note if you want to use printf function, you must register log output device first
1133:../source/sgl_core.h ****  */
1134:../source/sgl_core.h **** static inline void sgl_log_stdout(const char *str)
1135:../source/sgl_core.h **** {
1136:../source/sgl_core.h ****     if (sgl_system.logdev) {
1137:../source/sgl_core.h ****         sgl_system.logdev(str);
1138:../source/sgl_core.h ****     }
1139:../source/sgl_core.h **** }
1140:../source/sgl_core.h **** 
1141:../source/sgl_core.h **** 
1142:../source/sgl_core.h **** /**
1143:../source/sgl_core.h ****  * @brief get pixmap format bits
1144:../source/sgl_core.h ****  * @param pixmap pointer to pixmap
1145:../source/sgl_core.h ****  * @return pixmap bits
1146:../source/sgl_core.h ****  */
1147:../source/sgl_core.h **** uint8_t sgl_pixmal_get_bits(const sgl_pixmap_t *pixmap);
1148:../source/sgl_core.h **** 
1149:../source/sgl_core.h **** 
1150:../source/sgl_core.h **** /**
1151:../source/sgl_core.h ****  * @brief get tick milliseconds
1152:../source/sgl_core.h ****  * @param none
1153:../source/sgl_core.h ****  * @return tick milliseconds
1154:../source/sgl_core.h ****  */
1155:../source/sgl_core.h **** static inline uint8_t sgl_tick_get(void)
1156:../source/sgl_core.h **** {
1157:../source/sgl_core.h ****     return sgl_system.tick_ms;
1158:../source/sgl_core.h **** }
1159:../source/sgl_core.h **** 
1160:../source/sgl_core.h **** 
1161:../source/sgl_core.h **** /**
1162:../source/sgl_core.h ****  * @brief increase tick milliseconds
1163:../source/sgl_core.h ****  * @param ms milliseconds
1164:../source/sgl_core.h ****  * @return none
1165:../source/sgl_core.h ****  * @note in general, you should call this function in the 1ms tick interrupt handler
1166:../source/sgl_core.h ****  *       of course, you can use polling function to increase tick milliseconds.
1167:../source/sgl_core.h ****  */
1168:../source/sgl_core.h **** static inline void sgl_tick_inc(uint8_t ms)
  24              		.loc 2 1168 20 view .LVU4
  25              	.LBB7:
1169:../source/sgl_core.h **** {
1170:../source/sgl_core.h ****     sgl_system.tick_ms += ms;
  26              		.loc 2 1170 5 view .LVU5
  27              	.LBE7:
  28              	.LBE6:
 111:sgl_port_sdl2.c ****     SGL_UNUSED(param);
GAS LISTING C:\Users\lsw\AppData\Local\Temp\ccSZcLze.s 			page 24


  29              		.loc 1 111 1 is_stmt 0 view .LVU6
  30 0000 89C8     		movl	%ecx, %eax
  31              	.LBB9:
  32              	.LBB8:
  33              		.loc 2 1170 15 view .LVU7
  34 0002 488B0D00 		movq	.refptr.sgl_system(%rip), %rcx
  34      000000
  35              	.LVL2:
  36              		.loc 2 1170 15 view .LVU8
  37 0009 8B5160   		movl	96(%rcx), %edx
  38              	.LVL3:
  39              		.loc 2 1170 24 view .LVU9
  40 000c 83C201   		addl	$1, %edx
  41 000f 895160   		movl	%edx, 96(%rcx)
  42              	.LVL4:
  43              		.loc 2 1170 24 view .LVU10
  44              	.LBE8:
  45              	.LBE9:
 114:sgl_port_sdl2.c ****     return interval;
  46              		.loc 1 114 5 is_stmt 1 view .LVU11
 115:sgl_port_sdl2.c **** }
  47              		.loc 1 115 1 is_stmt 0 view .LVU12
  48 0012 C3       		ret
  49              		.cfi_endproc
  50              	.LFE6951:
  51              		.seh_endproc
  52 0013 90909090 		.section	.text$flush_window,"x"
  52      90909090 
  52      90909090 
  52      90
  53              		.p2align 4
  55              		.seh_proc	flush_window
  56              	flush_window:
  57              	.LVL5:
  58              	.LFB6949:
  89:sgl_port_sdl2.c ****     SDL_Texture *texture = SDL_CreateTexture(m_renderer, SDL_PIXEL_FORMAT, SDL_TEXTUREACCESS_STREAM
  59              		.loc 1 89 1 is_stmt 1 view -0
  60              		.cfi_startproc
  89:sgl_port_sdl2.c ****     SDL_Texture *texture = SDL_CreateTexture(m_renderer, SDL_PIXEL_FORMAT, SDL_TEXTUREACCESS_STREAM
  61              		.loc 1 89 1 is_stmt 0 view .LVU14
  62 0000 56       		pushq	%rsi
  63              		.seh_pushreg	%rsi
  64              		.cfi_def_cfa_offset 16
  65              		.cfi_offset 4, -16
  66 0001 53       		pushq	%rbx
  67              		.seh_pushreg	%rbx
  68              		.cfi_def_cfa_offset 24
  69              		.cfi_offset 3, -24
  70 0002 4883EC38 		subq	$56, %rsp
  71              		.seh_stackalloc	56
  72              		.cfi_def_cfa_offset 80
  73              		.seh_endprologue
  90:sgl_port_sdl2.c ****     SDL_UpdateTexture(texture, NULL, sdl2_frame_buffer, CONFIG_SGL_PANEL_WIDTH * sizeof(sgl_color_t
  74              		.loc 1 90 5 is_stmt 1 view .LVU15
  90:sgl_port_sdl2.c ****     SDL_UpdateTexture(texture, NULL, sdl2_frame_buffer, CONFIG_SGL_PANEL_WIDTH * sizeof(sgl_color_t
  75              		.loc 1 90 28 is_stmt 0 view .LVU16
  76 0006 41B9F000 		movl	$240, %r9d
GAS LISTING C:\Users\lsw\AppData\Local\Temp\ccSZcLze.s 			page 25


  76      0000
  77 000c 41B80100 		movl	$1, %r8d
  77      0000
  78 0012 BA021015 		movl	$353701890, %edx
  78      15
  79 0017 C7442420 		movl	$284, 32(%rsp)
  79      1C010000 
  89:sgl_port_sdl2.c ****     SDL_Texture *texture = SDL_CreateTexture(m_renderer, SDL_PIXEL_FORMAT, SDL_TEXTUREACCESS_STREAM
  80              		.loc 1 89 1 view .LVU17
  81 001f 4889CE   		movq	%rcx, %rsi
  90:sgl_port_sdl2.c ****     SDL_UpdateTexture(texture, NULL, sdl2_frame_buffer, CONFIG_SGL_PANEL_WIDTH * sizeof(sgl_color_t
  82              		.loc 1 90 28 view .LVU18
  83 0022 E8000000 		call	SDL_CreateTexture
  83      00
  84              	.LVL6:
  91:sgl_port_sdl2.c ****     SDL_RenderCopy(m_renderer, texture, NULL, NULL);
  85              		.loc 1 91 5 view .LVU19
  86 0027 31D2     		xorl	%edx, %edx
  87 0029 41B9E001 		movl	$480, %r9d
  87      0000
  88 002f 4C8D0500 		leaq	sdl2_frame_buffer(%rip), %r8
  88      000000
  90:sgl_port_sdl2.c ****     SDL_UpdateTexture(texture, NULL, sdl2_frame_buffer, CONFIG_SGL_PANEL_WIDTH * sizeof(sgl_color_t
  89              		.loc 1 90 28 view .LVU20
  90 0036 4889C3   		movq	%rax, %rbx
  91              	.LVL7:
  91:sgl_port_sdl2.c ****     SDL_RenderCopy(m_renderer, texture, NULL, NULL);
  92              		.loc 1 91 5 is_stmt 1 view .LVU21
  93 0039 4889C1   		movq	%rax, %rcx
  94 003c E8000000 		call	SDL_UpdateTexture
  94      00
  95              	.LVL8:
  92:sgl_port_sdl2.c ****     SDL_RenderPresent(m_renderer);
  96              		.loc 1 92 5 view .LVU22
  97 0041 4531C9   		xorl	%r9d, %r9d
  98 0044 4531C0   		xorl	%r8d, %r8d
  99 0047 4889DA   		movq	%rbx, %rdx
 100 004a 4889F1   		movq	%rsi, %rcx
 101 004d E8000000 		call	SDL_RenderCopy
 101      00
 102              	.LVL9:
  93:sgl_port_sdl2.c ****     SDL_DestroyTexture(texture);
 103              		.loc 1 93 5 view .LVU23
 104 0052 4889F1   		movq	%rsi, %rcx
 105 0055 E8000000 		call	SDL_RenderPresent
 105      00
 106              	.LVL10:
  94:sgl_port_sdl2.c **** }
 107              		.loc 1 94 5 view .LVU24
 108 005a 4889D9   		movq	%rbx, %rcx
  95:sgl_port_sdl2.c **** 
 109              		.loc 1 95 1 is_stmt 0 view .LVU25
 110 005d 4883C438 		addq	$56, %rsp
 111              		.cfi_def_cfa_offset 24
 112 0061 5B       		popq	%rbx
 113              		.cfi_restore 3
 114              		.cfi_def_cfa_offset 16
GAS LISTING C:\Users\lsw\AppData\Local\Temp\ccSZcLze.s 			page 26


 115              	.LVL11:
  95:sgl_port_sdl2.c **** 
 116              		.loc 1 95 1 view .LVU26
 117 0062 5E       		popq	%rsi
 118              		.cfi_restore 4
 119              		.cfi_def_cfa_offset 8
 120              	.LVL12:
  94:sgl_port_sdl2.c **** }
 121              		.loc 1 94 5 view .LVU27
 122 0063 E9000000 		jmp	SDL_DestroyTexture
 122      00
 123              	.LVL13:
  94:sgl_port_sdl2.c **** }
 124              		.loc 1 94 5 view .LVU28
 125              		.cfi_endproc
 126              	.LFE6949:
 127              		.seh_endproc
 128 0068 90909090 		.section	.text$log_stdout,"x"
 128      90909090 
 129              		.p2align 4
 130              		.globl	log_stdout
 132              		.seh_proc	log_stdout
 133              	log_stdout:
 134              	.LVL14:
 135              	.LFB6954:
 116:sgl_port_sdl2.c **** 
 117:sgl_port_sdl2.c **** 
 118:sgl_port_sdl2.c **** void test_flush(void)
 119:sgl_port_sdl2.c **** {
 120:sgl_port_sdl2.c ****     flush_window(m_renderer);
 121:sgl_port_sdl2.c **** }
 122:sgl_port_sdl2.c **** 
 123:sgl_port_sdl2.c **** static void panel_flush_area(sgl_area_t *area, sgl_color_t *src)
 124:sgl_port_sdl2.c **** {
 125:sgl_port_sdl2.c ****     int x = area->x1;
 126:sgl_port_sdl2.c ****     int y = area->y1;
 127:sgl_port_sdl2.c ****     int w = area->x2 - x + 1;
 128:sgl_port_sdl2.c ****     int h = area->y2 - y + 1;
 129:sgl_port_sdl2.c **** 
 130:sgl_port_sdl2.c ****     sgl_color_t *dest = sdl2_frame_buffer;
 131:sgl_port_sdl2.c ****     dest += (x + y * CONFIG_SGL_PANEL_WIDTH);
 132:sgl_port_sdl2.c **** 
 133:sgl_port_sdl2.c ****     for(int i = 0; i < h; i ++) {
 134:sgl_port_sdl2.c ****         memcpy(dest, src, w * sizeof(sgl_color_t));
 135:sgl_port_sdl2.c ****         dest += CONFIG_SGL_PANEL_WIDTH;
 136:sgl_port_sdl2.c ****         src += w;
 137:sgl_port_sdl2.c ****     }
 138:sgl_port_sdl2.c **** 
 139:sgl_port_sdl2.c ****     flush_window(m_renderer);
 140:sgl_port_sdl2.c ****     sgl_fbdev_flush_ready();
 141:sgl_port_sdl2.c **** }
 142:sgl_port_sdl2.c **** 
 143:sgl_port_sdl2.c **** 
 144:sgl_port_sdl2.c **** static sgl_color_t panel_buffer0[CONFIG_SGL_PANEL_WIDTH * CONFIG_SGL_PANEL_BUFFER_LINE] = {0};
 145:sgl_port_sdl2.c **** static sgl_color_t panel_buffer1[CONFIG_SGL_PANEL_WIDTH * CONFIG_SGL_PANEL_BUFFER_LINE] = {0};
 146:sgl_port_sdl2.c **** 
 147:sgl_port_sdl2.c **** 
GAS LISTING C:\Users\lsw\AppData\Local\Temp\ccSZcLze.s 			page 27


 148:sgl_port_sdl2.c **** void log_stdout(const char *str)
 149:sgl_port_sdl2.c **** {
 136              		.loc 1 149 1 is_stmt 1 view -0
 137              		.cfi_startproc
 138              		.loc 1 149 1 is_stmt 0 view .LVU30
 139 0000 4883EC28 		subq	$40, %rsp
 140              		.seh_stackalloc	40
 141              		.cfi_def_cfa_offset 48
 142              		.seh_endprologue
 150:sgl_port_sdl2.c ****     printf(str);
 143              		.loc 1 150 5 is_stmt 1 view .LVU31
 144 0004 E8000000 		call	printf
 144      00
 145              	.LVL15:
 151:sgl_port_sdl2.c ****     fflush(stdout);
 146              		.loc 1 151 5 view .LVU32
 147 0009 B9010000 		movl	$1, %ecx
 147      00
 148 000e FF150000 		call	*__imp___acrt_iob_func(%rip)
 148      0000
 149              	.LVL16:
 150 0014 4889C1   		movq	%rax, %rcx
 152:sgl_port_sdl2.c **** }
 151              		.loc 1 152 1 is_stmt 0 view .LVU33
 152 0017 4883C428 		addq	$40, %rsp
 153              		.cfi_def_cfa_offset 8
 151:sgl_port_sdl2.c ****     fflush(stdout);
 154              		.loc 1 151 5 discriminator 1 view .LVU34
 155 001b E9000000 		jmp	fflush
 155      00
 156              	.LVL17:
 157              		.cfi_endproc
 158              	.LFE6954:
 159              		.seh_endproc
 160              		.section .rdata,"dr"
 161              	.LC1:
 162 0000 53474C20 		.ascii "SGL SDL2 Frame = %lld\12\0"
 162      53444C32 
 162      20467261 
 162      6D65203D 
 162      20256C6C 
 163 0017 00       		.align 8
 164              	.LC2:
 165 0018 4D656D6F 		.ascii "Memory: total: %lld used: %lld, free = %lld\12\0"
 165      72793A20 
 165      746F7461 
 165      6C3A2025 
 165      6C6C6420 
 166              		.section	.text$system_tick,"x"
 167              		.p2align 4
 169              		.seh_proc	system_tick
 170              	system_tick:
 171              	.LVL18:
 172              	.LFB6950:
  99:sgl_port_sdl2.c ****     sgl_mm_monitor_t mm = sgl_mm_get_monitor();
 173              		.loc 1 99 1 is_stmt 1 view -0
 174              		.cfi_startproc
GAS LISTING C:\Users\lsw\AppData\Local\Temp\ccSZcLze.s 			page 28


  99:sgl_port_sdl2.c ****     sgl_mm_monitor_t mm = sgl_mm_get_monitor();
 175              		.loc 1 99 1 is_stmt 0 view .LVU36
 176 0000 56       		pushq	%rsi
 177              		.seh_pushreg	%rsi
 178              		.cfi_def_cfa_offset 16
 179              		.cfi_offset 4, -16
 180 0001 53       		pushq	%rbx
 181              		.seh_pushreg	%rbx
 182              		.cfi_def_cfa_offset 24
 183              		.cfi_offset 3, -24
 184 0002 4883EC48 		subq	$72, %rsp
 185              		.seh_stackalloc	72
 186              		.cfi_def_cfa_offset 96
 187              		.seh_endprologue
 100:sgl_port_sdl2.c ****     sgl_port_sdl2_t *sdl2_dev = (sgl_port_sdl2_t*)param;
 188              		.loc 1 100 5 is_stmt 1 view .LVU37
  99:sgl_port_sdl2.c ****     sgl_mm_monitor_t mm = sgl_mm_get_monitor();
 189              		.loc 1 99 1 is_stmt 0 view .LVU38
 190 0006 4889D3   		movq	%rdx, %rbx
 191 0009 89CE     		movl	%ecx, %esi
 100:sgl_port_sdl2.c ****     sgl_port_sdl2_t *sdl2_dev = (sgl_port_sdl2_t*)param;
 192              		.loc 1 100 27 view .LVU39
 193 000b 488D4C24 		leaq	32(%rsp), %rcx
 193      20
 194              	.LVL19:
 100:sgl_port_sdl2.c ****     sgl_port_sdl2_t *sdl2_dev = (sgl_port_sdl2_t*)param;
 195              		.loc 1 100 27 view .LVU40
 196 0010 E8000000 		call	sgl_mm_get_monitor
 196      00
 197              	.LVL20:
 101:sgl_port_sdl2.c ****     SGL_UNUSED(mm);
 198              		.loc 1 101 5 is_stmt 1 view .LVU41
 102:sgl_port_sdl2.c ****     printf("SGL SDL2 Frame = %lld\n", sdl2_dev->frame_count);
 199              		.loc 1 102 5 view .LVU42
 103:sgl_port_sdl2.c ****     printf("Memory: total: %lld used: %lld, free = %lld\n", mm.total_size, mm.used_size, mm.free_si
 200              		.loc 1 103 5 view .LVU43
 201 0015 488B5310 		movq	16(%rbx), %rdx
 202 0019 488D0D00 		leaq	.LC1(%rip), %rcx
 202      000000
 203 0020 E8000000 		call	printf
 203      00
 204              	.LVL21:
 104:sgl_port_sdl2.c ****     sdl2_dev->frame_count = 0;
 205              		.loc 1 104 5 view .LVU44
 206 0025 4C8B4C24 		movq	40(%rsp), %r9
 206      28
 207 002a 488D0D18 		leaq	.LC2(%rip), %rcx
 207      000000
 208 0031 4C8B4424 		movq	48(%rsp), %r8
 208      30
 209 0036 488B5424 		movq	32(%rsp), %rdx
 209      20
 210 003b E8000000 		call	printf
 210      00
 211              	.LVL22:
 105:sgl_port_sdl2.c **** 	return interval;
 212              		.loc 1 105 5 view .LVU45
GAS LISTING C:\Users\lsw\AppData\Local\Temp\ccSZcLze.s 			page 29


 107:sgl_port_sdl2.c **** 
 213              		.loc 1 107 1 is_stmt 0 view .LVU46
 214 0040 89F0     		movl	%esi, %eax
 105:sgl_port_sdl2.c **** 	return interval;
 215              		.loc 1 105 27 view .LVU47
 216 0042 48C74310 		movq	$0, 16(%rbx)
 216      00000000 
 106:sgl_port_sdl2.c **** }
 217              		.loc 1 106 2 is_stmt 1 view .LVU48
 107:sgl_port_sdl2.c **** 
 218              		.loc 1 107 1 is_stmt 0 view .LVU49
 219 004a 4883C448 		addq	$72, %rsp
 220              		.cfi_def_cfa_offset 24
 221 004e 5B       		popq	%rbx
 222              		.cfi_restore 3
 223              		.cfi_def_cfa_offset 16
 224              	.LVL23:
 107:sgl_port_sdl2.c **** 
 225              		.loc 1 107 1 view .LVU50
 226 004f 5E       		popq	%rsi
 227              		.cfi_restore 4
 228              		.cfi_def_cfa_offset 8
 229              	.LVL24:
 107:sgl_port_sdl2.c **** 
 230              		.loc 1 107 1 view .LVU51
 231 0050 C3       		ret
 232              		.cfi_endproc
 233              	.LFE6950:
 234              		.seh_endproc
 235 0051 90909090 		.section	.text$panel_flush_area,"x"
 235      90909090 
 235      90909090 
 235      909090
 236              		.p2align 4
 238              		.seh_proc	panel_flush_area
 239              	panel_flush_area:
 240              	.LVL25:
 241              	.LFB6953:
 124:sgl_port_sdl2.c ****     int x = area->x1;
 242              		.loc 1 124 1 is_stmt 1 view -0
 243              		.cfi_startproc
 124:sgl_port_sdl2.c ****     int x = area->x1;
 244              		.loc 1 124 1 is_stmt 0 view .LVU53
 245 0000 4154     		pushq	%r12
 246              		.seh_pushreg	%r12
 247              		.cfi_def_cfa_offset 16
 248              		.cfi_offset 12, -16
 249 0002 55       		pushq	%rbp
 250              		.seh_pushreg	%rbp
 251              		.cfi_def_cfa_offset 24
 252              		.cfi_offset 6, -24
 253 0003 57       		pushq	%rdi
 254              		.seh_pushreg	%rdi
 255              		.cfi_def_cfa_offset 32
 256              		.cfi_offset 5, -32
 257 0004 56       		pushq	%rsi
 258              		.seh_pushreg	%rsi
GAS LISTING C:\Users\lsw\AppData\Local\Temp\ccSZcLze.s 			page 30


 259              		.cfi_def_cfa_offset 40
 260              		.cfi_offset 4, -40
 261 0005 53       		pushq	%rbx
 262              		.seh_pushreg	%rbx
 263              		.cfi_def_cfa_offset 48
 264              		.cfi_offset 3, -48
 265 0006 4883EC20 		subq	$32, %rsp
 266              		.seh_stackalloc	32
 267              		.cfi_def_cfa_offset 80
 268              		.seh_endprologue
 125:sgl_port_sdl2.c ****     int y = area->y1;
 269              		.loc 1 125 5 is_stmt 1 view .LVU54
 125:sgl_port_sdl2.c ****     int y = area->y1;
 270              		.loc 1 125 9 is_stmt 0 view .LVU55
 271 000a 440FBF01 		movswl	(%rcx), %r8d
 272              	.LVL26:
 126:sgl_port_sdl2.c ****     int w = area->x2 - x + 1;
 273              		.loc 1 126 5 is_stmt 1 view .LVU56
 127:sgl_port_sdl2.c ****     int h = area->y2 - y + 1;
 274              		.loc 1 127 17 is_stmt 0 view .LVU57
 275 000e 0FBF6904 		movswl	4(%rcx), %ebp
 128:sgl_port_sdl2.c **** 
 276              		.loc 1 128 17 view .LVU58
 277 0012 440FBF61 		movswl	6(%rcx), %r12d
 277      06
 124:sgl_port_sdl2.c ****     int x = area->x1;
 278              		.loc 1 124 1 view .LVU59
 279 0017 4889D3   		movq	%rdx, %rbx
 126:sgl_port_sdl2.c ****     int w = area->x2 - x + 1;
 280              		.loc 1 126 9 view .LVU60
 281 001a 0FBF5102 		movswl	2(%rcx), %edx
 282              	.LVL27:
 127:sgl_port_sdl2.c ****     int h = area->y2 - y + 1;
 283              		.loc 1 127 5 is_stmt 1 view .LVU61
 131:sgl_port_sdl2.c **** 
 284              		.loc 1 131 10 is_stmt 0 view .LVU62
 285 001e 488D0D00 		leaq	sdl2_frame_buffer(%rip), %rcx
 285      000000
 286              	.LVL28:
 127:sgl_port_sdl2.c ****     int h = area->y2 - y + 1;
 287              		.loc 1 127 22 view .LVU63
 288 0025 4429C5   		subl	%r8d, %ebp
 127:sgl_port_sdl2.c ****     int h = area->y2 - y + 1;
 289              		.loc 1 127 9 view .LVU64
 290 0028 83C501   		addl	$1, %ebp
 291              	.LVL29:
 128:sgl_port_sdl2.c **** 
 292              		.loc 1 128 5 is_stmt 1 view .LVU65
 130:sgl_port_sdl2.c ****     dest += (x + y * CONFIG_SGL_PANEL_WIDTH);
 293              		.loc 1 130 5 view .LVU66
 131:sgl_port_sdl2.c **** 
 294              		.loc 1 131 5 view .LVU67
 131:sgl_port_sdl2.c **** 
 295              		.loc 1 131 20 is_stmt 0 view .LVU68
 296 002b 69C2F000 		imull	$240, %edx, %eax
 296      0000
 131:sgl_port_sdl2.c **** 
GAS LISTING C:\Users\lsw\AppData\Local\Temp\ccSZcLze.s 			page 31


 297              		.loc 1 131 16 view .LVU69
 298 0031 4401C0   		addl	%r8d, %eax
 299              	.LBB13:
 133:sgl_port_sdl2.c ****         memcpy(dest, src, w * sizeof(sgl_color_t));
 300              		.loc 1 133 22 discriminator 1 view .LVU70
 301 0034 4129D4   		subl	%edx, %r12d
 302              	.LVL30:
 133:sgl_port_sdl2.c ****         memcpy(dest, src, w * sizeof(sgl_color_t));
 303              		.loc 1 133 22 discriminator 1 view .LVU71
 304              	.LBE13:
 131:sgl_port_sdl2.c **** 
 305              		.loc 1 131 16 view .LVU72
 306 0037 4898     		cltq
 131:sgl_port_sdl2.c **** 
 307              		.loc 1 131 10 view .LVU73
 308 0039 488D3441 		leaq	(%rcx,%rax,2), %rsi
 309              	.LVL31:
 133:sgl_port_sdl2.c ****         memcpy(dest, src, w * sizeof(sgl_color_t));
 310              		.loc 1 133 5 is_stmt 1 view .LVU74
 311              	.LBB14:
 133:sgl_port_sdl2.c ****         memcpy(dest, src, w * sizeof(sgl_color_t));
 312              		.loc 1 133 9 view .LVU75
 133:sgl_port_sdl2.c ****         memcpy(dest, src, w * sizeof(sgl_color_t));
 313              		.loc 1 133 22 discriminator 1 view .LVU76
 314 003d 7831     		js	.L7
 134:sgl_port_sdl2.c ****         dest += CONFIG_SGL_PANEL_WIDTH;
 315              		.loc 1 134 9 is_stmt 0 view .LVU77
 316 003f 4863ED   		movslq	%ebp, %rbp
 133:sgl_port_sdl2.c ****         memcpy(dest, src, w * sizeof(sgl_color_t));
 317              		.loc 1 133 13 view .LVU78
 318 0042 31FF     		xorl	%edi, %edi
 134:sgl_port_sdl2.c ****         dest += CONFIG_SGL_PANEL_WIDTH;
 319              		.loc 1 134 9 view .LVU79
 320 0044 4801ED   		addq	%rbp, %rbp
 321              	.LVL32:
 322 0047 660F1F84 		.p2align 4,,10
 322      00000000 
 322      00
 323              		.p2align 3
 324              	.L8:
 134:sgl_port_sdl2.c ****         dest += CONFIG_SGL_PANEL_WIDTH;
 325              		.loc 1 134 9 is_stmt 1 view .LVU80
 326 0050 4889DA   		movq	%rbx, %rdx
 327 0053 4889F1   		movq	%rsi, %rcx
 328 0056 4989E8   		movq	%rbp, %r8
 133:sgl_port_sdl2.c ****         memcpy(dest, src, w * sizeof(sgl_color_t));
 329              		.loc 1 133 29 is_stmt 0 discriminator 3 view .LVU81
 330 0059 83C701   		addl	$1, %edi
 331              	.LVL33:
 135:sgl_port_sdl2.c ****         src += w;
 332              		.loc 1 135 14 view .LVU82
 333 005c 4881C6E0 		addq	$480, %rsi
 333      010000
 334              	.LVL34:
 136:sgl_port_sdl2.c ****     }
 335              		.loc 1 136 13 view .LVU83
 336 0063 4801EB   		addq	%rbp, %rbx
GAS LISTING C:\Users\lsw\AppData\Local\Temp\ccSZcLze.s 			page 32


 337              	.LVL35:
 134:sgl_port_sdl2.c ****         dest += CONFIG_SGL_PANEL_WIDTH;
 338              		.loc 1 134 9 view .LVU84
 339 0066 E8000000 		call	memcpy
 339      00
 340              	.LVL36:
 135:sgl_port_sdl2.c ****         src += w;
 341              		.loc 1 135 9 is_stmt 1 view .LVU85
 136:sgl_port_sdl2.c ****     }
 342              		.loc 1 136 9 view .LVU86
 133:sgl_port_sdl2.c ****         memcpy(dest, src, w * sizeof(sgl_color_t));
 343              		.loc 1 133 29 discriminator 3 view .LVU87
 133:sgl_port_sdl2.c ****         memcpy(dest, src, w * sizeof(sgl_color_t));
 344              		.loc 1 133 22 discriminator 1 view .LVU88
 345 006b 4139FC   		cmpl	%edi, %r12d
 346 006e 7DE0     		jge	.L8
 347              	.LVL37:
 348              	.L7:
 133:sgl_port_sdl2.c ****         memcpy(dest, src, w * sizeof(sgl_color_t));
 349              		.loc 1 133 22 is_stmt 0 discriminator 1 view .LVU89
 350              	.LBE14:
 139:sgl_port_sdl2.c ****     sgl_fbdev_flush_ready();
 351              		.loc 1 139 5 is_stmt 1 view .LVU90
 352 0070 488B0D00 		movq	m_renderer(%rip), %rcx
 352      000000
 353 0077 E8000000 		call	flush_window
 353      00
 354              	.LVL38:
 140:sgl_port_sdl2.c **** }
 355              		.loc 1 140 5 view .LVU91
 356              	.LBB15:
 357              	.LBI15:
 973:../source/sgl_core.h **** {
 358              		.loc 2 973 20 view .LVU92
 359              	.LBB16:
 975:../source/sgl_core.h **** 
 360              		.loc 2 975 5 view .LVU93
 975:../source/sgl_core.h **** 
 361              		.loc 2 975 21 is_stmt 0 view .LVU94
 362 007c 488B0500 		movq	.refptr.sgl_system(%rip), %rax
 362      000000
 975:../source/sgl_core.h **** 
 363              		.loc 2 975 38 view .LVU95
 364 0083 41B80100 		movl	$1, %r8d
 364      0000
 975:../source/sgl_core.h **** 
 365              		.loc 2 975 57 view .LVU96
 366 0089 0FB64850 		movzbl	80(%rax), %ecx
 975:../source/sgl_core.h **** 
 367              		.loc 2 975 21 view .LVU97
 368 008d 0FB65051 		movzbl	81(%rax), %edx
 975:../source/sgl_core.h **** 
 369              		.loc 2 975 38 view .LVU98
 370 0091 41D3E0   		sall	%cl, %r8d
 975:../source/sgl_core.h **** 
 371              		.loc 2 975 32 view .LVU99
 372 0094 4409C2   		orl	%r8d, %edx
GAS LISTING C:\Users\lsw\AppData\Local\Temp\ccSZcLze.s 			page 33


 978:../source/sgl_core.h ****         sgl_system.fbdev.surf.buffer = (sgl_color_t *)sgl_system.fbdev.fbinfo.buffer[sgl_system.fbd
 373              		.loc 2 978 8 view .LVU100
 374 0097 48837810 		cmpq	$0, 16(%rax)
 374      00
 975:../source/sgl_core.h **** 
 375              		.loc 2 975 32 view .LVU101
 376 009c 885051   		movb	%dl, 81(%rax)
 978:../source/sgl_core.h ****         sgl_system.fbdev.surf.buffer = (sgl_color_t *)sgl_system.fbdev.fbinfo.buffer[sgl_system.fbd
 377              		.loc 2 978 5 is_stmt 1 view .LVU102
 978:../source/sgl_core.h ****         sgl_system.fbdev.surf.buffer = (sgl_color_t *)sgl_system.fbdev.fbinfo.buffer[sgl_system.fbd
 378              		.loc 2 978 8 is_stmt 0 view .LVU103
 379 009f 7412     		je	.L6
 979:../source/sgl_core.h ****     }
 380              		.loc 2 979 9 is_stmt 1 view .LVU104
 979:../source/sgl_core.h ****     }
 381              		.loc 2 979 111 is_stmt 0 view .LVU105
 382 00a1 83F101   		xorl	$1, %ecx
 383 00a4 884850   		movb	%cl, 80(%rax)
 979:../source/sgl_core.h ****     }
 384              		.loc 2 979 85 view .LVU106
 385 00a7 0FB6C9   		movzbl	%cl, %ecx
 979:../source/sgl_core.h ****     }
 386              		.loc 2 979 38 view .LVU107
 387 00aa 488B54C8 		movq	8(%rax,%rcx,8), %rdx
 387      08
 388 00af 48895030 		movq	%rdx, 48(%rax)
 389              	.L6:
 390              	.LBE16:
 391              	.LBE15:
 141:sgl_port_sdl2.c **** 
 392              		.loc 1 141 1 view .LVU108
 393 00b3 4883C420 		addq	$32, %rsp
 394              		.cfi_def_cfa_offset 48
 395 00b7 5B       		popq	%rbx
 396              		.cfi_restore 3
 397              		.cfi_def_cfa_offset 40
 398              	.LVL39:
 141:sgl_port_sdl2.c **** 
 399              		.loc 1 141 1 view .LVU109
 400 00b8 5E       		popq	%rsi
 401              		.cfi_restore 4
 402              		.cfi_def_cfa_offset 32
 403              	.LVL40:
 141:sgl_port_sdl2.c **** 
 404              		.loc 1 141 1 view .LVU110
 405 00b9 5F       		popq	%rdi
 406              		.cfi_restore 5
 407              		.cfi_def_cfa_offset 24
 408 00ba 5D       		popq	%rbp
 409              		.cfi_restore 6
 410              		.cfi_def_cfa_offset 16
 411 00bb 415C     		popq	%r12
 412              		.cfi_restore 12
 413              		.cfi_def_cfa_offset 8
 414              	.LVL41:
 141:sgl_port_sdl2.c **** 
 415              		.loc 1 141 1 view .LVU111
GAS LISTING C:\Users\lsw\AppData\Local\Temp\ccSZcLze.s 			page 34


 416 00bd C3       		ret
 417              		.cfi_endproc
 418              	.LFE6953:
 419              		.seh_endproc
 420 00be 9090     		.section	.text$test_flush,"x"
 421              		.p2align 4
 422              		.globl	test_flush
 424              		.seh_proc	test_flush
 425              	test_flush:
 426              	.LFB6952:
 119:sgl_port_sdl2.c ****     flush_window(m_renderer);
 427              		.loc 1 119 1 is_stmt 1 view -0
 428              		.cfi_startproc
 429              		.seh_endprologue
 120:sgl_port_sdl2.c **** }
 430              		.loc 1 120 5 view .LVU113
 431 0000 488B0D00 		movq	m_renderer(%rip), %rcx
 431      000000
 121:sgl_port_sdl2.c **** 
 432              		.loc 1 121 1 is_stmt 0 view .LVU114
 120:sgl_port_sdl2.c **** }
 433              		.loc 1 120 5 view .LVU115
 434 0007 E9000000 		jmp	flush_window
 434      00
 435              	.LVL42:
 436              		.cfi_endproc
 437              	.LFE6952:
 438              		.seh_endproc
 439 000c 90909090 		.section .rdata,"dr"
 440 0045 000000   		.align 8
 441              	.LC3:
 442 0048 53474C20 		.ascii "SGL SDL2 device alloc initialize failed\0"
 442      53444C32 
 442      20646576 
 442      69636520 
 442      616C6C6F 
 443              	.LC4:
 444 0070 5B455252 		.ascii "[ERROR] \0"
 444      4F525D20 
 444      00
 445              	.LC5:
 446 0079 53474C20 		.ascii "SGL SDL2 initialize failed\0"
 446      53444C32 
 446      20696E69 
 446      7469616C 
 446      697A6520 
 447              	.LC6:
 448 0094 53474C20 		.ascii "SGL SDL2 create window failed\0"
 448      53444C32 
 448      20637265 
 448      61746520 
 448      77696E64 
 449              	.LC7:
 450 00b2 53474C20 		.ascii "SGL SDL2 demo\0"
 450      53444C32 
 450      2064656D 
 450      6F00
GAS LISTING C:\Users\lsw\AppData\Local\Temp\ccSZcLze.s 			page 35


 451              	.LC8:
 452 00c0 726200   		.ascii "rb\0"
 453              	.LC9:
 454 00c3 73676C5F 		.ascii "sgl_log.bmp\0"
 454      6C6F672E 
 454      626D7000 
 455 00cf 00       		.data
 456              		.align 2
 457              	.LC0:
 458 0000 FF       		.byte	255
 459 0001 FF       		.byte	255
 460 0002 00000000 		.section	.text$sgl_port_sdl2_init,"x"
 460      00000000 
 460      00000000 
 460      0000
 461              		.p2align 4
 462              		.globl	sgl_port_sdl2_init
 464              		.seh_proc	sgl_port_sdl2_init
 465              	sgl_port_sdl2_init:
 466              	.LFB6955:
 153:sgl_port_sdl2.c **** 
 154:sgl_port_sdl2.c **** 
 155:sgl_port_sdl2.c **** sgl_port_sdl2_t* sgl_port_sdl2_init(void)
 156:sgl_port_sdl2.c **** {
 467              		.loc 1 156 1 is_stmt 1 view -0
 468              		.cfi_startproc
 469 0000 56       		pushq	%rsi
 470              		.seh_pushreg	%rsi
 471              		.cfi_def_cfa_offset 16
 472              		.cfi_offset 4, -16
 473 0001 53       		pushq	%rbx
 474              		.seh_pushreg	%rbx
 475              		.cfi_def_cfa_offset 24
 476              		.cfi_offset 3, -24
 477 0002 4883EC58 		subq	$88, %rsp
 478              		.seh_stackalloc	88
 479              		.cfi_def_cfa_offset 112
 480              		.seh_endprologue
 157:sgl_port_sdl2.c ****     sgl_port_sdl2_t *sdl2_dev = NULL;
 481              		.loc 1 157 5 view .LVU117
 482              	.LVL43:
 158:sgl_port_sdl2.c **** 
 159:sgl_port_sdl2.c ****     sgl_fbinfo_t fb_dev = {
 483              		.loc 1 159 5 view .LVU118
 484              		.loc 1 159 18 is_stmt 0 view .LVU119
 485 0006 488D0500 		leaq	panel_buffer1(%rip), %rax
 485      000000
 486 000d 488D3500 		leaq	panel_buffer0(%rip), %rsi
 486      000000
 487 0014 66480F6E 		movq	%rax, %xmm1
 487      C8
 488 0019 48B8C003 		movabsq	$79939924177978304, %rax
 488      0000F000 
 488      1C01
 489 0023 66480F6E 		movq	%rsi, %xmm0
 489      C6
 490              	.LBB25:
GAS LISTING C:\Users\lsw\AppData\Local\Temp\ccSZcLze.s 			page 36


 491              	.LBB26:
1124:../source/sgl_core.h **** }
 492              		.loc 2 1124 23 view .LVU120
 493 0028 488D3500 		leaq	log_stdout(%rip), %rsi
 493      000000
 494              	.LBE26:
 495              	.LBE25:
 496              		.loc 1 159 18 view .LVU121
 497 002f 660F6CC1 		punpcklqdq	%xmm1, %xmm0
 498 0033 48894424 		movq	%rax, 64(%rsp)
 498      40
 499 0038 488D0500 		leaq	panel_flush_area(%rip), %rax
 499      000000
 500 003f 48894424 		movq	%rax, 72(%rsp)
 500      48
 160:sgl_port_sdl2.c ****         .xres = CONFIG_SGL_PANEL_WIDTH,
 161:sgl_port_sdl2.c ****         .yres = CONFIG_SGL_PANEL_HEIGHT,
 162:sgl_port_sdl2.c ****         .flush_area = panel_flush_area,
 163:sgl_port_sdl2.c ****         .buffer[0] = panel_buffer0,
 164:sgl_port_sdl2.c ****         .buffer[1] = panel_buffer1,
 165:sgl_port_sdl2.c ****         .buffer_size = SGL_ARRAY_SIZE(panel_buffer0),
 166:sgl_port_sdl2.c ****     };
 167:sgl_port_sdl2.c **** 
 168:sgl_port_sdl2.c ****     sgl_logdev_register(log_stdout);
 501              		.loc 1 168 5 is_stmt 1 view .LVU122
 502              	.LVL44:
 503              	.LBB29:
 504              	.LBI25:
1122:../source/sgl_core.h **** {
 505              		.loc 2 1122 20 view .LVU123
 506              	.LBB27:
1124:../source/sgl_core.h **** }
 507              		.loc 2 1124 5 view .LVU124
1124:../source/sgl_core.h **** }
 508              		.loc 2 1124 23 is_stmt 0 view .LVU125
 509 0044 488B0500 		movq	.refptr.sgl_system(%rip), %rax
 509      000000
 510              	.LBE27:
 511              	.LBE29:
 169:sgl_port_sdl2.c ****     sgl_fbdev_register(&fb_dev);
 512              		.loc 1 169 5 view .LVU126
 513 004b 488D4C24 		leaq	48(%rsp), %rcx
 513      30
 159:sgl_port_sdl2.c ****         .xres = CONFIG_SGL_PANEL_WIDTH,
 514              		.loc 1 159 18 view .LVU127
 515 0050 0F294424 		movaps	%xmm0, 48(%rsp)
 515      30
 516              	.LBB30:
 517              	.LBB28:
1124:../source/sgl_core.h **** }
 518              		.loc 2 1124 23 view .LVU128
 519 0055 488930   		movq	%rsi, (%rax)
 520              	.LVL45:
1124:../source/sgl_core.h **** }
 521              		.loc 2 1124 23 view .LVU129
 522              	.LBE28:
 523              	.LBE30:
GAS LISTING C:\Users\lsw\AppData\Local\Temp\ccSZcLze.s 			page 37


 524              		.loc 1 169 5 is_stmt 1 view .LVU130
 525 0058 E8000000 		call	sgl_fbdev_register
 525      00
 526              	.LVL46:
 170:sgl_port_sdl2.c **** 
 171:sgl_port_sdl2.c ****     /* init sgl */
 172:sgl_port_sdl2.c ****     sgl_init();
 527              		.loc 1 172 5 view .LVU131
 528 005d E8000000 		call	sgl_init
 528      00
 529              	.LVL47:
 173:sgl_port_sdl2.c **** 
 174:sgl_port_sdl2.c ****     sdl2_dev = sgl_malloc(sizeof(sgl_port_sdl2_t));
 530              		.loc 1 174 5 view .LVU132
 531              		.loc 1 174 16 is_stmt 0 view .LVU133
 532 0062 B9180000 		movl	$24, %ecx
 532      00
 533 0067 E8000000 		call	sgl_malloc
 533      00
 534              	.LVL48:
 175:sgl_port_sdl2.c ****     if(sdl2_dev == NULL) {
 535              		.loc 1 175 7 view .LVU134
 536 006c 4885C0   		testq	%rax, %rax
 174:sgl_port_sdl2.c ****     if(sdl2_dev == NULL) {
 537              		.loc 1 174 16 view .LVU135
 538 006f 4889C3   		movq	%rax, %rbx
 539              	.LVL49:
 540              		.loc 1 175 5 is_stmt 1 view .LVU136
 541              		.loc 1 175 7 is_stmt 0 view .LVU137
 542 0072 0F845E01 		je	.L25
 542      0000
 176:sgl_port_sdl2.c ****         SGL_LOG_ERROR("SGL SDL2 device alloc initialize failed");
 177:sgl_port_sdl2.c ****         return NULL;
 178:sgl_port_sdl2.c ****     }
 179:sgl_port_sdl2.c **** 
 180:sgl_port_sdl2.c ****     if ( SDL_Init(SDL_INIT_VIDEO | SDL_INIT_TIMER) != 0 ) {
 543              		.loc 1 180 5 is_stmt 1 view .LVU138
 544              		.loc 1 180 10 is_stmt 0 view .LVU139
 545 0078 B9210000 		movl	$33, %ecx
 545      00
 546 007d E8000000 		call	SDL_Init
 546      00
 547              	.LVL50:
 548              		.loc 1 180 8 discriminator 1 view .LVU140
 549 0082 85C0     		testl	%eax, %eax
 550 0084 0F850601 		jne	.L26
 550      0000
 181:sgl_port_sdl2.c ****         SGL_LOG_ERROR("SGL SDL2 initialize failed");
 182:sgl_port_sdl2.c ****         sgl_free(sdl2_dev);
 183:sgl_port_sdl2.c ****         return NULL;
 184:sgl_port_sdl2.c ****     }
 185:sgl_port_sdl2.c **** 
 186:sgl_port_sdl2.c ****     if(sdl_create_windows(&sdl2_dev->m_window, &m_renderer, "SGL SDL2 demo") < 0) {
 551              		.loc 1 186 5 is_stmt 1 view .LVU141
 552              	.LVL51:
 553              	.LBB31:
 554              	.LBI31:
GAS LISTING C:\Users\lsw\AppData\Local\Temp\ccSZcLze.s 			page 38


  62:sgl_port_sdl2.c **** {
 555              		.loc 1 62 12 view .LVU142
 556              	.LBB32:
  64:sgl_port_sdl2.c ****                                       &(*m_window), &(*m_renderer )) != 0 ) {
 557              		.loc 1 64 5 view .LVU143
  64:sgl_port_sdl2.c ****                                       &(*m_window), &(*m_renderer )) != 0 ) {
 558              		.loc 1 64 10 is_stmt 0 view .LVU144
 559 008a 488D0500 		leaq	m_renderer(%rip), %rax
 559      000000
 560 0091 4989D9   		movq	%rbx, %r9
 561 0094 41B80400 		movl	$4, %r8d
 561      0000
 562 009a 48894424 		movq	%rax, 32(%rsp)
 562      20
 563 009f BA1C0100 		movl	$284, %edx
 563      00
 564 00a4 B9F00000 		movl	$240, %ecx
 564      00
 565 00a9 E8000000 		call	SDL_CreateWindowAndRenderer
 565      00
 566              	.LVL52:
  64:sgl_port_sdl2.c ****                                       &(*m_window), &(*m_renderer )) != 0 ) {
 567              		.loc 1 64 8 discriminator 1 view .LVU145
 568 00ae 85C0     		testl	%eax, %eax
 569 00b0 0F850101 		jne	.L27
 569      0000
  69:sgl_port_sdl2.c **** 
 570              		.loc 1 69 5 is_stmt 1 view .LVU146
 571 00b6 488B0B   		movq	(%rbx), %rcx
 572 00b9 488D15B2 		leaq	.LC7(%rip), %rdx
 572      000000
 573 00c0 E8000000 		call	SDL_SetWindowTitle
 573      00
 574              	.LVL53:
  71:sgl_port_sdl2.c ****     if (icon) {
 575              		.loc 1 71 5 view .LVU147
  71:sgl_port_sdl2.c ****     if (icon) {
 576              		.loc 1 71 25 is_stmt 0 view .LVU148
 577 00c5 488D15C0 		leaq	.LC8(%rip), %rdx
 577      000000
 578 00cc 488D0DC3 		leaq	.LC9(%rip), %rcx
 578      000000
 579 00d3 E8000000 		call	SDL_RWFromFile
 579      00
 580              	.LVL54:
  71:sgl_port_sdl2.c ****     if (icon) {
 581              		.loc 1 71 25 discriminator 1 view .LVU149
 582 00d8 BA010000 		movl	$1, %edx
 582      00
  71:sgl_port_sdl2.c ****     if (icon) {
 583              		.loc 1 71 25 view .LVU150
 584 00dd 4889C1   		movq	%rax, %rcx
  71:sgl_port_sdl2.c ****     if (icon) {
 585              		.loc 1 71 25 discriminator 1 view .LVU151
 586 00e0 E8000000 		call	SDL_LoadBMP_RW
 586      00
 587              	.LVL55:
GAS LISTING C:\Users\lsw\AppData\Local\Temp\ccSZcLze.s 			page 39


  72:sgl_port_sdl2.c ****         SDL_SetWindowIcon(*m_window, icon);
 588              		.loc 1 72 8 view .LVU152
 589 00e5 4885C0   		testq	%rax, %rax
  71:sgl_port_sdl2.c ****     if (icon) {
 590              		.loc 1 71 25 discriminator 1 view .LVU153
 591 00e8 4889C6   		movq	%rax, %rsi
 592              	.LVL56:
  72:sgl_port_sdl2.c ****         SDL_SetWindowIcon(*m_window, icon);
 593              		.loc 1 72 5 is_stmt 1 view .LVU154
  72:sgl_port_sdl2.c ****         SDL_SetWindowIcon(*m_window, icon);
 594              		.loc 1 72 8 is_stmt 0 view .LVU155
 595 00eb 7413     		je	.L18
  73:sgl_port_sdl2.c ****         SDL_FreeSurface(icon);
 596              		.loc 1 73 9 is_stmt 1 view .LVU156
 597 00ed 488B0B   		movq	(%rbx), %rcx
 598 00f0 4889C2   		movq	%rax, %rdx
 599 00f3 E8000000 		call	SDL_SetWindowIcon
 599      00
 600              	.LVL57:
  74:sgl_port_sdl2.c ****     }
 601              		.loc 1 74 9 view .LVU157
 602 00f8 4889F1   		movq	%rsi, %rcx
 603 00fb E8000000 		call	SDL_FreeSurface
 603      00
 604              	.LVL58:
 605              	.LBB33:
  78:sgl_port_sdl2.c ****         sdl2_frame_buffer[i] = SGL_COLOR_WHITE;
 606              		.loc 1 78 21 discriminator 1 view .LVU158
 607              	.L18:
  78:sgl_port_sdl2.c ****         sdl2_frame_buffer[i] = SGL_COLOR_WHITE;
 608              		.loc 1 78 21 is_stmt 0 discriminator 1 view .LVU159
 609 0100 0FB70D00 		movzwl	.LC0(%rip), %ecx
 609      000000
 610 0107 488D1500 		leaq	sdl2_frame_buffer(%rip), %rdx
 610      000000
 611 010e 4C8D8280 		leaq	136320(%rdx), %r8
 611      140200
 612              		.p2align 4,,10
 613 0115 0F1F00   		.p2align 3
 614              	.L19:
 615              	.LVL59:
 616              	.LBB34:
  79:sgl_port_sdl2.c ****     }
 617              		.loc 1 79 9 is_stmt 1 view .LVU160
  79:sgl_port_sdl2.c ****     }
 618              		.loc 1 79 30 is_stmt 0 view .LVU161
 619 0118 66890A   		movw	%cx, (%rdx)
 620              	.LBE34:
  78:sgl_port_sdl2.c ****         sdl2_frame_buffer[i] = SGL_COLOR_WHITE;
 621              		.loc 1 78 74 is_stmt 1 discriminator 3 view .LVU162
 622              	.LVL60:
  78:sgl_port_sdl2.c ****         sdl2_frame_buffer[i] = SGL_COLOR_WHITE;
 623              		.loc 1 78 21 discriminator 1 view .LVU163
 624              	.LBB35:
  79:sgl_port_sdl2.c ****     }
 625              		.loc 1 79 9 view .LVU164
 626              	.LBE35:
GAS LISTING C:\Users\lsw\AppData\Local\Temp\ccSZcLze.s 			page 40


  78:sgl_port_sdl2.c ****         sdl2_frame_buffer[i] = SGL_COLOR_WHITE;
 627              		.loc 1 78 21 is_stmt 0 discriminator 1 view .LVU165
 628 011b 4883C204 		addq	$4, %rdx
 629              	.LVL61:
 630              	.LBB36:
  79:sgl_port_sdl2.c ****     }
 631              		.loc 1 79 30 view .LVU166
 632 011f 66894AFE 		movw	%cx, -2(%rdx)
 633              	.LBE36:
  78:sgl_port_sdl2.c ****         sdl2_frame_buffer[i] = SGL_COLOR_WHITE;
 634              		.loc 1 78 74 is_stmt 1 discriminator 3 view .LVU167
 635              	.LVL62:
  78:sgl_port_sdl2.c ****         sdl2_frame_buffer[i] = SGL_COLOR_WHITE;
 636              		.loc 1 78 21 discriminator 1 view .LVU168
 637 0123 4C39C2   		cmpq	%r8, %rdx
 638 0126 75F0     		jne	.L19
 639              	.LBE33:
  82:sgl_port_sdl2.c ****     SDL_RenderClear( *m_renderer );
 640              		.loc 1 82 5 view .LVU169
 641 0128 488B0D00 		movq	m_renderer(%rip), %rcx
 641      000000
 642 012f 4531C9   		xorl	%r9d, %r9d
 643 0132 4531C0   		xorl	%r8d, %r8d
 644 0135 31D2     		xorl	%edx, %edx
 645              	.LVL63:
  82:sgl_port_sdl2.c ****     SDL_RenderClear( *m_renderer );
 646              		.loc 1 82 5 is_stmt 0 view .LVU170
 647 0137 C7442420 		movl	$255, 32(%rsp)
 647      FF000000 
 648 013f E8000000 		call	SDL_SetRenderDrawColor
 648      00
 649              	.LVL64:
  83:sgl_port_sdl2.c ****     return 0;
 650              		.loc 1 83 5 is_stmt 1 view .LVU171
 651 0144 488B0D00 		movq	m_renderer(%rip), %rcx
 651      000000
 652 014b E8000000 		call	SDL_RenderClear
 652      00
 653              	.LVL65:
  84:sgl_port_sdl2.c **** }
 654              		.loc 1 84 5 view .LVU172
  84:sgl_port_sdl2.c **** }
 655              		.loc 1 84 5 is_stmt 0 view .LVU173
 656              	.LBE32:
 657              	.LBE31:
 187:sgl_port_sdl2.c ****         SGL_LOG_ERROR("SGL SDL2 create window failed");
 188:sgl_port_sdl2.c ****         sgl_free(sdl2_dev);
 189:sgl_port_sdl2.c ****         return NULL;
 190:sgl_port_sdl2.c ****     }
 191:sgl_port_sdl2.c **** 
 192:sgl_port_sdl2.c ****     sdl2_dev->systick = SDL_AddTimer(1000, system_tick, sdl2_dev);
 658              		.loc 1 192 5 is_stmt 1 view .LVU174
 659              		.loc 1 192 25 is_stmt 0 view .LVU175
 660 0150 4989D8   		movq	%rbx, %r8
 661 0153 B9E80300 		movl	$1000, %ecx
 661      00
 662 0158 488D1500 		leaq	system_tick(%rip), %rdx
GAS LISTING C:\Users\lsw\AppData\Local\Temp\ccSZcLze.s 			page 41


 662      000000
 663 015f E8000000 		call	SDL_AddTimer
 663      00
 664              	.LVL66:
 193:sgl_port_sdl2.c ****     sdl2_dev->anim_systick = SDL_AddTimer(1, anim_systick, sdl2_dev);
 665              		.loc 1 193 30 view .LVU176
 666 0164 4989D8   		movq	%rbx, %r8
 667 0167 B9010000 		movl	$1, %ecx
 667      00
 192:sgl_port_sdl2.c ****     sdl2_dev->anim_systick = SDL_AddTimer(1, anim_systick, sdl2_dev);
 668              		.loc 1 192 23 discriminator 1 view .LVU177
 669 016c 894308   		movl	%eax, 8(%rbx)
 670              		.loc 1 193 5 is_stmt 1 view .LVU178
 671              		.loc 1 193 30 is_stmt 0 view .LVU179
 672 016f 488D1500 		leaq	anim_systick(%rip), %rdx
 672      000000
 673 0176 E8000000 		call	SDL_AddTimer
 673      00
 674              	.LVL67:
 194:sgl_port_sdl2.c ****     sdl2_dev->frame_count = 0;
 675              		.loc 1 194 27 view .LVU180
 676 017b 48C74310 		movq	$0, 16(%rbx)
 676      00000000 
 193:sgl_port_sdl2.c ****     sdl2_dev->anim_systick = SDL_AddTimer(1, anim_systick, sdl2_dev);
 677              		.loc 1 193 28 discriminator 1 view .LVU181
 678 0183 89430C   		movl	%eax, 12(%rbx)
 679              		.loc 1 194 5 is_stmt 1 view .LVU182
 195:sgl_port_sdl2.c **** 
 196:sgl_port_sdl2.c ****     return sdl2_dev;
 680              		.loc 1 196 5 view .LVU183
 197:sgl_port_sdl2.c **** }
 681              		.loc 1 197 1 is_stmt 0 view .LVU184
 682 0186 4889D8   		movq	%rbx, %rax
 683 0189 4883C458 		addq	$88, %rsp
 684              		.cfi_remember_state
 685              		.cfi_def_cfa_offset 24
 686 018d 5B       		popq	%rbx
 687              		.cfi_restore 3
 688              		.cfi_def_cfa_offset 16
 689              	.LVL68:
 690              		.loc 1 197 1 view .LVU185
 691 018e 5E       		popq	%rsi
 692              		.cfi_restore 4
 693              		.cfi_def_cfa_offset 8
 694 018f C3       		ret
 695              	.LVL69:
 696              	.L26:
 697              		.cfi_restore_state
 181:sgl_port_sdl2.c ****         sgl_free(sdl2_dev);
 698              		.loc 1 181 9 is_stmt 1 view .LVU186
 699 0190 488D1579 		leaq	.LC5(%rip), %rdx
 699      000000
 700 0197 488D0D70 		leaq	.LC4(%rip), %rcx
 700      000000
 701 019e E8000000 		call	sgl_log
 701      00
 702              	.LVL70:
GAS LISTING C:\Users\lsw\AppData\Local\Temp\ccSZcLze.s 			page 42


 182:sgl_port_sdl2.c ****         return NULL;
 703              		.loc 1 182 9 view .LVU187
 704 01a3 4889D9   		movq	%rbx, %rcx
 177:sgl_port_sdl2.c ****     }
 705              		.loc 1 177 16 is_stmt 0 view .LVU188
 706 01a6 31DB     		xorl	%ebx, %ebx
 707              	.LVL71:
 182:sgl_port_sdl2.c ****         return NULL;
 708              		.loc 1 182 9 view .LVU189
 709 01a8 E8000000 		call	sgl_free
 709      00
 710              	.LVL72:
 183:sgl_port_sdl2.c ****     }
 711              		.loc 1 183 9 is_stmt 1 view .LVU190
 712              	.L28:
 713              		.loc 1 197 1 is_stmt 0 view .LVU191
 714 01ad 4889D8   		movq	%rbx, %rax
 715 01b0 4883C458 		addq	$88, %rsp
 716              		.cfi_remember_state
 717              		.cfi_def_cfa_offset 24
 718 01b4 5B       		popq	%rbx
 719              		.cfi_restore 3
 720              		.cfi_def_cfa_offset 16
 721 01b5 5E       		popq	%rsi
 722              		.cfi_restore 4
 723              		.cfi_def_cfa_offset 8
 724 01b6 C3       		ret
 725              	.LVL73:
 726              	.L27:
 727              		.cfi_restore_state
 187:sgl_port_sdl2.c ****         sgl_free(sdl2_dev);
 728              		.loc 1 187 9 is_stmt 1 view .LVU192
 729 01b7 488D1594 		leaq	.LC6(%rip), %rdx
 729      000000
 730 01be 488D0D70 		leaq	.LC4(%rip), %rcx
 730      000000
 731 01c5 E8000000 		call	sgl_log
 731      00
 732              	.LVL74:
 188:sgl_port_sdl2.c ****         return NULL;
 733              		.loc 1 188 9 view .LVU193
 734 01ca 4889D9   		movq	%rbx, %rcx
 177:sgl_port_sdl2.c ****     }
 735              		.loc 1 177 16 is_stmt 0 view .LVU194
 736 01cd 31DB     		xorl	%ebx, %ebx
 737              	.LVL75:
 188:sgl_port_sdl2.c ****         return NULL;
 738              		.loc 1 188 9 view .LVU195
 739 01cf E8000000 		call	sgl_free
 739      00
 740              	.LVL76:
 189:sgl_port_sdl2.c ****     }
 741              		.loc 1 189 9 is_stmt 1 view .LVU196
 742 01d4 EBD7     		jmp	.L28
 743              	.LVL77:
 744              	.L25:
 176:sgl_port_sdl2.c ****         return NULL;
GAS LISTING C:\Users\lsw\AppData\Local\Temp\ccSZcLze.s 			page 43


 745              		.loc 1 176 9 view .LVU197
 746 01d6 488D1548 		leaq	.LC3(%rip), %rdx
 746      000000
 177:sgl_port_sdl2.c ****     }
 747              		.loc 1 177 16 is_stmt 0 view .LVU198
 748 01dd 31DB     		xorl	%ebx, %ebx
 176:sgl_port_sdl2.c ****         return NULL;
 749              		.loc 1 176 9 view .LVU199
 750 01df 488D0D70 		leaq	.LC4(%rip), %rcx
 750      000000
 751 01e6 E8000000 		call	sgl_log
 751      00
 752              	.LVL78:
 177:sgl_port_sdl2.c ****     }
 753              		.loc 1 177 9 is_stmt 1 view .LVU200
 754 01eb EBC0     		jmp	.L28
 755              		.cfi_endproc
 756              	.LFE6955:
 757              		.seh_endproc
 758 01ed 909090   		.section	.text$sgl_port_sdl2_get_frame_count,"x"
 759              		.p2align 4
 760              		.globl	sgl_port_sdl2_get_frame_count
 762              		.seh_proc	sgl_port_sdl2_get_frame_count
 763              	sgl_port_sdl2_get_frame_count:
 764              	.LVL79:
 765              	.LFB6956:
 198:sgl_port_sdl2.c **** 
 199:sgl_port_sdl2.c **** 
 200:sgl_port_sdl2.c **** size_t sgl_port_sdl2_get_frame_count(sgl_port_sdl2_t* sdl2_dev)
 201:sgl_port_sdl2.c **** {
 766              		.loc 1 201 1 view -0
 767              		.cfi_startproc
 768              		.loc 1 201 1 is_stmt 0 view .LVU202
 769              		.seh_endprologue
 202:sgl_port_sdl2.c ****     return sdl2_dev->frame_count;
 770              		.loc 1 202 5 is_stmt 1 view .LVU203
 771              		.loc 1 202 20 is_stmt 0 discriminator 1 view .LVU204
 772 0000 488B4110 		movq	16(%rcx), %rax
 203:sgl_port_sdl2.c **** }
 773              		.loc 1 203 1 view .LVU205
 774 0004 C3       		ret
 775              		.cfi_endproc
 776              	.LFE6956:
 777              		.seh_endproc
 778 0005 90909090 		.section	.text$sgl_port_sdl2_increase_frame_count,"x"
 778      90909090 
 778      909090
 779              		.p2align 4
 780              		.globl	sgl_port_sdl2_increase_frame_count
 782              		.seh_proc	sgl_port_sdl2_increase_frame_count
 783              	sgl_port_sdl2_increase_frame_count:
 784              	.LVL80:
 785              	.LFB6957:
 204:sgl_port_sdl2.c **** 
 205:sgl_port_sdl2.c **** 
 206:sgl_port_sdl2.c **** void sgl_port_sdl2_increase_frame_count(sgl_port_sdl2_t* sdl2_dev)
 207:sgl_port_sdl2.c **** {
GAS LISTING C:\Users\lsw\AppData\Local\Temp\ccSZcLze.s 			page 44


 786              		.loc 1 207 1 is_stmt 1 view -0
 787              		.cfi_startproc
 788              		.loc 1 207 1 is_stmt 0 view .LVU207
 789              		.seh_endprologue
 208:sgl_port_sdl2.c ****     sdl2_dev->frame_count ++;
 790              		.loc 1 208 5 is_stmt 1 view .LVU208
 791              		.loc 1 208 27 is_stmt 0 view .LVU209
 792 0000 48834110 		addq	$1, 16(%rcx)
 792      01
 209:sgl_port_sdl2.c **** }
 793              		.loc 1 209 1 view .LVU210
 794 0005 C3       		ret
 795              		.cfi_endproc
 796              	.LFE6957:
 797              		.seh_endproc
 798 0006 90909090 		.section	.text$sgl_port_sdl2_deinit,"x"
 798      90909090 
 798      9090
 799              		.p2align 4
 800              		.globl	sgl_port_sdl2_deinit
 802              		.seh_proc	sgl_port_sdl2_deinit
 803              	sgl_port_sdl2_deinit:
 804              	.LVL81:
 805              	.LFB6958:
 210:sgl_port_sdl2.c **** 
 211:sgl_port_sdl2.c **** 
 212:sgl_port_sdl2.c **** void sgl_port_sdl2_deinit(sgl_port_sdl2_t* sdl2_dev)
 213:sgl_port_sdl2.c **** {
 806              		.loc 1 213 1 is_stmt 1 view -0
 807              		.cfi_startproc
 808              		.loc 1 213 1 is_stmt 0 view .LVU212
 809 0000 53       		pushq	%rbx
 810              		.seh_pushreg	%rbx
 811              		.cfi_def_cfa_offset 16
 812              		.cfi_offset 3, -16
 813 0001 4883EC20 		subq	$32, %rsp
 814              		.seh_stackalloc	32
 815              		.cfi_def_cfa_offset 48
 816              		.seh_endprologue
 214:sgl_port_sdl2.c ****     SDL_RemoveTimer(sdl2_dev->systick);
 817              		.loc 1 214 5 is_stmt 1 view .LVU213
 213:sgl_port_sdl2.c ****     SDL_RemoveTimer(sdl2_dev->systick);
 818              		.loc 1 213 1 is_stmt 0 view .LVU214
 819 0005 4889CB   		movq	%rcx, %rbx
 820              		.loc 1 214 5 view .LVU215
 821 0008 8B4908   		movl	8(%rcx), %ecx
 822              	.LVL82:
 823              		.loc 1 214 5 view .LVU216
 824 000b E8000000 		call	SDL_RemoveTimer
 824      00
 825              	.LVL83:
 215:sgl_port_sdl2.c ****     SDL_RemoveTimer(sdl2_dev->anim_systick);
 826              		.loc 1 215 5 is_stmt 1 view .LVU217
 827 0010 8B4B0C   		movl	12(%rbx), %ecx
 828 0013 E8000000 		call	SDL_RemoveTimer
 828      00
 829              	.LVL84:
GAS LISTING C:\Users\lsw\AppData\Local\Temp\ccSZcLze.s 			page 45


 216:sgl_port_sdl2.c ****     SDL_DestroyWindow(sdl2_dev->m_window);
 830              		.loc 1 216 5 view .LVU218
 831 0018 488B0B   		movq	(%rbx), %rcx
 832 001b E8000000 		call	SDL_DestroyWindow
 832      00
 833              	.LVL85:
 217:sgl_port_sdl2.c ****     SDL_DestroyRenderer(m_renderer);
 834              		.loc 1 217 5 view .LVU219
 835 0020 488B0D00 		movq	m_renderer(%rip), %rcx
 835      000000
 218:sgl_port_sdl2.c **** }
 836              		.loc 1 218 1 is_stmt 0 view .LVU220
 837 0027 4883C420 		addq	$32, %rsp
 838              		.cfi_def_cfa_offset 16
 839 002b 5B       		popq	%rbx
 840              		.cfi_restore 3
 841              		.cfi_def_cfa_offset 8
 842              	.LVL86:
 217:sgl_port_sdl2.c ****     SDL_DestroyRenderer(m_renderer);
 843              		.loc 1 217 5 view .LVU221
 844 002c E9000000 		jmp	SDL_DestroyRenderer
 844      00
 845              	.LVL87:
 846              		.cfi_endproc
 847              	.LFE6958:
 848              		.seh_endproc
 849 0031 90909090 		.section	.data$panel_buffer1,"w"
 849      90909090 
 849      90909090 
 849      909090
 850              		.align 32
 851              	panel_buffer1:
 852 0000 00000000 		.space 1920
 852      00000000 
 852      00000000 
 852      00000000 
 852      00000000 
 853              		.section	.data$panel_buffer0,"w"
 854              		.align 32
 855              	panel_buffer0:
 856 0000 00000000 		.space 1920
 856      00000000 
 856      00000000 
 856      00000000 
 856      00000000 
 857              		.globl	sdl2_frame_buffer
 858              		.section	.data$sdl2_frame_buffer,"w"
 859              		.align 32
 860              	sdl2_frame_buffer:
 861 0000 00000000 		.space 136320
 861      00000000 
 861      00000000 
 861      00000000 
 861      00000000 
 862              		.section	.data$m_renderer,"w"
 863              		.align 8
 864              	m_renderer:
GAS LISTING C:\Users\lsw\AppData\Local\Temp\ccSZcLze.s 			page 46


 865 0000 00000000 		.space 8
 865      00000000 
 866 0008 00000000 		.text
 866      00000000 
 867              	.Letext0:
 868              		.file 3 "C:/mingw64/x86_64-w64-mingw32/include/corecrt.h"
 869              		.file 4 "C:/mingw64/lib/gcc/x86_64-w64-mingw32/13.2.0/include/stdint-gcc.h"
 870              		.file 5 "sdl/include/SDL2/SDL_stdinc.h"
 871              		.file 6 "sdl/include/SDL2/SDL_rwops.h"
 872              		.file 7 "sdl/include/SDL2/SDL_pixels.h"
 873              		.file 8 "sdl/include/SDL2/SDL_rect.h"
 874              		.file 9 "sdl/include/SDL2/SDL_surface.h"
 875              		.file 10 "sdl/include/SDL2/SDL_video.h"
 876              		.file 11 "sdl/include/SDL2/SDL_scancode.h"
 877              		.file 12 "sdl/include/SDL2/SDL_keycode.h"
 878              		.file 13 "sdl/include/SDL2/SDL_keyboard.h"
 879              		.file 14 "sdl/include/SDL2/SDL_joystick.h"
 880              		.file 15 "sdl/include/SDL2/SDL_touch.h"
 881              		.file 16 "sdl/include/SDL2/SDL_gesture.h"
 882              		.file 17 "sdl/include/SDL2/SDL_events.h"
 883              		.file 18 "sdl/include/SDL2/SDL_messagebox.h"
 884              		.file 19 "sdl/include/SDL2/SDL_render.h"
 885              		.file 20 "sdl/include/SDL2/SDL_timer.h"
 886              		.file 21 "C:/mingw64/x86_64-w64-mingw32/include/stdio.h"
 887              		.file 22 "../source/sgl_mm.h"
 888              		.file 23 "C:/mingw64/x86_64-w64-mingw32/include/string.h"
 889              		.file 24 "sdl/include/SDL2/SDL.h"
 890              		.section	.debug_info,"dr"
 891              	.Ldebug_info0:
 892 0000 404F0000 		.long	0x4f40
 893 0004 0500     		.word	0x5
 894 0006 01       		.byte	0x1
 895 0007 08       		.byte	0x8
 896 0008 00000000 		.secrel32	.Ldebug_abbrev0
 897 000c 3C       		.uleb128 0x3c
 898 000d 474E5520 		.ascii "GNU C99 13.2.0 -mtune=core2 -march=nocona -g -O2 -std=c99 -ffunction-sections -fdata-secti
 898      43393920 
 898      31332E32 
 898      2E30202D 
 898      6D74756E 
 899 007a 0C       		.byte	0xc
 900 007b 00000000 		.secrel32	.LASF0
 901 007f 10000000 		.secrel32	.LASF1
 902 0083 3F000000 		.secrel32	.LLRL28
 903 0087 00000000 		.quad	0
 903      00000000 
 904 008f 00000000 		.secrel32	.Ldebug_line0
 905 0093 10       		.uleb128 0x10
 906 0094 01       		.byte	0x1
 907 0095 06       		.byte	0x6
 908 0096 63686172 		.ascii "char\0"
 908      00
 909 009b 2E       		.uleb128 0x2e
 910 009c 93000000 		.long	0x93
 911 00a0 0E       		.uleb128 0xe
 912 00a1 73697A65 		.ascii "size_t\0"
 912      5F7400
GAS LISTING C:\Users\lsw\AppData\Local\Temp\ccSZcLze.s 			page 47


 913 00a8 03       		.byte	0x3
 914 00a9 23       		.byte	0x23
 915 00aa 2C       		.byte	0x2c
 916 00ab AF000000 		.long	0xaf
 917 00af 10       		.uleb128 0x10
 918 00b0 08       		.byte	0x8
 919 00b1 07       		.byte	0x7
 920 00b2 6C6F6E67 		.ascii "long long unsigned int\0"
 920      206C6F6E 
 920      6720756E 
 920      7369676E 
 920      65642069 
 921 00c9 10       		.uleb128 0x10
 922 00ca 08       		.byte	0x8
 923 00cb 05       		.byte	0x5
 924 00cc 6C6F6E67 		.ascii "long long int\0"
 924      206C6F6E 
 924      6720696E 
 924      7400
 925 00da 10       		.uleb128 0x10
 926 00db 02       		.byte	0x2
 927 00dc 07       		.byte	0x7
 928 00dd 73686F72 		.ascii "short unsigned int\0"
 928      7420756E 
 928      7369676E 
 928      65642069 
 928      6E7400
 929 00f0 10       		.uleb128 0x10
 930 00f1 04       		.byte	0x4
 931 00f2 05       		.byte	0x5
 932 00f3 696E7400 		.ascii "int\0"
 933 00f7 10       		.uleb128 0x10
 934 00f8 04       		.byte	0x4
 935 00f9 05       		.byte	0x5
 936 00fa 6C6F6E67 		.ascii "long int\0"
 936      20696E74 
 936      00
 937 0103 10       		.uleb128 0x10
 938 0104 04       		.byte	0x4
 939 0105 07       		.byte	0x7
 940 0106 756E7369 		.ascii "unsigned int\0"
 940      676E6564 
 940      20696E74 
 940      00
 941 0113 10       		.uleb128 0x10
 942 0114 01       		.byte	0x1
 943 0115 06       		.byte	0x6
 944 0116 7369676E 		.ascii "signed char\0"
 944      65642063 
 944      68617200 
 945 0122 0E       		.uleb128 0xe
 946 0123 696E7431 		.ascii "int16_t\0"
 946      365F7400 
 947 012b 04       		.byte	0x4
 948 012c 25       		.byte	0x25
 949 012d 18       		.byte	0x18
 950 012e 32010000 		.long	0x132
GAS LISTING C:\Users\lsw\AppData\Local\Temp\ccSZcLze.s 			page 48


 951 0132 10       		.uleb128 0x10
 952 0133 02       		.byte	0x2
 953 0134 05       		.byte	0x5
 954 0135 73686F72 		.ascii "short int\0"
 954      7420696E 
 954      7400
 955 013f 0E       		.uleb128 0xe
 956 0140 696E7433 		.ascii "int32_t\0"
 956      325F7400 
 957 0148 04       		.byte	0x4
 958 0149 28       		.byte	0x28
 959 014a 18       		.byte	0x18
 960 014b F0000000 		.long	0xf0
 961 014f 0E       		.uleb128 0xe
 962 0150 696E7436 		.ascii "int64_t\0"
 962      345F7400 
 963 0158 04       		.byte	0x4
 964 0159 2B       		.byte	0x2b
 965 015a 18       		.byte	0x18
 966 015b C9000000 		.long	0xc9
 967 015f 0E       		.uleb128 0xe
 968 0160 75696E74 		.ascii "uint8_t\0"
 968      385F7400 
 969 0168 04       		.byte	0x4
 970 0169 2E       		.byte	0x2e
 971 016a 18       		.byte	0x18
 972 016b 74010000 		.long	0x174
 973 016f 2F       		.uleb128 0x2f
 974 0170 5F010000 		.long	0x15f
 975 0174 10       		.uleb128 0x10
 976 0175 01       		.byte	0x1
 977 0176 08       		.byte	0x8
 978 0177 756E7369 		.ascii "unsigned char\0"
 978      676E6564 
 978      20636861 
 978      7200
 979 0185 0E       		.uleb128 0xe
 980 0186 75696E74 		.ascii "uint16_t\0"
 980      31365F74 
 980      00
 981 018f 04       		.byte	0x4
 982 0190 31       		.byte	0x31
 983 0191 19       		.byte	0x19
 984 0192 DA000000 		.long	0xda
 985 0196 0E       		.uleb128 0xe
 986 0197 75696E74 		.ascii "uint32_t\0"
 986      33325F74 
 986      00
 987 01a0 04       		.byte	0x4
 988 01a1 34       		.byte	0x34
 989 01a2 19       		.byte	0x19
 990 01a3 03010000 		.long	0x103
 991 01a7 2F       		.uleb128 0x2f
 992 01a8 96010000 		.long	0x196
 993 01ac 12       		.uleb128 0x12
 994 01ad 03010000 		.long	0x103
 995 01b1 05       		.byte	0x5
GAS LISTING C:\Users\lsw\AppData\Local\Temp\ccSZcLze.s 			page 49


 996 01b2 B3       		.byte	0xb3
 997 01b3 CF010000 		.long	0x1cf
 998 01b7 01       		.uleb128 0x1
 999 01b8 53444C5F 		.ascii "SDL_FALSE\0"
 999      46414C53 
 999      4500
 1000 01c2 00       		.byte	0
 1001 01c3 01       		.uleb128 0x1
 1002 01c4 53444C5F 		.ascii "SDL_TRUE\0"
 1002      54525545 
 1002      00
 1003 01cd 01       		.byte	0x1
 1004 01ce 00       		.byte	0
 1005 01cf 0E       		.uleb128 0xe
 1006 01d0 53444C5F 		.ascii "SDL_bool\0"
 1006      626F6F6C 
 1006      00
 1007 01d9 05       		.byte	0x5
 1008 01da B6       		.byte	0xb6
 1009 01db 03       		.byte	0x3
 1010 01dc AC010000 		.long	0x1ac
 1011 01e0 0E       		.uleb128 0xe
 1012 01e1 55696E74 		.ascii "Uint8\0"
 1012      3800
 1013 01e7 05       		.byte	0x5
 1014 01e8 C4       		.byte	0xc4
 1015 01e9 11       		.byte	0x11
 1016 01ea 5F010000 		.long	0x15f
 1017 01ee 0E       		.uleb128 0xe
 1018 01ef 53696E74 		.ascii "Sint16\0"
 1018      313600
 1019 01f6 05       		.byte	0x5
 1020 01f7 CA       		.byte	0xca
 1021 01f8 11       		.byte	0x11
 1022 01f9 22010000 		.long	0x122
 1023 01fd 0E       		.uleb128 0xe
 1024 01fe 55696E74 		.ascii "Uint16\0"
 1024      313600
 1025 0205 05       		.byte	0x5
 1026 0206 D0       		.byte	0xd0
 1027 0207 12       		.byte	0x12
 1028 0208 85010000 		.long	0x185
 1029 020c 0E       		.uleb128 0xe
 1030 020d 53696E74 		.ascii "Sint32\0"
 1030      333200
 1031 0214 05       		.byte	0x5
 1032 0215 D6       		.byte	0xd6
 1033 0216 11       		.byte	0x11
 1034 0217 3F010000 		.long	0x13f
 1035 021b 0E       		.uleb128 0xe
 1036 021c 55696E74 		.ascii "Uint32\0"
 1036      333200
 1037 0223 05       		.byte	0x5
 1038 0224 DC       		.byte	0xdc
 1039 0225 12       		.byte	0x12
 1040 0226 96010000 		.long	0x196
 1041 022a 0E       		.uleb128 0xe
GAS LISTING C:\Users\lsw\AppData\Local\Temp\ccSZcLze.s 			page 50


 1042 022b 53696E74 		.ascii "Sint64\0"
 1042      363400
 1043 0232 05       		.byte	0x5
 1044 0233 E3       		.byte	0xe3
 1045 0234 11       		.byte	0x11
 1046 0235 4F010000 		.long	0x14f
 1047 0239 3D       		.uleb128 0x3d
 1048 023a 08       		.byte	0x8
 1049 023b 28       		.uleb128 0x28
 1050 023c 39020000 		.long	0x239
 1051 0240 09       		.uleb128 0x9
 1052 0241 93000000 		.long	0x93
 1053 0245 09       		.uleb128 0x9
 1054 0246 9B000000 		.long	0x9b
 1055 024a 28       		.uleb128 0x28
 1056 024b 45020000 		.long	0x245
 1057 024f 10       		.uleb128 0x10
 1058 0250 04       		.byte	0x4
 1059 0251 07       		.byte	0x7
 1060 0252 6C6F6E67 		.ascii "long unsigned int\0"
 1060      20756E73 
 1060      69676E65 
 1060      6420696E 
 1060      7400
 1061 0264 1E       		.uleb128 0x1e
 1062 0265 18       		.byte	0x18
 1063 0266 06       		.byte	0x6
 1064 0267 6D       		.byte	0x6d
 1065 0268 0D       		.byte	0xd
 1066 0269 98020000 		.long	0x298
 1067 026d 07       		.uleb128 0x7
 1068 026e 64617461 		.ascii "data\0"
 1068      00
 1069 0273 06       		.byte	0x6
 1070 0274 6F       		.byte	0x6f
 1071 0275 17       		.byte	0x17
 1072 0276 39020000 		.long	0x239
 1073 027a 00       		.byte	0
 1074 027b 07       		.uleb128 0x7
 1075 027c 73697A65 		.ascii "size\0"
 1075      00
 1076 0281 06       		.byte	0x6
 1077 0282 70       		.byte	0x70
 1078 0283 18       		.byte	0x18
 1079 0284 A0000000 		.long	0xa0
 1080 0288 08       		.byte	0x8
 1081 0289 07       		.uleb128 0x7
 1082 028a 6C656674 		.ascii "left\0"
 1082      00
 1083 028f 06       		.byte	0x6
 1084 0290 71       		.byte	0x71
 1085 0291 18       		.byte	0x18
 1086 0292 A0000000 		.long	0xa0
 1087 0296 10       		.byte	0x10
 1088 0297 00       		.byte	0
 1089 0298 1E       		.uleb128 0x1e
 1090 0299 28       		.byte	0x28
GAS LISTING C:\Users\lsw\AppData\Local\Temp\ccSZcLze.s 			page 51


 1091 029a 06       		.byte	0x6
 1092 029b 69       		.byte	0x69
 1093 029c 09       		.byte	0x9
 1094 029d CA020000 		.long	0x2ca
 1095 02a1 07       		.uleb128 0x7
 1096 02a2 61707065 		.ascii "append\0"
 1096      6E6400
 1097 02a9 06       		.byte	0x6
 1098 02aa 6B       		.byte	0x6b
 1099 02ab 16       		.byte	0x16
 1100 02ac CF010000 		.long	0x1cf
 1101 02b0 00       		.byte	0
 1102 02b1 07       		.uleb128 0x7
 1103 02b2 6800     		.ascii "h\0"
 1104 02b4 06       		.byte	0x6
 1105 02b5 6C       		.byte	0x6c
 1106 02b6 13       		.byte	0x13
 1107 02b7 39020000 		.long	0x239
 1108 02bb 08       		.byte	0x8
 1109 02bc 0A       		.uleb128 0xa
 1110 02bd 98020000 		.secrel32	.LASF2
 1111 02c1 06       		.byte	0x6
 1112 02c2 72       		.byte	0x72
 1113 02c3 0F       		.byte	0xf
 1114 02c4 64020000 		.long	0x264
 1115 02c8 10       		.byte	0x10
 1116 02c9 00       		.byte	0
 1117 02ca 1E       		.uleb128 0x1e
 1118 02cb 18       		.byte	0x18
 1119 02cc 06       		.byte	0x6
 1120 02cd 88       		.byte	0x88
 1121 02ce 09       		.byte	0x9
 1122 02cf FE020000 		.long	0x2fe
 1123 02d3 07       		.uleb128 0x7
 1124 02d4 62617365 		.ascii "base\0"
 1124      00
 1125 02d9 06       		.byte	0x6
 1126 02da 8A       		.byte	0x8a
 1127 02db 14       		.byte	0x14
 1128 02dc FE020000 		.long	0x2fe
 1129 02e0 00       		.byte	0
 1130 02e1 07       		.uleb128 0x7
 1131 02e2 68657265 		.ascii "here\0"
 1131      00
 1132 02e7 06       		.byte	0x6
 1133 02e8 8B       		.byte	0x8b
 1134 02e9 14       		.byte	0x14
 1135 02ea FE020000 		.long	0x2fe
 1136 02ee 08       		.byte	0x8
 1137 02ef 07       		.uleb128 0x7
 1138 02f0 73746F70 		.ascii "stop\0"
 1138      00
 1139 02f5 06       		.byte	0x6
 1140 02f6 8C       		.byte	0x8c
 1141 02f7 14       		.byte	0x14
 1142 02f8 FE020000 		.long	0x2fe
 1143 02fc 10       		.byte	0x10
GAS LISTING C:\Users\lsw\AppData\Local\Temp\ccSZcLze.s 			page 52


 1144 02fd 00       		.byte	0
 1145 02fe 09       		.uleb128 0x9
 1146 02ff E0010000 		.long	0x1e0
 1147 0303 1E       		.uleb128 0x1e
 1148 0304 10       		.byte	0x10
 1149 0305 06       		.byte	0x6
 1150 0306 8E       		.byte	0x8e
 1151 0307 09       		.byte	0x9
 1152 0308 29030000 		.long	0x329
 1153 030c 0A       		.uleb128 0xa
 1154 030d 31030000 		.secrel32	.LASF3
 1155 0311 06       		.byte	0x6
 1156 0312 90       		.byte	0x90
 1157 0313 13       		.byte	0x13
 1158 0314 39020000 		.long	0x239
 1159 0318 00       		.byte	0
 1160 0319 07       		.uleb128 0x7
 1161 031a 64617461 		.ascii "data2\0"
 1161      3200
 1162 0320 06       		.byte	0x6
 1163 0321 91       		.byte	0x91
 1164 0322 13       		.byte	0x13
 1165 0323 39020000 		.long	0x239
 1166 0327 08       		.byte	0x8
 1167 0328 00       		.byte	0
 1168 0329 30       		.uleb128 0x30
 1169 032a 28       		.byte	0x28
 1170 032b 06       		.byte	0x6
 1171 032c 61       		.byte	0x61
 1172 032d 05       		.byte	0x5
 1173 032e 61030000 		.long	0x361
 1174 0332 1F       		.uleb128 0x1f
 1175 0333 77696E64 		.ascii "windowsio\0"
 1175      6F777369 
 1175      6F00
 1176 033d 06       		.byte	0x6
 1177 033e 73       		.byte	0x73
 1178 033f 0B       		.byte	0xb
 1179 0340 98020000 		.long	0x298
 1180 0344 1F       		.uleb128 0x1f
 1181 0345 6D656D00 		.ascii "mem\0"
 1182 0349 06       		.byte	0x6
 1183 034a 8D       		.byte	0x8d
 1184 034b 0B       		.byte	0xb
 1185 034c CA020000 		.long	0x2ca
 1186 0350 1F       		.uleb128 0x1f
 1187 0351 756E6B6E 		.ascii "unknown\0"
 1187      6F776E00 
 1188 0359 06       		.byte	0x6
 1189 035a 92       		.byte	0x92
 1190 035b 0B       		.byte	0xb
 1191 035c 03030000 		.long	0x303
 1192 0360 00       		.byte	0
 1193 0361 13       		.uleb128 0x13
 1194 0362 05030000 		.secrel32	.LASF5
 1195 0366 58       		.byte	0x58
 1196 0367 06       		.byte	0x6
GAS LISTING C:\Users\lsw\AppData\Local\Temp\ccSZcLze.s 			page 53


 1197 0368 37       		.byte	0x37
 1198 0369 D3030000 		.long	0x3d3
 1199 036d 07       		.uleb128 0x7
 1200 036e 73697A65 		.ascii "size\0"
 1200      00
 1201 0373 06       		.byte	0x6
 1202 0374 3C       		.byte	0x3c
 1203 0375 17       		.byte	0x17
 1204 0376 E7030000 		.long	0x3e7
 1205 037a 00       		.byte	0
 1206 037b 07       		.uleb128 0x7
 1207 037c 7365656B 		.ascii "seek\0"
 1207      00
 1208 0381 06       		.byte	0x6
 1209 0382 44       		.byte	0x44
 1210 0383 17       		.byte	0x17
 1211 0384 05040000 		.long	0x405
 1212 0388 08       		.byte	0x8
 1213 0389 07       		.uleb128 0x7
 1214 038a 72656164 		.ascii "read\0"
 1214      00
 1215 038f 06       		.byte	0x6
 1216 0390 4D       		.byte	0x4d
 1217 0391 17       		.byte	0x17
 1218 0392 28040000 		.long	0x428
 1219 0396 10       		.byte	0x10
 1220 0397 07       		.uleb128 0x7
 1221 0398 77726974 		.ascii "write\0"
 1221      6500
 1222 039e 06       		.byte	0x6
 1223 039f 56       		.byte	0x56
 1224 03a0 17       		.byte	0x17
 1225 03a1 56040000 		.long	0x456
 1226 03a5 18       		.byte	0x18
 1227 03a6 07       		.uleb128 0x7
 1228 03a7 636C6F73 		.ascii "close\0"
 1228      6500
 1229 03ad 06       		.byte	0x6
 1230 03ae 5E       		.byte	0x5e
 1231 03af 14       		.byte	0x14
 1232 03b0 6A040000 		.long	0x46a
 1233 03b4 20       		.byte	0x20
 1234 03b5 0A       		.uleb128 0xa
 1235 03b6 1F020000 		.secrel32	.LASF4
 1236 03ba 06       		.byte	0x6
 1237 03bb 60       		.byte	0x60
 1238 03bc 0C       		.byte	0xc
 1239 03bd 1B020000 		.long	0x21b
 1240 03c1 28       		.byte	0x28
 1241 03c2 07       		.uleb128 0x7
 1242 03c3 68696464 		.ascii "hidden\0"
 1242      656E00
 1243 03ca 06       		.byte	0x6
 1244 03cb 93       		.byte	0x93
 1245 03cc 07       		.byte	0x7
 1246 03cd 29030000 		.long	0x329
 1247 03d1 30       		.byte	0x30
GAS LISTING C:\Users\lsw\AppData\Local\Temp\ccSZcLze.s 			page 54


 1248 03d2 00       		.byte	0
 1249 03d3 1B       		.uleb128 0x1b
 1250 03d4 2A020000 		.long	0x22a
 1251 03d8 E2030000 		.long	0x3e2
 1252 03dc 04       		.uleb128 0x4
 1253 03dd E2030000 		.long	0x3e2
 1254 03e1 00       		.byte	0
 1255 03e2 09       		.uleb128 0x9
 1256 03e3 61030000 		.long	0x361
 1257 03e7 09       		.uleb128 0x9
 1258 03e8 D3030000 		.long	0x3d3
 1259 03ec 1B       		.uleb128 0x1b
 1260 03ed 2A020000 		.long	0x22a
 1261 03f1 05040000 		.long	0x405
 1262 03f5 04       		.uleb128 0x4
 1263 03f6 E2030000 		.long	0x3e2
 1264 03fa 04       		.uleb128 0x4
 1265 03fb 2A020000 		.long	0x22a
 1266 03ff 04       		.uleb128 0x4
 1267 0400 F0000000 		.long	0xf0
 1268 0404 00       		.byte	0
 1269 0405 09       		.uleb128 0x9
 1270 0406 EC030000 		.long	0x3ec
 1271 040a 1B       		.uleb128 0x1b
 1272 040b A0000000 		.long	0xa0
 1273 040f 28040000 		.long	0x428
 1274 0413 04       		.uleb128 0x4
 1275 0414 E2030000 		.long	0x3e2
 1276 0418 04       		.uleb128 0x4
 1277 0419 39020000 		.long	0x239
 1278 041d 04       		.uleb128 0x4
 1279 041e A0000000 		.long	0xa0
 1280 0422 04       		.uleb128 0x4
 1281 0423 A0000000 		.long	0xa0
 1282 0427 00       		.byte	0
 1283 0428 09       		.uleb128 0x9
 1284 0429 0A040000 		.long	0x40a
 1285 042d 1B       		.uleb128 0x1b
 1286 042e A0000000 		.long	0xa0
 1287 0432 4B040000 		.long	0x44b
 1288 0436 04       		.uleb128 0x4
 1289 0437 E2030000 		.long	0x3e2
 1290 043b 04       		.uleb128 0x4
 1291 043c 4B040000 		.long	0x44b
 1292 0440 04       		.uleb128 0x4
 1293 0441 A0000000 		.long	0xa0
 1294 0445 04       		.uleb128 0x4
 1295 0446 A0000000 		.long	0xa0
 1296 044a 00       		.byte	0
 1297 044b 09       		.uleb128 0x9
 1298 044c 55040000 		.long	0x455
 1299 0450 28       		.uleb128 0x28
 1300 0451 4B040000 		.long	0x44b
 1301 0455 3E       		.uleb128 0x3e
 1302 0456 09       		.uleb128 0x9
 1303 0457 2D040000 		.long	0x42d
 1304 045b 1B       		.uleb128 0x1b
GAS LISTING C:\Users\lsw\AppData\Local\Temp\ccSZcLze.s 			page 55


 1305 045c F0000000 		.long	0xf0
 1306 0460 6A040000 		.long	0x46a
 1307 0464 04       		.uleb128 0x4
 1308 0465 E2030000 		.long	0x3e2
 1309 0469 00       		.byte	0
 1310 046a 09       		.uleb128 0x9
 1311 046b 5B040000 		.long	0x45b
 1312 046f 11       		.uleb128 0x11
 1313 0470 05030000 		.secrel32	.LASF5
 1314 0474 06       		.byte	0x6
 1315 0475 95       		.byte	0x95
 1316 0476 03       		.byte	0x3
 1317 0477 61030000 		.long	0x361
 1318 047b 10       		.uleb128 0x10
 1319 047c 08       		.byte	0x8
 1320 047d 04       		.byte	0x4
 1321 047e 646F7562 		.ascii "double\0"
 1321      6C6500
 1322 0485 10       		.uleb128 0x10
 1323 0486 04       		.byte	0x4
 1324 0487 04       		.byte	0x4
 1325 0488 666C6F61 		.ascii "float\0"
 1325      7400
 1326 048e 10       		.uleb128 0x10
 1327 048f 10       		.byte	0x10
 1328 0490 04       		.byte	0x4
 1329 0491 6C6F6E67 		.ascii "long double\0"
 1329      20646F75 
 1329      626C6500 
 1330 049d 10       		.uleb128 0x10
 1331 049e 02       		.byte	0x2
 1332 049f 04       		.byte	0x4
 1333 04a0 5F466C6F 		.ascii "_Float16\0"
 1333      61743136 
 1333      00
 1334 04a9 10       		.uleb128 0x10
 1335 04aa 02       		.byte	0x2
 1336 04ab 04       		.byte	0x4
 1337 04ac 5F5F6266 		.ascii "__bf16\0"
 1337      313600
 1338 04b3 12       		.uleb128 0x12
 1339 04b4 03010000 		.long	0x103
 1340 04b8 07       		.byte	0x7
 1341 04b9 34       		.byte	0x34
 1342 04ba E2050000 		.long	0x5e2
 1343 04be 01       		.uleb128 0x1
 1344 04bf 53444C5F 		.ascii "SDL_PIXELTYPE_UNKNOWN\0"
 1344      50495845 
 1344      4C545950 
 1344      455F554E 
 1344      4B4E4F57 
 1345 04d5 00       		.byte	0
 1346 04d6 01       		.uleb128 0x1
 1347 04d7 53444C5F 		.ascii "SDL_PIXELTYPE_INDEX1\0"
 1347      50495845 
 1347      4C545950 
 1347      455F494E 
GAS LISTING C:\Users\lsw\AppData\Local\Temp\ccSZcLze.s 			page 56


 1347      44455831 
 1348 04ec 01       		.byte	0x1
 1349 04ed 01       		.uleb128 0x1
 1350 04ee 53444C5F 		.ascii "SDL_PIXELTYPE_INDEX4\0"
 1350      50495845 
 1350      4C545950 
 1350      455F494E 
 1350      44455834 
 1351 0503 02       		.byte	0x2
 1352 0504 01       		.uleb128 0x1
 1353 0505 53444C5F 		.ascii "SDL_PIXELTYPE_INDEX8\0"
 1353      50495845 
 1353      4C545950 
 1353      455F494E 
 1353      44455838 
 1354 051a 03       		.byte	0x3
 1355 051b 01       		.uleb128 0x1
 1356 051c 53444C5F 		.ascii "SDL_PIXELTYPE_PACKED8\0"
 1356      50495845 
 1356      4C545950 
 1356      455F5041 
 1356      434B4544 
 1357 0532 04       		.byte	0x4
 1358 0533 01       		.uleb128 0x1
 1359 0534 53444C5F 		.ascii "SDL_PIXELTYPE_PACKED16\0"
 1359      50495845 
 1359      4C545950 
 1359      455F5041 
 1359      434B4544 
 1360 054b 05       		.byte	0x5
 1361 054c 01       		.uleb128 0x1
 1362 054d 53444C5F 		.ascii "SDL_PIXELTYPE_PACKED32\0"
 1362      50495845 
 1362      4C545950 
 1362      455F5041 
 1362      434B4544 
 1363 0564 06       		.byte	0x6
 1364 0565 01       		.uleb128 0x1
 1365 0566 53444C5F 		.ascii "SDL_PIXELTYPE_ARRAYU8\0"
 1365      50495845 
 1365      4C545950 
 1365      455F4152 
 1365      52415955 
 1366 057c 07       		.byte	0x7
 1367 057d 01       		.uleb128 0x1
 1368 057e 53444C5F 		.ascii "SDL_PIXELTYPE_ARRAYU16\0"
 1368      50495845 
 1368      4C545950 
 1368      455F4152 
 1368      52415955 
 1369 0595 08       		.byte	0x8
 1370 0596 01       		.uleb128 0x1
 1371 0597 53444C5F 		.ascii "SDL_PIXELTYPE_ARRAYU32\0"
 1371      50495845 
 1371      4C545950 
 1371      455F4152 
 1371      52415955 
GAS LISTING C:\Users\lsw\AppData\Local\Temp\ccSZcLze.s 			page 57


 1372 05ae 09       		.byte	0x9
 1373 05af 01       		.uleb128 0x1
 1374 05b0 53444C5F 		.ascii "SDL_PIXELTYPE_ARRAYF16\0"
 1374      50495845 
 1374      4C545950 
 1374      455F4152 
 1374      52415946 
 1375 05c7 0A       		.byte	0xa
 1376 05c8 01       		.uleb128 0x1
 1377 05c9 53444C5F 		.ascii "SDL_PIXELTYPE_ARRAYF32\0"
 1377      50495845 
 1377      4C545950 
 1377      455F4152 
 1377      52415946 
 1378 05e0 0B       		.byte	0xb
 1379 05e1 00       		.byte	0
 1380 05e2 12       		.uleb128 0x12
 1381 05e3 03010000 		.long	0x103
 1382 05e7 07       		.byte	0x7
 1383 05e8 45       		.byte	0x45
 1384 05e9 33060000 		.long	0x633
 1385 05ed 01       		.uleb128 0x1
 1386 05ee 53444C5F 		.ascii "SDL_BITMAPORDER_NONE\0"
 1386      4249544D 
 1386      41504F52 
 1386      4445525F 
 1386      4E4F4E45 
 1387 0603 00       		.byte	0
 1388 0604 01       		.uleb128 0x1
 1389 0605 53444C5F 		.ascii "SDL_BITMAPORDER_4321\0"
 1389      4249544D 
 1389      41504F52 
 1389      4445525F 
 1389      34333231 
 1390 061a 01       		.byte	0x1
 1391 061b 01       		.uleb128 0x1
 1392 061c 53444C5F 		.ascii "SDL_BITMAPORDER_1234\0"
 1392      4249544D 
 1392      41504F52 
 1392      4445525F 
 1392      31323334 
 1393 0631 02       		.byte	0x2
 1394 0632 00       		.byte	0
 1395 0633 12       		.uleb128 0x12
 1396 0634 03010000 		.long	0x103
 1397 0638 07       		.byte	0x7
 1398 0639 4D       		.byte	0x4d
 1399 063a 0E070000 		.long	0x70e
 1400 063e 01       		.uleb128 0x1
 1401 063f 53444C5F 		.ascii "SDL_PACKEDORDER_NONE\0"
 1401      5041434B 
 1401      45444F52 
 1401      4445525F 
 1401      4E4F4E45 
 1402 0654 00       		.byte	0
 1403 0655 01       		.uleb128 0x1
 1404 0656 53444C5F 		.ascii "SDL_PACKEDORDER_XRGB\0"
GAS LISTING C:\Users\lsw\AppData\Local\Temp\ccSZcLze.s 			page 58


 1404      5041434B 
 1404      45444F52 
 1404      4445525F 
 1404      58524742 
 1405 066b 01       		.byte	0x1
 1406 066c 01       		.uleb128 0x1
 1407 066d 53444C5F 		.ascii "SDL_PACKEDORDER_RGBX\0"
 1407      5041434B 
 1407      45444F52 
 1407      4445525F 
 1407      52474258 
 1408 0682 02       		.byte	0x2
 1409 0683 01       		.uleb128 0x1
 1410 0684 53444C5F 		.ascii "SDL_PACKEDORDER_ARGB\0"
 1410      5041434B 
 1410      45444F52 
 1410      4445525F 
 1410      41524742 
 1411 0699 03       		.byte	0x3
 1412 069a 01       		.uleb128 0x1
 1413 069b 53444C5F 		.ascii "SDL_PACKEDORDER_RGBA\0"
 1413      5041434B 
 1413      45444F52 
 1413      4445525F 
 1413      52474241 
 1414 06b0 04       		.byte	0x4
 1415 06b1 01       		.uleb128 0x1
 1416 06b2 53444C5F 		.ascii "SDL_PACKEDORDER_XBGR\0"
 1416      5041434B 
 1416      45444F52 
 1416      4445525F 
 1416      58424752 
 1417 06c7 05       		.byte	0x5
 1418 06c8 01       		.uleb128 0x1
 1419 06c9 53444C5F 		.ascii "SDL_PACKEDORDER_BGRX\0"
 1419      5041434B 
 1419      45444F52 
 1419      4445525F 
 1419      42475258 
 1420 06de 06       		.byte	0x6
 1421 06df 01       		.uleb128 0x1
 1422 06e0 53444C5F 		.ascii "SDL_PACKEDORDER_ABGR\0"
 1422      5041434B 
 1422      45444F52 
 1422      4445525F 
 1422      41424752 
 1423 06f5 07       		.byte	0x7
 1424 06f6 01       		.uleb128 0x1
 1425 06f7 53444C5F 		.ascii "SDL_PACKEDORDER_BGRA\0"
 1425      5041434B 
 1425      45444F52 
 1425      4445525F 
 1425      42475241 
 1426 070c 08       		.byte	0x8
 1427 070d 00       		.byte	0
 1428 070e 12       		.uleb128 0x12
 1429 070f 03010000 		.long	0x103
GAS LISTING C:\Users\lsw\AppData\Local\Temp\ccSZcLze.s 			page 59


 1430 0713 07       		.byte	0x7
 1431 0714 5D       		.byte	0x5d
 1432 0715 B2070000 		.long	0x7b2
 1433 0719 01       		.uleb128 0x1
 1434 071a 53444C5F 		.ascii "SDL_ARRAYORDER_NONE\0"
 1434      41525241 
 1434      594F5244 
 1434      45525F4E 
 1434      4F4E4500 
 1435 072e 00       		.byte	0
 1436 072f 01       		.uleb128 0x1
 1437 0730 53444C5F 		.ascii "SDL_ARRAYORDER_RGB\0"
 1437      41525241 
 1437      594F5244 
 1437      45525F52 
 1437      474200
 1438 0743 01       		.byte	0x1
 1439 0744 01       		.uleb128 0x1
 1440 0745 53444C5F 		.ascii "SDL_ARRAYORDER_RGBA\0"
 1440      41525241 
 1440      594F5244 
 1440      45525F52 
 1440      47424100 
 1441 0759 02       		.byte	0x2
 1442 075a 01       		.uleb128 0x1
 1443 075b 53444C5F 		.ascii "SDL_ARRAYORDER_ARGB\0"
 1443      41525241 
 1443      594F5244 
 1443      45525F41 
 1443      52474200 
 1444 076f 03       		.byte	0x3
 1445 0770 01       		.uleb128 0x1
 1446 0771 53444C5F 		.ascii "SDL_ARRAYORDER_BGR\0"
 1446      41525241 
 1446      594F5244 
 1446      45525F42 
 1446      475200
 1447 0784 04       		.byte	0x4
 1448 0785 01       		.uleb128 0x1
 1449 0786 53444C5F 		.ascii "SDL_ARRAYORDER_BGRA\0"
 1449      41525241 
 1449      594F5244 
 1449      45525F42 
 1449      47524100 
 1450 079a 05       		.byte	0x5
 1451 079b 01       		.uleb128 0x1
 1452 079c 53444C5F 		.ascii "SDL_ARRAYORDER_ABGR\0"
 1452      41525241 
 1452      594F5244 
 1452      45525F41 
 1452      42475200 
 1453 07b0 06       		.byte	0x6
 1454 07b1 00       		.byte	0
 1455 07b2 12       		.uleb128 0x12
 1456 07b3 03010000 		.long	0x103
 1457 07b7 07       		.byte	0x7
 1458 07b8 69       		.byte	0x69
GAS LISTING C:\Users\lsw\AppData\Local\Temp\ccSZcLze.s 			page 60


 1459 07b9 9A080000 		.long	0x89a
 1460 07bd 01       		.uleb128 0x1
 1461 07be 53444C5F 		.ascii "SDL_PACKEDLAYOUT_NONE\0"
 1461      5041434B 
 1461      45444C41 
 1461      594F5554 
 1461      5F4E4F4E 
 1462 07d4 00       		.byte	0
 1463 07d5 01       		.uleb128 0x1
 1464 07d6 53444C5F 		.ascii "SDL_PACKEDLAYOUT_332\0"
 1464      5041434B 
 1464      45444C41 
 1464      594F5554 
 1464      5F333332 
 1465 07eb 01       		.byte	0x1
 1466 07ec 01       		.uleb128 0x1
 1467 07ed 53444C5F 		.ascii "SDL_PACKEDLAYOUT_4444\0"
 1467      5041434B 
 1467      45444C41 
 1467      594F5554 
 1467      5F343434 
 1468 0803 02       		.byte	0x2
 1469 0804 01       		.uleb128 0x1
 1470 0805 53444C5F 		.ascii "SDL_PACKEDLAYOUT_1555\0"
 1470      5041434B 
 1470      45444C41 
 1470      594F5554 
 1470      5F313535 
 1471 081b 03       		.byte	0x3
 1472 081c 01       		.uleb128 0x1
 1473 081d 53444C5F 		.ascii "SDL_PACKEDLAYOUT_5551\0"
 1473      5041434B 
 1473      45444C41 
 1473      594F5554 
 1473      5F353535 
 1474 0833 04       		.byte	0x4
 1475 0834 01       		.uleb128 0x1
 1476 0835 53444C5F 		.ascii "SDL_PACKEDLAYOUT_565\0"
 1476      5041434B 
 1476      45444C41 
 1476      594F5554 
 1476      5F353635 
 1477 084a 05       		.byte	0x5
 1478 084b 01       		.uleb128 0x1
 1479 084c 53444C5F 		.ascii "SDL_PACKEDLAYOUT_8888\0"
 1479      5041434B 
 1479      45444C41 
 1479      594F5554 
 1479      5F383838 
 1480 0862 06       		.byte	0x6
 1481 0863 01       		.uleb128 0x1
 1482 0864 53444C5F 		.ascii "SDL_PACKEDLAYOUT_2101010\0"
 1482      5041434B 
 1482      45444C41 
 1482      594F5554 
 1482      5F323130 
 1483 087d 07       		.byte	0x7
GAS LISTING C:\Users\lsw\AppData\Local\Temp\ccSZcLze.s 			page 61


 1484 087e 01       		.uleb128 0x1
 1485 087f 53444C5F 		.ascii "SDL_PACKEDLAYOUT_1010102\0"
 1485      5041434B 
 1485      45444C41 
 1485      594F5554 
 1485      5F313031 
 1486 0898 08       		.byte	0x8
 1487 0899 00       		.byte	0
 1488 089a 12       		.uleb128 0x12
 1489 089b 03010000 		.long	0x103
 1490 089f 07       		.byte	0x7
 1491 08a0 AC       		.byte	0xac
 1492 08a1 4B0E0000 		.long	0xe4b
 1493 08a5 01       		.uleb128 0x1
 1494 08a6 53444C5F 		.ascii "SDL_PIXELFORMAT_UNKNOWN\0"
 1494      50495845 
 1494      4C464F52 
 1494      4D41545F 
 1494      554E4B4E 
 1495 08be 00       		.byte	0
 1496 08bf 05       		.uleb128 0x5
 1497 08c0 53444C5F 		.ascii "SDL_PIXELFORMAT_INDEX1LSB\0"
 1497      50495845 
 1497      4C464F52 
 1497      4D41545F 
 1497      494E4445 
 1498 08da 00011011 		.long	0x11100100
 1499 08de 05       		.uleb128 0x5
 1500 08df 53444C5F 		.ascii "SDL_PIXELFORMAT_INDEX1MSB\0"
 1500      50495845 
 1500      4C464F52 
 1500      4D41545F 
 1500      494E4445 
 1501 08f9 00012011 		.long	0x11200100
 1502 08fd 05       		.uleb128 0x5
 1503 08fe 53444C5F 		.ascii "SDL_PIXELFORMAT_INDEX4LSB\0"
 1503      50495845 
 1503      4C464F52 
 1503      4D41545F 
 1503      494E4445 
 1504 0918 00041012 		.long	0x12100400
 1505 091c 05       		.uleb128 0x5
 1506 091d 53444C5F 		.ascii "SDL_PIXELFORMAT_INDEX4MSB\0"
 1506      50495845 
 1506      4C464F52 
 1506      4D41545F 
 1506      494E4445 
 1507 0937 00042012 		.long	0x12200400
 1508 093b 05       		.uleb128 0x5
 1509 093c 53444C5F 		.ascii "SDL_PIXELFORMAT_INDEX8\0"
 1509      50495845 
 1509      4C464F52 
 1509      4D41545F 
 1509      494E4445 
 1510 0953 01080013 		.long	0x13000801
 1511 0957 05       		.uleb128 0x5
 1512 0958 53444C5F 		.ascii "SDL_PIXELFORMAT_RGB332\0"
GAS LISTING C:\Users\lsw\AppData\Local\Temp\ccSZcLze.s 			page 62


 1512      50495845 
 1512      4C464F52 
 1512      4D41545F 
 1512      52474233 
 1513 096f 01081114 		.long	0x14110801
 1514 0973 05       		.uleb128 0x5
 1515 0974 53444C5F 		.ascii "SDL_PIXELFORMAT_XRGB4444\0"
 1515      50495845 
 1515      4C464F52 
 1515      4D41545F 
 1515      58524742 
 1516 098d 020C1215 		.long	0x15120c02
 1517 0991 05       		.uleb128 0x5
 1518 0992 53444C5F 		.ascii "SDL_PIXELFORMAT_RGB444\0"
 1518      50495845 
 1518      4C464F52 
 1518      4D41545F 
 1518      52474234 
 1519 09a9 020C1215 		.long	0x15120c02
 1520 09ad 05       		.uleb128 0x5
 1521 09ae 53444C5F 		.ascii "SDL_PIXELFORMAT_XBGR4444\0"
 1521      50495845 
 1521      4C464F52 
 1521      4D41545F 
 1521      58424752 
 1522 09c7 020C5215 		.long	0x15520c02
 1523 09cb 05       		.uleb128 0x5
 1524 09cc 53444C5F 		.ascii "SDL_PIXELFORMAT_BGR444\0"
 1524      50495845 
 1524      4C464F52 
 1524      4D41545F 
 1524      42475234 
 1525 09e3 020C5215 		.long	0x15520c02
 1526 09e7 05       		.uleb128 0x5
 1527 09e8 53444C5F 		.ascii "SDL_PIXELFORMAT_XRGB1555\0"
 1527      50495845 
 1527      4C464F52 
 1527      4D41545F 
 1527      58524742 
 1528 0a01 020F1315 		.long	0x15130f02
 1529 0a05 05       		.uleb128 0x5
 1530 0a06 53444C5F 		.ascii "SDL_PIXELFORMAT_RGB555\0"
 1530      50495845 
 1530      4C464F52 
 1530      4D41545F 
 1530      52474235 
 1531 0a1d 020F1315 		.long	0x15130f02
 1532 0a21 05       		.uleb128 0x5
 1533 0a22 53444C5F 		.ascii "SDL_PIXELFORMAT_XBGR1555\0"
 1533      50495845 
 1533      4C464F52 
 1533      4D41545F 
 1533      58424752 
 1534 0a3b 020F5315 		.long	0x15530f02
 1535 0a3f 05       		.uleb128 0x5
 1536 0a40 53444C5F 		.ascii "SDL_PIXELFORMAT_BGR555\0"
 1536      50495845 
GAS LISTING C:\Users\lsw\AppData\Local\Temp\ccSZcLze.s 			page 63


 1536      4C464F52 
 1536      4D41545F 
 1536      42475235 
 1537 0a57 020F5315 		.long	0x15530f02
 1538 0a5b 05       		.uleb128 0x5
 1539 0a5c 53444C5F 		.ascii "SDL_PIXELFORMAT_ARGB4444\0"
 1539      50495845 
 1539      4C464F52 
 1539      4D41545F 
 1539      41524742 
 1540 0a75 02103215 		.long	0x15321002
 1541 0a79 05       		.uleb128 0x5
 1542 0a7a 53444C5F 		.ascii "SDL_PIXELFORMAT_RGBA4444\0"
 1542      50495845 
 1542      4C464F52 
 1542      4D41545F 
 1542      52474241 
 1543 0a93 02104215 		.long	0x15421002
 1544 0a97 05       		.uleb128 0x5
 1545 0a98 53444C5F 		.ascii "SDL_PIXELFORMAT_ABGR4444\0"
 1545      50495845 
 1545      4C464F52 
 1545      4D41545F 
 1545      41424752 
 1546 0ab1 02107215 		.long	0x15721002
 1547 0ab5 05       		.uleb128 0x5
 1548 0ab6 53444C5F 		.ascii "SDL_PIXELFORMAT_BGRA4444\0"
 1548      50495845 
 1548      4C464F52 
 1548      4D41545F 
 1548      42475241 
 1549 0acf 02108215 		.long	0x15821002
 1550 0ad3 05       		.uleb128 0x5
 1551 0ad4 53444C5F 		.ascii "SDL_PIXELFORMAT_ARGB1555\0"
 1551      50495845 
 1551      4C464F52 
 1551      4D41545F 
 1551      41524742 
 1552 0aed 02103315 		.long	0x15331002
 1553 0af1 05       		.uleb128 0x5
 1554 0af2 53444C5F 		.ascii "SDL_PIXELFORMAT_RGBA5551\0"
 1554      50495845 
 1554      4C464F52 
 1554      4D41545F 
 1554      52474241 
 1555 0b0b 02104415 		.long	0x15441002
 1556 0b0f 05       		.uleb128 0x5
 1557 0b10 53444C5F 		.ascii "SDL_PIXELFORMAT_ABGR1555\0"
 1557      50495845 
 1557      4C464F52 
 1557      4D41545F 
 1557      41424752 
 1558 0b29 02107315 		.long	0x15731002
 1559 0b2d 05       		.uleb128 0x5
 1560 0b2e 53444C5F 		.ascii "SDL_PIXELFORMAT_BGRA5551\0"
 1560      50495845 
 1560      4C464F52 
GAS LISTING C:\Users\lsw\AppData\Local\Temp\ccSZcLze.s 			page 64


 1560      4D41545F 
 1560      42475241 
 1561 0b47 02108415 		.long	0x15841002
 1562 0b4b 05       		.uleb128 0x5
 1563 0b4c 53444C5F 		.ascii "SDL_PIXELFORMAT_RGB565\0"
 1563      50495845 
 1563      4C464F52 
 1563      4D41545F 
 1563      52474235 
 1564 0b63 02101515 		.long	0x15151002
 1565 0b67 05       		.uleb128 0x5
 1566 0b68 53444C5F 		.ascii "SDL_PIXELFORMAT_BGR565\0"
 1566      50495845 
 1566      4C464F52 
 1566      4D41545F 
 1566      42475235 
 1567 0b7f 02105515 		.long	0x15551002
 1568 0b83 05       		.uleb128 0x5
 1569 0b84 53444C5F 		.ascii "SDL_PIXELFORMAT_RGB24\0"
 1569      50495845 
 1569      4C464F52 
 1569      4D41545F 
 1569      52474232 
 1570 0b9a 03181017 		.long	0x17101803
 1571 0b9e 05       		.uleb128 0x5
 1572 0b9f 53444C5F 		.ascii "SDL_PIXELFORMAT_BGR24\0"
 1572      50495845 
 1572      4C464F52 
 1572      4D41545F 
 1572      42475232 
 1573 0bb5 03184017 		.long	0x17401803
 1574 0bb9 05       		.uleb128 0x5
 1575 0bba 53444C5F 		.ascii "SDL_PIXELFORMAT_XRGB8888\0"
 1575      50495845 
 1575      4C464F52 
 1575      4D41545F 
 1575      58524742 
 1576 0bd3 04181616 		.long	0x16161804
 1577 0bd7 05       		.uleb128 0x5
 1578 0bd8 53444C5F 		.ascii "SDL_PIXELFORMAT_RGB888\0"
 1578      50495845 
 1578      4C464F52 
 1578      4D41545F 
 1578      52474238 
 1579 0bef 04181616 		.long	0x16161804
 1580 0bf3 05       		.uleb128 0x5
 1581 0bf4 53444C5F 		.ascii "SDL_PIXELFORMAT_RGBX8888\0"
 1581      50495845 
 1581      4C464F52 
 1581      4D41545F 
 1581      52474258 
 1582 0c0d 04182616 		.long	0x16261804
 1583 0c11 05       		.uleb128 0x5
 1584 0c12 53444C5F 		.ascii "SDL_PIXELFORMAT_XBGR8888\0"
 1584      50495845 
 1584      4C464F52 
 1584      4D41545F 
GAS LISTING C:\Users\lsw\AppData\Local\Temp\ccSZcLze.s 			page 65


 1584      58424752 
 1585 0c2b 04185616 		.long	0x16561804
 1586 0c2f 05       		.uleb128 0x5
 1587 0c30 53444C5F 		.ascii "SDL_PIXELFORMAT_BGR888\0"
 1587      50495845 
 1587      4C464F52 
 1587      4D41545F 
 1587      42475238 
 1588 0c47 04185616 		.long	0x16561804
 1589 0c4b 05       		.uleb128 0x5
 1590 0c4c 53444C5F 		.ascii "SDL_PIXELFORMAT_BGRX8888\0"
 1590      50495845 
 1590      4C464F52 
 1590      4D41545F 
 1590      42475258 
 1591 0c65 04186616 		.long	0x16661804
 1592 0c69 05       		.uleb128 0x5
 1593 0c6a 53444C5F 		.ascii "SDL_PIXELFORMAT_ARGB8888\0"
 1593      50495845 
 1593      4C464F52 
 1593      4D41545F 
 1593      41524742 
 1594 0c83 04203616 		.long	0x16362004
 1595 0c87 05       		.uleb128 0x5
 1596 0c88 53444C5F 		.ascii "SDL_PIXELFORMAT_RGBA8888\0"
 1596      50495845 
 1596      4C464F52 
 1596      4D41545F 
 1596      52474241 
 1597 0ca1 04204616 		.long	0x16462004
 1598 0ca5 05       		.uleb128 0x5
 1599 0ca6 53444C5F 		.ascii "SDL_PIXELFORMAT_ABGR8888\0"
 1599      50495845 
 1599      4C464F52 
 1599      4D41545F 
 1599      41424752 
 1600 0cbf 04207616 		.long	0x16762004
 1601 0cc3 05       		.uleb128 0x5
 1602 0cc4 53444C5F 		.ascii "SDL_PIXELFORMAT_BGRA8888\0"
 1602      50495845 
 1602      4C464F52 
 1602      4D41545F 
 1602      42475241 
 1603 0cdd 04208616 		.long	0x16862004
 1604 0ce1 05       		.uleb128 0x5
 1605 0ce2 53444C5F 		.ascii "SDL_PIXELFORMAT_ARGB2101010\0"
 1605      50495845 
 1605      4C464F52 
 1605      4D41545F 
 1605      41524742 
 1606 0cfe 04203716 		.long	0x16372004
 1607 0d02 05       		.uleb128 0x5
 1608 0d03 53444C5F 		.ascii "SDL_PIXELFORMAT_RGBA32\0"
 1608      50495845 
 1608      4C464F52 
 1608      4D41545F 
 1608      52474241 
GAS LISTING C:\Users\lsw\AppData\Local\Temp\ccSZcLze.s 			page 66


 1609 0d1a 04207616 		.long	0x16762004
 1610 0d1e 05       		.uleb128 0x5
 1611 0d1f 53444C5F 		.ascii "SDL_PIXELFORMAT_ARGB32\0"
 1611      50495845 
 1611      4C464F52 
 1611      4D41545F 
 1611      41524742 
 1612 0d36 04208616 		.long	0x16862004
 1613 0d3a 05       		.uleb128 0x5
 1614 0d3b 53444C5F 		.ascii "SDL_PIXELFORMAT_BGRA32\0"
 1614      50495845 
 1614      4C464F52 
 1614      4D41545F 
 1614      42475241 
 1615 0d52 04203616 		.long	0x16362004
 1616 0d56 05       		.uleb128 0x5
 1617 0d57 53444C5F 		.ascii "SDL_PIXELFORMAT_ABGR32\0"
 1617      50495845 
 1617      4C464F52 
 1617      4D41545F 
 1617      41424752 
 1618 0d6e 04204616 		.long	0x16462004
 1619 0d72 05       		.uleb128 0x5
 1620 0d73 53444C5F 		.ascii "SDL_PIXELFORMAT_YV12\0"
 1620      50495845 
 1620      4C464F52 
 1620      4D41545F 
 1620      59563132 
 1621 0d88 59563132 		.long	0x32315659
 1622 0d8c 05       		.uleb128 0x5
 1623 0d8d 53444C5F 		.ascii "SDL_PIXELFORMAT_IYUV\0"
 1623      50495845 
 1623      4C464F52 
 1623      4D41545F 
 1623      49595556 
 1624 0da2 49595556 		.long	0x56555949
 1625 0da6 05       		.uleb128 0x5
 1626 0da7 53444C5F 		.ascii "SDL_PIXELFORMAT_YUY2\0"
 1626      50495845 
 1626      4C464F52 
 1626      4D41545F 
 1626      59555932 
 1627 0dbc 59555932 		.long	0x32595559
 1628 0dc0 05       		.uleb128 0x5
 1629 0dc1 53444C5F 		.ascii "SDL_PIXELFORMAT_UYVY\0"
 1629      50495845 
 1629      4C464F52 
 1629      4D41545F 
 1629      55595659 
 1630 0dd6 55595659 		.long	0x59565955
 1631 0dda 05       		.uleb128 0x5
 1632 0ddb 53444C5F 		.ascii "SDL_PIXELFORMAT_YVYU\0"
 1632      50495845 
 1632      4C464F52 
 1632      4D41545F 
 1632      59565955 
 1633 0df0 59565955 		.long	0x55595659
GAS LISTING C:\Users\lsw\AppData\Local\Temp\ccSZcLze.s 			page 67


 1634 0df4 05       		.uleb128 0x5
 1635 0df5 53444C5F 		.ascii "SDL_PIXELFORMAT_NV12\0"
 1635      50495845 
 1635      4C464F52 
 1635      4D41545F 
 1635      4E563132 
 1636 0e0a 4E563132 		.long	0x3231564e
 1637 0e0e 05       		.uleb128 0x5
 1638 0e0f 53444C5F 		.ascii "SDL_PIXELFORMAT_NV21\0"
 1638      50495845 
 1638      4C464F52 
 1638      4D41545F 
 1638      4E563231 
 1639 0e24 4E563231 		.long	0x3132564e
 1640 0e28 05       		.uleb128 0x5
 1641 0e29 53444C5F 		.ascii "SDL_PIXELFORMAT_EXTERNAL_OES\0"
 1641      50495845 
 1641      4C464F52 
 1641      4D41545F 
 1641      45585445 
 1642 0e46 4F455320 		.long	0x2053454f
 1643 0e4a 00       		.byte	0
 1644 0e4b 0D       		.uleb128 0xd
 1645 0e4c 27030000 		.secrel32	.LASF6
 1646 0e50 04       		.byte	0x4
 1647 0e51 07       		.byte	0x7
 1648 0e52 3501     		.word	0x135
 1649 0e54 890E0000 		.long	0xe89
 1650 0e58 03       		.uleb128 0x3
 1651 0e59 7200     		.ascii "r\0"
 1652 0e5b 07       		.byte	0x7
 1653 0e5c 3701     		.word	0x137
 1654 0e5e 0B       		.byte	0xb
 1655 0e5f E0010000 		.long	0x1e0
 1656 0e63 00       		.byte	0
 1657 0e64 03       		.uleb128 0x3
 1658 0e65 6700     		.ascii "g\0"
 1659 0e67 07       		.byte	0x7
 1660 0e68 3801     		.word	0x138
 1661 0e6a 0B       		.byte	0xb
 1662 0e6b E0010000 		.long	0x1e0
 1663 0e6f 01       		.byte	0x1
 1664 0e70 03       		.uleb128 0x3
 1665 0e71 6200     		.ascii "b\0"
 1666 0e73 07       		.byte	0x7
 1667 0e74 3901     		.word	0x139
 1668 0e76 0B       		.byte	0xb
 1669 0e77 E0010000 		.long	0x1e0
 1670 0e7b 02       		.byte	0x2
 1671 0e7c 03       		.uleb128 0x3
 1672 0e7d 6100     		.ascii "a\0"
 1673 0e7f 07       		.byte	0x7
 1674 0e80 3A01     		.word	0x13a
 1675 0e82 0B       		.byte	0xb
 1676 0e83 E0010000 		.long	0x1e0
 1677 0e87 03       		.byte	0x3
 1678 0e88 00       		.byte	0
GAS LISTING C:\Users\lsw\AppData\Local\Temp\ccSZcLze.s 			page 68


 1679 0e89 0B       		.uleb128 0xb
 1680 0e8a 27030000 		.secrel32	.LASF6
 1681 0e8e 07       		.byte	0x7
 1682 0e8f 3B01     		.word	0x13b
 1683 0e91 03       		.byte	0x3
 1684 0e92 4B0E0000 		.long	0xe4b
 1685 0e96 0D       		.uleb128 0xd
 1686 0e97 FD010000 		.secrel32	.LASF7
 1687 0e9b 18       		.byte	0x18
 1688 0e9c 07       		.byte	0x7
 1689 0e9d 3E01     		.word	0x13e
 1690 0e9f E70E0000 		.long	0xee7
 1691 0ea3 03       		.uleb128 0x3
 1692 0ea4 6E636F6C 		.ascii "ncolors\0"
 1692      6F727300 
 1693 0eac 07       		.byte	0x7
 1694 0ead 4001     		.word	0x140
 1695 0eaf 09       		.byte	0x9
 1696 0eb0 F0000000 		.long	0xf0
 1697 0eb4 00       		.byte	0
 1698 0eb5 03       		.uleb128 0x3
 1699 0eb6 636F6C6F 		.ascii "colors\0"
 1699      727300
 1700 0ebd 07       		.byte	0x7
 1701 0ebe 4101     		.word	0x141
 1702 0ec0 10       		.byte	0x10
 1703 0ec1 E70E0000 		.long	0xee7
 1704 0ec5 08       		.byte	0x8
 1705 0ec6 03       		.uleb128 0x3
 1706 0ec7 76657273 		.ascii "version\0"
 1706      696F6E00 
 1707 0ecf 07       		.byte	0x7
 1708 0ed0 4201     		.word	0x142
 1709 0ed2 0C       		.byte	0xc
 1710 0ed3 1B020000 		.long	0x21b
 1711 0ed7 10       		.byte	0x10
 1712 0ed8 02       		.uleb128 0x2
 1713 0ed9 B9000000 		.secrel32	.LASF8
 1714 0edd 07       		.byte	0x7
 1715 0ede 4301     		.word	0x143
 1716 0ee0 09       		.byte	0x9
 1717 0ee1 F0000000 		.long	0xf0
 1718 0ee5 14       		.byte	0x14
 1719 0ee6 00       		.byte	0
 1720 0ee7 09       		.uleb128 0x9
 1721 0ee8 890E0000 		.long	0xe89
 1722 0eec 0B       		.uleb128 0xb
 1723 0eed FD010000 		.secrel32	.LASF7
 1724 0ef1 07       		.byte	0x7
 1725 0ef2 4401     		.word	0x144
 1726 0ef4 03       		.byte	0x3
 1727 0ef5 960E0000 		.long	0xe96
 1728 0ef9 0D       		.uleb128 0xd
 1729 0efa 34010000 		.secrel32	.LASF9
 1730 0efe 38       		.byte	0x38
 1731 0eff 07       		.byte	0x7
 1732 0f00 4901     		.word	0x149
GAS LISTING C:\Users\lsw\AppData\Local\Temp\ccSZcLze.s 			page 69


 1733 0f02 48100000 		.long	0x1048
 1734 0f06 03       		.uleb128 0x3
 1735 0f07 666F726D 		.ascii "format\0"
 1735      617400
 1736 0f0e 07       		.byte	0x7
 1737 0f0f 4B01     		.word	0x14b
 1738 0f11 0C       		.byte	0xc
 1739 0f12 1B020000 		.long	0x21b
 1740 0f16 00       		.byte	0
 1741 0f17 03       		.uleb128 0x3
 1742 0f18 70616C65 		.ascii "palette\0"
 1742      74746500 
 1743 0f20 07       		.byte	0x7
 1744 0f21 4C01     		.word	0x14c
 1745 0f23 12       		.byte	0x12
 1746 0f24 48100000 		.long	0x1048
 1747 0f28 08       		.byte	0x8
 1748 0f29 03       		.uleb128 0x3
 1749 0f2a 42697473 		.ascii "BitsPerPixel\0"
 1749      50657250 
 1749      6978656C 
 1749      00
 1750 0f37 07       		.byte	0x7
 1751 0f38 4D01     		.word	0x14d
 1752 0f3a 0B       		.byte	0xb
 1753 0f3b E0010000 		.long	0x1e0
 1754 0f3f 10       		.byte	0x10
 1755 0f40 03       		.uleb128 0x3
 1756 0f41 42797465 		.ascii "BytesPerPixel\0"
 1756      73506572 
 1756      50697865 
 1756      6C00
 1757 0f4f 07       		.byte	0x7
 1758 0f50 4E01     		.word	0x14e
 1759 0f52 0B       		.byte	0xb
 1760 0f53 E0010000 		.long	0x1e0
 1761 0f57 11       		.byte	0x11
 1762 0f58 02       		.uleb128 0x2
 1763 0f59 90020000 		.secrel32	.LASF10
 1764 0f5d 07       		.byte	0x7
 1765 0f5e 4F01     		.word	0x14f
 1766 0f60 0B       		.byte	0xb
 1767 0f61 4D100000 		.long	0x104d
 1768 0f65 12       		.byte	0x12
 1769 0f66 03       		.uleb128 0x3
 1770 0f67 526D6173 		.ascii "Rmask\0"
 1770      6B00
 1771 0f6d 07       		.byte	0x7
 1772 0f6e 5001     		.word	0x150
 1773 0f70 0C       		.byte	0xc
 1774 0f71 1B020000 		.long	0x21b
 1775 0f75 14       		.byte	0x14
 1776 0f76 03       		.uleb128 0x3
 1777 0f77 476D6173 		.ascii "Gmask\0"
 1777      6B00
 1778 0f7d 07       		.byte	0x7
 1779 0f7e 5101     		.word	0x151
GAS LISTING C:\Users\lsw\AppData\Local\Temp\ccSZcLze.s 			page 70


 1780 0f80 0C       		.byte	0xc
 1781 0f81 1B020000 		.long	0x21b
 1782 0f85 18       		.byte	0x18
 1783 0f86 03       		.uleb128 0x3
 1784 0f87 426D6173 		.ascii "Bmask\0"
 1784      6B00
 1785 0f8d 07       		.byte	0x7
 1786 0f8e 5201     		.word	0x152
 1787 0f90 0C       		.byte	0xc
 1788 0f91 1B020000 		.long	0x21b
 1789 0f95 1C       		.byte	0x1c
 1790 0f96 03       		.uleb128 0x3
 1791 0f97 416D6173 		.ascii "Amask\0"
 1791      6B00
 1792 0f9d 07       		.byte	0x7
 1793 0f9e 5301     		.word	0x153
 1794 0fa0 0C       		.byte	0xc
 1795 0fa1 1B020000 		.long	0x21b
 1796 0fa5 20       		.byte	0x20
 1797 0fa6 03       		.uleb128 0x3
 1798 0fa7 526C6F73 		.ascii "Rloss\0"
 1798      7300
 1799 0fad 07       		.byte	0x7
 1800 0fae 5401     		.word	0x154
 1801 0fb0 0B       		.byte	0xb
 1802 0fb1 E0010000 		.long	0x1e0
 1803 0fb5 24       		.byte	0x24
 1804 0fb6 03       		.uleb128 0x3
 1805 0fb7 476C6F73 		.ascii "Gloss\0"
 1805      7300
 1806 0fbd 07       		.byte	0x7
 1807 0fbe 5501     		.word	0x155
 1808 0fc0 0B       		.byte	0xb
 1809 0fc1 E0010000 		.long	0x1e0
 1810 0fc5 25       		.byte	0x25
 1811 0fc6 03       		.uleb128 0x3
 1812 0fc7 426C6F73 		.ascii "Bloss\0"
 1812      7300
 1813 0fcd 07       		.byte	0x7
 1814 0fce 5601     		.word	0x156
 1815 0fd0 0B       		.byte	0xb
 1816 0fd1 E0010000 		.long	0x1e0
 1817 0fd5 26       		.byte	0x26
 1818 0fd6 03       		.uleb128 0x3
 1819 0fd7 416C6F73 		.ascii "Aloss\0"
 1819      7300
 1820 0fdd 07       		.byte	0x7
 1821 0fde 5701     		.word	0x157
 1822 0fe0 0B       		.byte	0xb
 1823 0fe1 E0010000 		.long	0x1e0
 1824 0fe5 27       		.byte	0x27
 1825 0fe6 03       		.uleb128 0x3
 1826 0fe7 52736869 		.ascii "Rshift\0"
 1826      667400
 1827 0fee 07       		.byte	0x7
 1828 0fef 5801     		.word	0x158
 1829 0ff1 0B       		.byte	0xb
GAS LISTING C:\Users\lsw\AppData\Local\Temp\ccSZcLze.s 			page 71


 1830 0ff2 E0010000 		.long	0x1e0
 1831 0ff6 28       		.byte	0x28
 1832 0ff7 03       		.uleb128 0x3
 1833 0ff8 47736869 		.ascii "Gshift\0"
 1833      667400
 1834 0fff 07       		.byte	0x7
 1835 1000 5901     		.word	0x159
 1836 1002 0B       		.byte	0xb
 1837 1003 E0010000 		.long	0x1e0
 1838 1007 29       		.byte	0x29
 1839 1008 03       		.uleb128 0x3
 1840 1009 42736869 		.ascii "Bshift\0"
 1840      667400
 1841 1010 07       		.byte	0x7
 1842 1011 5A01     		.word	0x15a
 1843 1013 0B       		.byte	0xb
 1844 1014 E0010000 		.long	0x1e0
 1845 1018 2A       		.byte	0x2a
 1846 1019 03       		.uleb128 0x3
 1847 101a 41736869 		.ascii "Ashift\0"
 1847      667400
 1848 1021 07       		.byte	0x7
 1849 1022 5B01     		.word	0x15b
 1850 1024 0B       		.byte	0xb
 1851 1025 E0010000 		.long	0x1e0
 1852 1029 2B       		.byte	0x2b
 1853 102a 02       		.uleb128 0x2
 1854 102b B9000000 		.secrel32	.LASF8
 1855 102f 07       		.byte	0x7
 1856 1030 5C01     		.word	0x15c
 1857 1032 09       		.byte	0x9
 1858 1033 F0000000 		.long	0xf0
 1859 1037 2C       		.byte	0x2c
 1860 1038 03       		.uleb128 0x3
 1861 1039 6E657874 		.ascii "next\0"
 1861      00
 1862 103e 07       		.byte	0x7
 1863 103f 5D01     		.word	0x15d
 1864 1041 1D       		.byte	0x1d
 1865 1042 5D100000 		.long	0x105d
 1866 1046 30       		.byte	0x30
 1867 1047 00       		.byte	0
 1868 1048 09       		.uleb128 0x9
 1869 1049 EC0E0000 		.long	0xeec
 1870 104d 14       		.uleb128 0x14
 1871 104e E0010000 		.long	0x1e0
 1872 1052 5D100000 		.long	0x105d
 1873 1056 1C       		.uleb128 0x1c
 1874 1057 AF000000 		.long	0xaf
 1875 105b 01       		.byte	0x1
 1876 105c 00       		.byte	0
 1877 105d 09       		.uleb128 0x9
 1878 105e F90E0000 		.long	0xef9
 1879 1062 0B       		.uleb128 0xb
 1880 1063 34010000 		.secrel32	.LASF9
 1881 1067 07       		.byte	0x7
 1882 1068 5E01     		.word	0x15e
GAS LISTING C:\Users\lsw\AppData\Local\Temp\ccSZcLze.s 			page 72


 1883 106a 03       		.byte	0x3
 1884 106b F90E0000 		.long	0xef9
 1885 106f 13       		.uleb128 0x13
 1886 1070 FC020000 		.secrel32	.LASF11
 1887 1074 10       		.byte	0x10
 1888 1075 08       		.byte	0x8
 1889 1076 4E       		.byte	0x4e
 1890 1077 A8100000 		.long	0x10a8
 1891 107b 07       		.uleb128 0x7
 1892 107c 7800     		.ascii "x\0"
 1893 107e 08       		.byte	0x8
 1894 107f 50       		.byte	0x50
 1895 1080 09       		.byte	0x9
 1896 1081 F0000000 		.long	0xf0
 1897 1085 00       		.byte	0
 1898 1086 07       		.uleb128 0x7
 1899 1087 7900     		.ascii "y\0"
 1900 1089 08       		.byte	0x8
 1901 108a 50       		.byte	0x50
 1902 108b 0C       		.byte	0xc
 1903 108c F0000000 		.long	0xf0
 1904 1090 04       		.byte	0x4
 1905 1091 07       		.uleb128 0x7
 1906 1092 7700     		.ascii "w\0"
 1907 1094 08       		.byte	0x8
 1908 1095 51       		.byte	0x51
 1909 1096 09       		.byte	0x9
 1910 1097 F0000000 		.long	0xf0
 1911 109b 08       		.byte	0x8
 1912 109c 07       		.uleb128 0x7
 1913 109d 6800     		.ascii "h\0"
 1914 109f 08       		.byte	0x8
 1915 10a0 51       		.byte	0x51
 1916 10a1 0C       		.byte	0xc
 1917 10a2 F0000000 		.long	0xf0
 1918 10a6 0C       		.byte	0xc
 1919 10a7 00       		.byte	0
 1920 10a8 11       		.uleb128 0x11
 1921 10a9 FC020000 		.secrel32	.LASF11
 1922 10ad 08       		.byte	0x8
 1923 10ae 52       		.byte	0x52
 1924 10af 03       		.byte	0x3
 1925 10b0 6F100000 		.long	0x106f
 1926 10b4 2E       		.uleb128 0x2e
 1927 10b5 A8100000 		.long	0x10a8
 1928 10b9 13       		.uleb128 0x13
 1929 10ba 1A000000 		.secrel32	.LASF12
 1930 10be 60       		.byte	0x60
 1931 10bf 09       		.byte	0x9
 1932 10c0 46       		.byte	0x46
 1933 10c1 7F110000 		.long	0x117f
 1934 10c5 07       		.uleb128 0x7
 1935 10c6 666C6167 		.ascii "flags\0"
 1935      7300
 1936 10cc 09       		.byte	0x9
 1937 10cd 48       		.byte	0x48
 1938 10ce 0C       		.byte	0xc
GAS LISTING C:\Users\lsw\AppData\Local\Temp\ccSZcLze.s 			page 73


 1939 10cf 1B020000 		.long	0x21b
 1940 10d3 00       		.byte	0
 1941 10d4 07       		.uleb128 0x7
 1942 10d5 666F726D 		.ascii "format\0"
 1942      617400
 1943 10dc 09       		.byte	0x9
 1944 10dd 49       		.byte	0x49
 1945 10de 16       		.byte	0x16
 1946 10df 7F110000 		.long	0x117f
 1947 10e3 08       		.byte	0x8
 1948 10e4 07       		.uleb128 0x7
 1949 10e5 7700     		.ascii "w\0"
 1950 10e7 09       		.byte	0x9
 1951 10e8 4A       		.byte	0x4a
 1952 10e9 09       		.byte	0x9
 1953 10ea F0000000 		.long	0xf0
 1954 10ee 10       		.byte	0x10
 1955 10ef 07       		.uleb128 0x7
 1956 10f0 6800     		.ascii "h\0"
 1957 10f2 09       		.byte	0x9
 1958 10f3 4A       		.byte	0x4a
 1959 10f4 0C       		.byte	0xc
 1960 10f5 F0000000 		.long	0xf0
 1961 10f9 14       		.byte	0x14
 1962 10fa 07       		.uleb128 0x7
 1963 10fb 70697463 		.ascii "pitch\0"
 1963      6800
 1964 1101 09       		.byte	0x9
 1965 1102 4B       		.byte	0x4b
 1966 1103 09       		.byte	0x9
 1967 1104 F0000000 		.long	0xf0
 1968 1108 18       		.byte	0x18
 1969 1109 07       		.uleb128 0x7
 1970 110a 70697865 		.ascii "pixels\0"
 1970      6C7300
 1971 1111 09       		.byte	0x9
 1972 1112 4C       		.byte	0x4c
 1973 1113 0B       		.byte	0xb
 1974 1114 39020000 		.long	0x239
 1975 1118 20       		.byte	0x20
 1976 1119 07       		.uleb128 0x7
 1977 111a 75736572 		.ascii "userdata\0"
 1977      64617461 
 1977      00
 1978 1123 09       		.byte	0x9
 1979 1124 4F       		.byte	0x4f
 1980 1125 0B       		.byte	0xb
 1981 1126 39020000 		.long	0x239
 1982 112a 28       		.byte	0x28
 1983 112b 07       		.uleb128 0x7
 1984 112c 6C6F636B 		.ascii "locked\0"
 1984      656400
 1985 1133 09       		.byte	0x9
 1986 1134 52       		.byte	0x52
 1987 1135 09       		.byte	0x9
 1988 1136 F0000000 		.long	0xf0
 1989 113a 30       		.byte	0x30
GAS LISTING C:\Users\lsw\AppData\Local\Temp\ccSZcLze.s 			page 74


 1990 113b 07       		.uleb128 0x7
 1991 113c 6C697374 		.ascii "list_blitmap\0"
 1991      5F626C69 
 1991      746D6170 
 1991      00
 1992 1149 09       		.byte	0x9
 1993 114a 55       		.byte	0x55
 1994 114b 0B       		.byte	0xb
 1995 114c 39020000 		.long	0x239
 1996 1150 38       		.byte	0x38
 1997 1151 07       		.uleb128 0x7
 1998 1152 636C6970 		.ascii "clip_rect\0"
 1998      5F726563 
 1998      7400
 1999 115c 09       		.byte	0x9
 2000 115d 58       		.byte	0x58
 2001 115e 0E       		.byte	0xe
 2002 115f A8100000 		.long	0x10a8
 2003 1163 40       		.byte	0x40
 2004 1164 07       		.uleb128 0x7
 2005 1165 6D617000 		.ascii "map\0"
 2006 1169 09       		.byte	0x9
 2007 116a 5B       		.byte	0x5b
 2008 116b 19       		.byte	0x19
 2009 116c 91110000 		.long	0x1191
 2010 1170 50       		.byte	0x50
 2011 1171 0A       		.uleb128 0xa
 2012 1172 B9000000 		.secrel32	.LASF8
 2013 1176 09       		.byte	0x9
 2014 1177 5E       		.byte	0x5e
 2015 1178 09       		.byte	0x9
 2016 1179 F0000000 		.long	0xf0
 2017 117d 58       		.byte	0x58
 2018 117e 00       		.byte	0
 2019 117f 09       		.uleb128 0x9
 2020 1180 62100000 		.long	0x1062
 2021 1184 3F       		.uleb128 0x3f
 2022 1185 53444C5F 		.ascii "SDL_BlitMap\0"
 2022      426C6974 
 2022      4D617000 
 2023 1191 09       		.uleb128 0x9
 2024 1192 84110000 		.long	0x1184
 2025 1196 11       		.uleb128 0x11
 2026 1197 1A000000 		.secrel32	.LASF12
 2027 119b 09       		.byte	0x9
 2028 119c 5F       		.byte	0x5f
 2029 119d 03       		.byte	0x3
 2030 119e B9100000 		.long	0x10b9
 2031 11a2 11       		.uleb128 0x11
 2032 11a3 39020000 		.secrel32	.LASF13
 2033 11a7 0A       		.byte	0xa
 2034 11a8 5F       		.byte	0x5f
 2035 11a9 1B       		.byte	0x1b
 2036 11aa AE110000 		.long	0x11ae
 2037 11ae 23       		.uleb128 0x23
 2038 11af 39020000 		.secrel32	.LASF13
 2039 11b3 12       		.uleb128 0x12
GAS LISTING C:\Users\lsw\AppData\Local\Temp\ccSZcLze.s 			page 75


 2040 11b4 03010000 		.long	0x103
 2041 11b8 0A       		.byte	0xa
 2042 11b9 67       		.byte	0x67
 2043 11ba 1C140000 		.long	0x141c
 2044 11be 01       		.uleb128 0x1
 2045 11bf 53444C5F 		.ascii "SDL_WINDOW_FULLSCREEN\0"
 2045      57494E44 
 2045      4F575F46 
 2045      554C4C53 
 2045      43524545 
 2046 11d5 01       		.byte	0x1
 2047 11d6 01       		.uleb128 0x1
 2048 11d7 53444C5F 		.ascii "SDL_WINDOW_OPENGL\0"
 2048      57494E44 
 2048      4F575F4F 
 2048      50454E47 
 2048      4C00
 2049 11e9 02       		.byte	0x2
 2050 11ea 01       		.uleb128 0x1
 2051 11eb 53444C5F 		.ascii "SDL_WINDOW_SHOWN\0"
 2051      57494E44 
 2051      4F575F53 
 2051      484F574E 
 2051      00
 2052 11fc 04       		.byte	0x4
 2053 11fd 01       		.uleb128 0x1
 2054 11fe 53444C5F 		.ascii "SDL_WINDOW_HIDDEN\0"
 2054      57494E44 
 2054      4F575F48 
 2054      49444445 
 2054      4E00
 2055 1210 08       		.byte	0x8
 2056 1211 01       		.uleb128 0x1
 2057 1212 53444C5F 		.ascii "SDL_WINDOW_BORDERLESS\0"
 2057      57494E44 
 2057      4F575F42 
 2057      4F524445 
 2057      524C4553 
 2058 1228 10       		.byte	0x10
 2059 1229 01       		.uleb128 0x1
 2060 122a 53444C5F 		.ascii "SDL_WINDOW_RESIZABLE\0"
 2060      57494E44 
 2060      4F575F52 
 2060      4553495A 
 2060      41424C45 
 2061 123f 20       		.byte	0x20
 2062 1240 01       		.uleb128 0x1
 2063 1241 53444C5F 		.ascii "SDL_WINDOW_MINIMIZED\0"
 2063      57494E44 
 2063      4F575F4D 
 2063      494E494D 
 2063      495A4544 
 2064 1256 40       		.byte	0x40
 2065 1257 01       		.uleb128 0x1
 2066 1258 53444C5F 		.ascii "SDL_WINDOW_MAXIMIZED\0"
 2066      57494E44 
 2066      4F575F4D 
GAS LISTING C:\Users\lsw\AppData\Local\Temp\ccSZcLze.s 			page 76


 2066      4158494D 
 2066      495A4544 
 2067 126d 80       		.byte	0x80
 2068 126e 08       		.uleb128 0x8
 2069 126f 53444C5F 		.ascii "SDL_WINDOW_MOUSE_GRABBED\0"
 2069      57494E44 
 2069      4F575F4D 
 2069      4F555345 
 2069      5F475241 
 2070 1288 0001     		.word	0x100
 2071 128a 08       		.uleb128 0x8
 2072 128b 53444C5F 		.ascii "SDL_WINDOW_INPUT_FOCUS\0"
 2072      57494E44 
 2072      4F575F49 
 2072      4E505554 
 2072      5F464F43 
 2073 12a2 0002     		.word	0x200
 2074 12a4 08       		.uleb128 0x8
 2075 12a5 53444C5F 		.ascii "SDL_WINDOW_MOUSE_FOCUS\0"
 2075      57494E44 
 2075      4F575F4D 
 2075      4F555345 
 2075      5F464F43 
 2076 12bc 0004     		.word	0x400
 2077 12be 08       		.uleb128 0x8
 2078 12bf 53444C5F 		.ascii "SDL_WINDOW_FULLSCREEN_DESKTOP\0"
 2078      57494E44 
 2078      4F575F46 
 2078      554C4C53 
 2078      43524545 
 2079 12dd 0110     		.word	0x1001
 2080 12df 08       		.uleb128 0x8
 2081 12e0 53444C5F 		.ascii "SDL_WINDOW_FOREIGN\0"
 2081      57494E44 
 2081      4F575F46 
 2081      4F524549 
 2081      474E00
 2082 12f3 0008     		.word	0x800
 2083 12f5 08       		.uleb128 0x8
 2084 12f6 53444C5F 		.ascii "SDL_WINDOW_ALLOW_HIGHDPI\0"
 2084      57494E44 
 2084      4F575F41 
 2084      4C4C4F57 
 2084      5F484947 
 2085 130f 0020     		.word	0x2000
 2086 1311 08       		.uleb128 0x8
 2087 1312 53444C5F 		.ascii "SDL_WINDOW_MOUSE_CAPTURE\0"
 2087      57494E44 
 2087      4F575F4D 
 2087      4F555345 
 2087      5F434150 
 2088 132b 0040     		.word	0x4000
 2089 132d 08       		.uleb128 0x8
 2090 132e 53444C5F 		.ascii "SDL_WINDOW_ALWAYS_ON_TOP\0"
 2090      57494E44 
 2090      4F575F41 
 2090      4C574159 
GAS LISTING C:\Users\lsw\AppData\Local\Temp\ccSZcLze.s 			page 77


 2090      535F4F4E 
 2091 1347 0080     		.word	0x8000
 2092 1349 05       		.uleb128 0x5
 2093 134a 53444C5F 		.ascii "SDL_WINDOW_SKIP_TASKBAR\0"
 2093      57494E44 
 2093      4F575F53 
 2093      4B49505F 
 2093      5441534B 
 2094 1362 00000100 		.long	0x10000
 2095 1366 05       		.uleb128 0x5
 2096 1367 53444C5F 		.ascii "SDL_WINDOW_UTILITY\0"
 2096      57494E44 
 2096      4F575F55 
 2096      54494C49 
 2096      545900
 2097 137a 00000200 		.long	0x20000
 2098 137e 05       		.uleb128 0x5
 2099 137f 53444C5F 		.ascii "SDL_WINDOW_TOOLTIP\0"
 2099      57494E44 
 2099      4F575F54 
 2099      4F4F4C54 
 2099      495000
 2100 1392 00000400 		.long	0x40000
 2101 1396 05       		.uleb128 0x5
 2102 1397 53444C5F 		.ascii "SDL_WINDOW_POPUP_MENU\0"
 2102      57494E44 
 2102      4F575F50 
 2102      4F505550 
 2102      5F4D454E 
 2103 13ad 00000800 		.long	0x80000
 2104 13b1 05       		.uleb128 0x5
 2105 13b2 53444C5F 		.ascii "SDL_WINDOW_KEYBOARD_GRABBED\0"
 2105      57494E44 
 2105      4F575F4B 
 2105      4559424F 
 2105      4152445F 
 2106 13ce 00001000 		.long	0x100000
 2107 13d2 05       		.uleb128 0x5
 2108 13d3 53444C5F 		.ascii "SDL_WINDOW_VULKAN\0"
 2108      57494E44 
 2108      4F575F56 
 2108      554C4B41 
 2108      4E00
 2109 13e5 00000010 		.long	0x10000000
 2110 13e9 05       		.uleb128 0x5
 2111 13ea 53444C5F 		.ascii "SDL_WINDOW_METAL\0"
 2111      57494E44 
 2111      4F575F4D 
 2111      4554414C 
 2111      00
 2112 13fb 00000020 		.long	0x20000000
 2113 13ff 08       		.uleb128 0x8
 2114 1400 53444C5F 		.ascii "SDL_WINDOW_INPUT_GRABBED\0"
 2114      57494E44 
 2114      4F575F49 
 2114      4E505554 
 2114      5F475241 
GAS LISTING C:\Users\lsw\AppData\Local\Temp\ccSZcLze.s 			page 78


 2115 1419 0001     		.word	0x100
 2116 141b 00       		.byte	0
 2117 141c 09       		.uleb128 0x9
 2118 141d A2110000 		.long	0x11a2
 2119 1421 12       		.uleb128 0x12
 2120 1422 03010000 		.long	0x103
 2121 1426 0B       		.byte	0xb
 2122 1427 2C       		.byte	0x2c
 2123 1428 A0290000 		.long	0x29a0
 2124 142c 01       		.uleb128 0x1
 2125 142d 53444C5F 		.ascii "SDL_SCANCODE_UNKNOWN\0"
 2125      5343414E 
 2125      434F4445 
 2125      5F554E4B 
 2125      4E4F574E 
 2126 1442 00       		.byte	0
 2127 1443 01       		.uleb128 0x1
 2128 1444 53444C5F 		.ascii "SDL_SCANCODE_A\0"
 2128      5343414E 
 2128      434F4445 
 2128      5F4100
 2129 1453 04       		.byte	0x4
 2130 1454 01       		.uleb128 0x1
 2131 1455 53444C5F 		.ascii "SDL_SCANCODE_B\0"
 2131      5343414E 
 2131      434F4445 
 2131      5F4200
 2132 1464 05       		.byte	0x5
 2133 1465 01       		.uleb128 0x1
 2134 1466 53444C5F 		.ascii "SDL_SCANCODE_C\0"
 2134      5343414E 
 2134      434F4445 
 2134      5F4300
 2135 1475 06       		.byte	0x6
 2136 1476 01       		.uleb128 0x1
 2137 1477 53444C5F 		.ascii "SDL_SCANCODE_D\0"
 2137      5343414E 
 2137      434F4445 
 2137      5F4400
 2138 1486 07       		.byte	0x7
 2139 1487 01       		.uleb128 0x1
 2140 1488 53444C5F 		.ascii "SDL_SCANCODE_E\0"
 2140      5343414E 
 2140      434F4445 
 2140      5F4500
 2141 1497 08       		.byte	0x8
 2142 1498 01       		.uleb128 0x1
 2143 1499 53444C5F 		.ascii "SDL_SCANCODE_F\0"
 2143      5343414E 
 2143      434F4445 
 2143      5F4600
 2144 14a8 09       		.byte	0x9
 2145 14a9 01       		.uleb128 0x1
 2146 14aa 53444C5F 		.ascii "SDL_SCANCODE_G\0"
 2146      5343414E 
 2146      434F4445 
 2146      5F4700
GAS LISTING C:\Users\lsw\AppData\Local\Temp\ccSZcLze.s 			page 79


 2147 14b9 0A       		.byte	0xa
 2148 14ba 01       		.uleb128 0x1
 2149 14bb 53444C5F 		.ascii "SDL_SCANCODE_H\0"
 2149      5343414E 
 2149      434F4445 
 2149      5F4800
 2150 14ca 0B       		.byte	0xb
 2151 14cb 01       		.uleb128 0x1
 2152 14cc 53444C5F 		.ascii "SDL_SCANCODE_I\0"
 2152      5343414E 
 2152      434F4445 
 2152      5F4900
 2153 14db 0C       		.byte	0xc
 2154 14dc 01       		.uleb128 0x1
 2155 14dd 53444C5F 		.ascii "SDL_SCANCODE_J\0"
 2155      5343414E 
 2155      434F4445 
 2155      5F4A00
 2156 14ec 0D       		.byte	0xd
 2157 14ed 01       		.uleb128 0x1
 2158 14ee 53444C5F 		.ascii "SDL_SCANCODE_K\0"
 2158      5343414E 
 2158      434F4445 
 2158      5F4B00
 2159 14fd 0E       		.byte	0xe
 2160 14fe 01       		.uleb128 0x1
 2161 14ff 53444C5F 		.ascii "SDL_SCANCODE_L\0"
 2161      5343414E 
 2161      434F4445 
 2161      5F4C00
 2162 150e 0F       		.byte	0xf
 2163 150f 01       		.uleb128 0x1
 2164 1510 53444C5F 		.ascii "SDL_SCANCODE_M\0"
 2164      5343414E 
 2164      434F4445 
 2164      5F4D00
 2165 151f 10       		.byte	0x10
 2166 1520 01       		.uleb128 0x1
 2167 1521 53444C5F 		.ascii "SDL_SCANCODE_N\0"
 2167      5343414E 
 2167      434F4445 
 2167      5F4E00
 2168 1530 11       		.byte	0x11
 2169 1531 01       		.uleb128 0x1
 2170 1532 53444C5F 		.ascii "SDL_SCANCODE_O\0"
 2170      5343414E 
 2170      434F4445 
 2170      5F4F00
 2171 1541 12       		.byte	0x12
 2172 1542 01       		.uleb128 0x1
 2173 1543 53444C5F 		.ascii "SDL_SCANCODE_P\0"
 2173      5343414E 
 2173      434F4445 
 2173      5F5000
 2174 1552 13       		.byte	0x13
 2175 1553 01       		.uleb128 0x1
 2176 1554 53444C5F 		.ascii "SDL_SCANCODE_Q\0"
GAS LISTING C:\Users\lsw\AppData\Local\Temp\ccSZcLze.s 			page 80


 2176      5343414E 
 2176      434F4445 
 2176      5F5100
 2177 1563 14       		.byte	0x14
 2178 1564 01       		.uleb128 0x1
 2179 1565 53444C5F 		.ascii "SDL_SCANCODE_R\0"
 2179      5343414E 
 2179      434F4445 
 2179      5F5200
 2180 1574 15       		.byte	0x15
 2181 1575 01       		.uleb128 0x1
 2182 1576 53444C5F 		.ascii "SDL_SCANCODE_S\0"
 2182      5343414E 
 2182      434F4445 
 2182      5F5300
 2183 1585 16       		.byte	0x16
 2184 1586 01       		.uleb128 0x1
 2185 1587 53444C5F 		.ascii "SDL_SCANCODE_T\0"
 2185      5343414E 
 2185      434F4445 
 2185      5F5400
 2186 1596 17       		.byte	0x17
 2187 1597 01       		.uleb128 0x1
 2188 1598 53444C5F 		.ascii "SDL_SCANCODE_U\0"
 2188      5343414E 
 2188      434F4445 
 2188      5F5500
 2189 15a7 18       		.byte	0x18
 2190 15a8 01       		.uleb128 0x1
 2191 15a9 53444C5F 		.ascii "SDL_SCANCODE_V\0"
 2191      5343414E 
 2191      434F4445 
 2191      5F5600
 2192 15b8 19       		.byte	0x19
 2193 15b9 01       		.uleb128 0x1
 2194 15ba 53444C5F 		.ascii "SDL_SCANCODE_W\0"
 2194      5343414E 
 2194      434F4445 
 2194      5F5700
 2195 15c9 1A       		.byte	0x1a
 2196 15ca 01       		.uleb128 0x1
 2197 15cb 53444C5F 		.ascii "SDL_SCANCODE_X\0"
 2197      5343414E 
 2197      434F4445 
 2197      5F5800
 2198 15da 1B       		.byte	0x1b
 2199 15db 01       		.uleb128 0x1
 2200 15dc 53444C5F 		.ascii "SDL_SCANCODE_Y\0"
 2200      5343414E 
 2200      434F4445 
 2200      5F5900
 2201 15eb 1C       		.byte	0x1c
 2202 15ec 01       		.uleb128 0x1
 2203 15ed 53444C5F 		.ascii "SDL_SCANCODE_Z\0"
 2203      5343414E 
 2203      434F4445 
 2203      5F5A00
GAS LISTING C:\Users\lsw\AppData\Local\Temp\ccSZcLze.s 			page 81


 2204 15fc 1D       		.byte	0x1d
 2205 15fd 01       		.uleb128 0x1
 2206 15fe 53444C5F 		.ascii "SDL_SCANCODE_1\0"
 2206      5343414E 
 2206      434F4445 
 2206      5F3100
 2207 160d 1E       		.byte	0x1e
 2208 160e 01       		.uleb128 0x1
 2209 160f 53444C5F 		.ascii "SDL_SCANCODE_2\0"
 2209      5343414E 
 2209      434F4445 
 2209      5F3200
 2210 161e 1F       		.byte	0x1f
 2211 161f 01       		.uleb128 0x1
 2212 1620 53444C5F 		.ascii "SDL_SCANCODE_3\0"
 2212      5343414E 
 2212      434F4445 
 2212      5F3300
 2213 162f 20       		.byte	0x20
 2214 1630 01       		.uleb128 0x1
 2215 1631 53444C5F 		.ascii "SDL_SCANCODE_4\0"
 2215      5343414E 
 2215      434F4445 
 2215      5F3400
 2216 1640 21       		.byte	0x21
 2217 1641 01       		.uleb128 0x1
 2218 1642 53444C5F 		.ascii "SDL_SCANCODE_5\0"
 2218      5343414E 
 2218      434F4445 
 2218      5F3500
 2219 1651 22       		.byte	0x22
 2220 1652 01       		.uleb128 0x1
 2221 1653 53444C5F 		.ascii "SDL_SCANCODE_6\0"
 2221      5343414E 
 2221      434F4445 
 2221      5F3600
 2222 1662 23       		.byte	0x23
 2223 1663 01       		.uleb128 0x1
 2224 1664 53444C5F 		.ascii "SDL_SCANCODE_7\0"
 2224      5343414E 
 2224      434F4445 
 2224      5F3700
 2225 1673 24       		.byte	0x24
 2226 1674 01       		.uleb128 0x1
 2227 1675 53444C5F 		.ascii "SDL_SCANCODE_8\0"
 2227      5343414E 
 2227      434F4445 
 2227      5F3800
 2228 1684 25       		.byte	0x25
 2229 1685 01       		.uleb128 0x1
 2230 1686 53444C5F 		.ascii "SDL_SCANCODE_9\0"
 2230      5343414E 
 2230      434F4445 
 2230      5F3900
 2231 1695 26       		.byte	0x26
 2232 1696 01       		.uleb128 0x1
 2233 1697 53444C5F 		.ascii "SDL_SCANCODE_0\0"
GAS LISTING C:\Users\lsw\AppData\Local\Temp\ccSZcLze.s 			page 82


 2233      5343414E 
 2233      434F4445 
 2233      5F3000
 2234 16a6 27       		.byte	0x27
 2235 16a7 01       		.uleb128 0x1
 2236 16a8 53444C5F 		.ascii "SDL_SCANCODE_RETURN\0"
 2236      5343414E 
 2236      434F4445 
 2236      5F524554 
 2236      55524E00 
 2237 16bc 28       		.byte	0x28
 2238 16bd 01       		.uleb128 0x1
 2239 16be 53444C5F 		.ascii "SDL_SCANCODE_ESCAPE\0"
 2239      5343414E 
 2239      434F4445 
 2239      5F455343 
 2239      41504500 
 2240 16d2 29       		.byte	0x29
 2241 16d3 01       		.uleb128 0x1
 2242 16d4 53444C5F 		.ascii "SDL_SCANCODE_BACKSPACE\0"
 2242      5343414E 
 2242      434F4445 
 2242      5F424143 
 2242      4B535041 
 2243 16eb 2A       		.byte	0x2a
 2244 16ec 01       		.uleb128 0x1
 2245 16ed 53444C5F 		.ascii "SDL_SCANCODE_TAB\0"
 2245      5343414E 
 2245      434F4445 
 2245      5F544142 
 2245      00
 2246 16fe 2B       		.byte	0x2b
 2247 16ff 01       		.uleb128 0x1
 2248 1700 53444C5F 		.ascii "SDL_SCANCODE_SPACE\0"
 2248      5343414E 
 2248      434F4445 
 2248      5F535041 
 2248      434500
 2249 1713 2C       		.byte	0x2c
 2250 1714 01       		.uleb128 0x1
 2251 1715 53444C5F 		.ascii "SDL_SCANCODE_MINUS\0"
 2251      5343414E 
 2251      434F4445 
 2251      5F4D494E 
 2251      555300
 2252 1728 2D       		.byte	0x2d
 2253 1729 01       		.uleb128 0x1
 2254 172a 53444C5F 		.ascii "SDL_SCANCODE_EQUALS\0"
 2254      5343414E 
 2254      434F4445 
 2254      5F455155 
 2254      414C5300 
 2255 173e 2E       		.byte	0x2e
 2256 173f 01       		.uleb128 0x1
 2257 1740 53444C5F 		.ascii "SDL_SCANCODE_LEFTBRACKET\0"
 2257      5343414E 
 2257      434F4445 
GAS LISTING C:\Users\lsw\AppData\Local\Temp\ccSZcLze.s 			page 83


 2257      5F4C4546 
 2257      54425241 
 2258 1759 2F       		.byte	0x2f
 2259 175a 01       		.uleb128 0x1
 2260 175b 53444C5F 		.ascii "SDL_SCANCODE_RIGHTBRACKET\0"
 2260      5343414E 
 2260      434F4445 
 2260      5F524947 
 2260      48544252 
 2261 1775 30       		.byte	0x30
 2262 1776 01       		.uleb128 0x1
 2263 1777 53444C5F 		.ascii "SDL_SCANCODE_BACKSLASH\0"
 2263      5343414E 
 2263      434F4445 
 2263      5F424143 
 2263      4B534C41 
 2264 178e 31       		.byte	0x31
 2265 178f 01       		.uleb128 0x1
 2266 1790 53444C5F 		.ascii "SDL_SCANCODE_NONUSHASH\0"
 2266      5343414E 
 2266      434F4445 
 2266      5F4E4F4E 
 2266      55534841 
 2267 17a7 32       		.byte	0x32
 2268 17a8 01       		.uleb128 0x1
 2269 17a9 53444C5F 		.ascii "SDL_SCANCODE_SEMICOLON\0"
 2269      5343414E 
 2269      434F4445 
 2269      5F53454D 
 2269      49434F4C 
 2270 17c0 33       		.byte	0x33
 2271 17c1 01       		.uleb128 0x1
 2272 17c2 53444C5F 		.ascii "SDL_SCANCODE_APOSTROPHE\0"
 2272      5343414E 
 2272      434F4445 
 2272      5F41504F 
 2272      5354524F 
 2273 17da 34       		.byte	0x34
 2274 17db 01       		.uleb128 0x1
 2275 17dc 53444C5F 		.ascii "SDL_SCANCODE_GRAVE\0"
 2275      5343414E 
 2275      434F4445 
 2275      5F475241 
 2275      564500
 2276 17ef 35       		.byte	0x35
 2277 17f0 01       		.uleb128 0x1
 2278 17f1 53444C5F 		.ascii "SDL_SCANCODE_COMMA\0"
 2278      5343414E 
 2278      434F4445 
 2278      5F434F4D 
 2278      4D4100
 2279 1804 36       		.byte	0x36
 2280 1805 01       		.uleb128 0x1
 2281 1806 53444C5F 		.ascii "SDL_SCANCODE_PERIOD\0"
 2281      5343414E 
 2281      434F4445 
 2281      5F504552 
GAS LISTING C:\Users\lsw\AppData\Local\Temp\ccSZcLze.s 			page 84


 2281      494F4400 
 2282 181a 37       		.byte	0x37
 2283 181b 01       		.uleb128 0x1
 2284 181c 53444C5F 		.ascii "SDL_SCANCODE_SLASH\0"
 2284      5343414E 
 2284      434F4445 
 2284      5F534C41 
 2284      534800
 2285 182f 38       		.byte	0x38
 2286 1830 01       		.uleb128 0x1
 2287 1831 53444C5F 		.ascii "SDL_SCANCODE_CAPSLOCK\0"
 2287      5343414E 
 2287      434F4445 
 2287      5F434150 
 2287      534C4F43 
 2288 1847 39       		.byte	0x39
 2289 1848 01       		.uleb128 0x1
 2290 1849 53444C5F 		.ascii "SDL_SCANCODE_F1\0"
 2290      5343414E 
 2290      434F4445 
 2290      5F463100 
 2291 1859 3A       		.byte	0x3a
 2292 185a 01       		.uleb128 0x1
 2293 185b 53444C5F 		.ascii "SDL_SCANCODE_F2\0"
 2293      5343414E 
 2293      434F4445 
 2293      5F463200 
 2294 186b 3B       		.byte	0x3b
 2295 186c 01       		.uleb128 0x1
 2296 186d 53444C5F 		.ascii "SDL_SCANCODE_F3\0"
 2296      5343414E 
 2296      434F4445 
 2296      5F463300 
 2297 187d 3C       		.byte	0x3c
 2298 187e 01       		.uleb128 0x1
 2299 187f 53444C5F 		.ascii "SDL_SCANCODE_F4\0"
 2299      5343414E 
 2299      434F4445 
 2299      5F463400 
 2300 188f 3D       		.byte	0x3d
 2301 1890 01       		.uleb128 0x1
 2302 1891 53444C5F 		.ascii "SDL_SCANCODE_F5\0"
 2302      5343414E 
 2302      434F4445 
 2302      5F463500 
 2303 18a1 3E       		.byte	0x3e
 2304 18a2 01       		.uleb128 0x1
 2305 18a3 53444C5F 		.ascii "SDL_SCANCODE_F6\0"
 2305      5343414E 
 2305      434F4445 
 2305      5F463600 
 2306 18b3 3F       		.byte	0x3f
 2307 18b4 01       		.uleb128 0x1
 2308 18b5 53444C5F 		.ascii "SDL_SCANCODE_F7\0"
 2308      5343414E 
 2308      434F4445 
 2308      5F463700 
GAS LISTING C:\Users\lsw\AppData\Local\Temp\ccSZcLze.s 			page 85


 2309 18c5 40       		.byte	0x40
 2310 18c6 01       		.uleb128 0x1
 2311 18c7 53444C5F 		.ascii "SDL_SCANCODE_F8\0"
 2311      5343414E 
 2311      434F4445 
 2311      5F463800 
 2312 18d7 41       		.byte	0x41
 2313 18d8 01       		.uleb128 0x1
 2314 18d9 53444C5F 		.ascii "SDL_SCANCODE_F9\0"
 2314      5343414E 
 2314      434F4445 
 2314      5F463900 
 2315 18e9 42       		.byte	0x42
 2316 18ea 01       		.uleb128 0x1
 2317 18eb 53444C5F 		.ascii "SDL_SCANCODE_F10\0"
 2317      5343414E 
 2317      434F4445 
 2317      5F463130 
 2317      00
 2318 18fc 43       		.byte	0x43
 2319 18fd 01       		.uleb128 0x1
 2320 18fe 53444C5F 		.ascii "SDL_SCANCODE_F11\0"
 2320      5343414E 
 2320      434F4445 
 2320      5F463131 
 2320      00
 2321 190f 44       		.byte	0x44
 2322 1910 01       		.uleb128 0x1
 2323 1911 53444C5F 		.ascii "SDL_SCANCODE_F12\0"
 2323      5343414E 
 2323      434F4445 
 2323      5F463132 
 2323      00
 2324 1922 45       		.byte	0x45
 2325 1923 01       		.uleb128 0x1
 2326 1924 53444C5F 		.ascii "SDL_SCANCODE_PRINTSCREEN\0"
 2326      5343414E 
 2326      434F4445 
 2326      5F505249 
 2326      4E545343 
 2327 193d 46       		.byte	0x46
 2328 193e 01       		.uleb128 0x1
 2329 193f 53444C5F 		.ascii "SDL_SCANCODE_SCROLLLOCK\0"
 2329      5343414E 
 2329      434F4445 
 2329      5F534352 
 2329      4F4C4C4C 
 2330 1957 47       		.byte	0x47
 2331 1958 01       		.uleb128 0x1
 2332 1959 53444C5F 		.ascii "SDL_SCANCODE_PAUSE\0"
 2332      5343414E 
 2332      434F4445 
 2332      5F504155 
 2332      534500
 2333 196c 48       		.byte	0x48
 2334 196d 01       		.uleb128 0x1
 2335 196e 53444C5F 		.ascii "SDL_SCANCODE_INSERT\0"
GAS LISTING C:\Users\lsw\AppData\Local\Temp\ccSZcLze.s 			page 86


 2335      5343414E 
 2335      434F4445 
 2335      5F494E53 
 2335      45525400 
 2336 1982 49       		.byte	0x49
 2337 1983 01       		.uleb128 0x1
 2338 1984 53444C5F 		.ascii "SDL_SCANCODE_HOME\0"
 2338      5343414E 
 2338      434F4445 
 2338      5F484F4D 
 2338      4500
 2339 1996 4A       		.byte	0x4a
 2340 1997 01       		.uleb128 0x1
 2341 1998 53444C5F 		.ascii "SDL_SCANCODE_PAGEUP\0"
 2341      5343414E 
 2341      434F4445 
 2341      5F504147 
 2341      45555000 
 2342 19ac 4B       		.byte	0x4b
 2343 19ad 01       		.uleb128 0x1
 2344 19ae 53444C5F 		.ascii "SDL_SCANCODE_DELETE\0"
 2344      5343414E 
 2344      434F4445 
 2344      5F44454C 
 2344      45544500 
 2345 19c2 4C       		.byte	0x4c
 2346 19c3 01       		.uleb128 0x1
 2347 19c4 53444C5F 		.ascii "SDL_SCANCODE_END\0"
 2347      5343414E 
 2347      434F4445 
 2347      5F454E44 
 2347      00
 2348 19d5 4D       		.byte	0x4d
 2349 19d6 01       		.uleb128 0x1
 2350 19d7 53444C5F 		.ascii "SDL_SCANCODE_PAGEDOWN\0"
 2350      5343414E 
 2350      434F4445 
 2350      5F504147 
 2350      45444F57 
 2351 19ed 4E       		.byte	0x4e
 2352 19ee 01       		.uleb128 0x1
 2353 19ef 53444C5F 		.ascii "SDL_SCANCODE_RIGHT\0"
 2353      5343414E 
 2353      434F4445 
 2353      5F524947 
 2353      485400
 2354 1a02 4F       		.byte	0x4f
 2355 1a03 01       		.uleb128 0x1
 2356 1a04 53444C5F 		.ascii "SDL_SCANCODE_LEFT\0"
 2356      5343414E 
 2356      434F4445 
 2356      5F4C4546 
 2356      5400
 2357 1a16 50       		.byte	0x50
 2358 1a17 01       		.uleb128 0x1
 2359 1a18 53444C5F 		.ascii "SDL_SCANCODE_DOWN\0"
 2359      5343414E 
GAS LISTING C:\Users\lsw\AppData\Local\Temp\ccSZcLze.s 			page 87


 2359      434F4445 
 2359      5F444F57 
 2359      4E00
 2360 1a2a 51       		.byte	0x51
 2361 1a2b 01       		.uleb128 0x1
 2362 1a2c 53444C5F 		.ascii "SDL_SCANCODE_UP\0"
 2362      5343414E 
 2362      434F4445 
 2362      5F555000 
 2363 1a3c 52       		.byte	0x52
 2364 1a3d 01       		.uleb128 0x1
 2365 1a3e 53444C5F 		.ascii "SDL_SCANCODE_NUMLOCKCLEAR\0"
 2365      5343414E 
 2365      434F4445 
 2365      5F4E554D 
 2365      4C4F434B 
 2366 1a58 53       		.byte	0x53
 2367 1a59 01       		.uleb128 0x1
 2368 1a5a 53444C5F 		.ascii "SDL_SCANCODE_KP_DIVIDE\0"
 2368      5343414E 
 2368      434F4445 
 2368      5F4B505F 
 2368      44495649 
 2369 1a71 54       		.byte	0x54
 2370 1a72 01       		.uleb128 0x1
 2371 1a73 53444C5F 		.ascii "SDL_SCANCODE_KP_MULTIPLY\0"
 2371      5343414E 
 2371      434F4445 
 2371      5F4B505F 
 2371      4D554C54 
 2372 1a8c 55       		.byte	0x55
 2373 1a8d 01       		.uleb128 0x1
 2374 1a8e 53444C5F 		.ascii "SDL_SCANCODE_KP_MINUS\0"
 2374      5343414E 
 2374      434F4445 
 2374      5F4B505F 
 2374      4D494E55 
 2375 1aa4 56       		.byte	0x56
 2376 1aa5 01       		.uleb128 0x1
 2377 1aa6 53444C5F 		.ascii "SDL_SCANCODE_KP_PLUS\0"
 2377      5343414E 
 2377      434F4445 
 2377      5F4B505F 
 2377      504C5553 
 2378 1abb 57       		.byte	0x57
 2379 1abc 01       		.uleb128 0x1
 2380 1abd 53444C5F 		.ascii "SDL_SCANCODE_KP_ENTER\0"
 2380      5343414E 
 2380      434F4445 
 2380      5F4B505F 
 2380      454E5445 
 2381 1ad3 58       		.byte	0x58
 2382 1ad4 01       		.uleb128 0x1
 2383 1ad5 53444C5F 		.ascii "SDL_SCANCODE_KP_1\0"
 2383      5343414E 
 2383      434F4445 
 2383      5F4B505F 
GAS LISTING C:\Users\lsw\AppData\Local\Temp\ccSZcLze.s 			page 88


 2383      3100
 2384 1ae7 59       		.byte	0x59
 2385 1ae8 01       		.uleb128 0x1
 2386 1ae9 53444C5F 		.ascii "SDL_SCANCODE_KP_2\0"
 2386      5343414E 
 2386      434F4445 
 2386      5F4B505F 
 2386      3200
 2387 1afb 5A       		.byte	0x5a
 2388 1afc 01       		.uleb128 0x1
 2389 1afd 53444C5F 		.ascii "SDL_SCANCODE_KP_3\0"
 2389      5343414E 
 2389      434F4445 
 2389      5F4B505F 
 2389      3300
 2390 1b0f 5B       		.byte	0x5b
 2391 1b10 01       		.uleb128 0x1
 2392 1b11 53444C5F 		.ascii "SDL_SCANCODE_KP_4\0"
 2392      5343414E 
 2392      434F4445 
 2392      5F4B505F 
 2392      3400
 2393 1b23 5C       		.byte	0x5c
 2394 1b24 01       		.uleb128 0x1
 2395 1b25 53444C5F 		.ascii "SDL_SCANCODE_KP_5\0"
 2395      5343414E 
 2395      434F4445 
 2395      5F4B505F 
 2395      3500
 2396 1b37 5D       		.byte	0x5d
 2397 1b38 01       		.uleb128 0x1
 2398 1b39 53444C5F 		.ascii "SDL_SCANCODE_KP_6\0"
 2398      5343414E 
 2398      434F4445 
 2398      5F4B505F 
 2398      3600
 2399 1b4b 5E       		.byte	0x5e
 2400 1b4c 01       		.uleb128 0x1
 2401 1b4d 53444C5F 		.ascii "SDL_SCANCODE_KP_7\0"
 2401      5343414E 
 2401      434F4445 
 2401      5F4B505F 
 2401      3700
 2402 1b5f 5F       		.byte	0x5f
 2403 1b60 01       		.uleb128 0x1
 2404 1b61 53444C5F 		.ascii "SDL_SCANCODE_KP_8\0"
 2404      5343414E 
 2404      434F4445 
 2404      5F4B505F 
 2404      3800
 2405 1b73 60       		.byte	0x60
 2406 1b74 01       		.uleb128 0x1
 2407 1b75 53444C5F 		.ascii "SDL_SCANCODE_KP_9\0"
 2407      5343414E 
 2407      434F4445 
 2407      5F4B505F 
 2407      3900
GAS LISTING C:\Users\lsw\AppData\Local\Temp\ccSZcLze.s 			page 89


 2408 1b87 61       		.byte	0x61
 2409 1b88 01       		.uleb128 0x1
 2410 1b89 53444C5F 		.ascii "SDL_SCANCODE_KP_0\0"
 2410      5343414E 
 2410      434F4445 
 2410      5F4B505F 
 2410      3000
 2411 1b9b 62       		.byte	0x62
 2412 1b9c 01       		.uleb128 0x1
 2413 1b9d 53444C5F 		.ascii "SDL_SCANCODE_KP_PERIOD\0"
 2413      5343414E 
 2413      434F4445 
 2413      5F4B505F 
 2413      50455249 
 2414 1bb4 63       		.byte	0x63
 2415 1bb5 01       		.uleb128 0x1
 2416 1bb6 53444C5F 		.ascii "SDL_SCANCODE_NONUSBACKSLASH\0"
 2416      5343414E 
 2416      434F4445 
 2416      5F4E4F4E 
 2416      55534241 
 2417 1bd2 64       		.byte	0x64
 2418 1bd3 01       		.uleb128 0x1
 2419 1bd4 53444C5F 		.ascii "SDL_SCANCODE_APPLICATION\0"
 2419      5343414E 
 2419      434F4445 
 2419      5F415050 
 2419      4C494341 
 2420 1bed 65       		.byte	0x65
 2421 1bee 01       		.uleb128 0x1
 2422 1bef 53444C5F 		.ascii "SDL_SCANCODE_POWER\0"
 2422      5343414E 
 2422      434F4445 
 2422      5F504F57 
 2422      455200
 2423 1c02 66       		.byte	0x66
 2424 1c03 01       		.uleb128 0x1
 2425 1c04 53444C5F 		.ascii "SDL_SCANCODE_KP_EQUALS\0"
 2425      5343414E 
 2425      434F4445 
 2425      5F4B505F 
 2425      45515541 
 2426 1c1b 67       		.byte	0x67
 2427 1c1c 01       		.uleb128 0x1
 2428 1c1d 53444C5F 		.ascii "SDL_SCANCODE_F13\0"
 2428      5343414E 
 2428      434F4445 
 2428      5F463133 
 2428      00
 2429 1c2e 68       		.byte	0x68
 2430 1c2f 01       		.uleb128 0x1
 2431 1c30 53444C5F 		.ascii "SDL_SCANCODE_F14\0"
 2431      5343414E 
 2431      434F4445 
 2431      5F463134 
 2431      00
 2432 1c41 69       		.byte	0x69
GAS LISTING C:\Users\lsw\AppData\Local\Temp\ccSZcLze.s 			page 90


 2433 1c42 01       		.uleb128 0x1
 2434 1c43 53444C5F 		.ascii "SDL_SCANCODE_F15\0"
 2434      5343414E 
 2434      434F4445 
 2434      5F463135 
 2434      00
 2435 1c54 6A       		.byte	0x6a
 2436 1c55 01       		.uleb128 0x1
 2437 1c56 53444C5F 		.ascii "SDL_SCANCODE_F16\0"
 2437      5343414E 
 2437      434F4445 
 2437      5F463136 
 2437      00
 2438 1c67 6B       		.byte	0x6b
 2439 1c68 01       		.uleb128 0x1
 2440 1c69 53444C5F 		.ascii "SDL_SCANCODE_F17\0"
 2440      5343414E 
 2440      434F4445 
 2440      5F463137 
 2440      00
 2441 1c7a 6C       		.byte	0x6c
 2442 1c7b 01       		.uleb128 0x1
 2443 1c7c 53444C5F 		.ascii "SDL_SCANCODE_F18\0"
 2443      5343414E 
 2443      434F4445 
 2443      5F463138 
 2443      00
 2444 1c8d 6D       		.byte	0x6d
 2445 1c8e 01       		.uleb128 0x1
 2446 1c8f 53444C5F 		.ascii "SDL_SCANCODE_F19\0"
 2446      5343414E 
 2446      434F4445 
 2446      5F463139 
 2446      00
 2447 1ca0 6E       		.byte	0x6e
 2448 1ca1 01       		.uleb128 0x1
 2449 1ca2 53444C5F 		.ascii "SDL_SCANCODE_F20\0"
 2449      5343414E 
 2449      434F4445 
 2449      5F463230 
 2449      00
 2450 1cb3 6F       		.byte	0x6f
 2451 1cb4 01       		.uleb128 0x1
 2452 1cb5 53444C5F 		.ascii "SDL_SCANCODE_F21\0"
 2452      5343414E 
 2452      434F4445 
 2452      5F463231 
 2452      00
 2453 1cc6 70       		.byte	0x70
 2454 1cc7 01       		.uleb128 0x1
 2455 1cc8 53444C5F 		.ascii "SDL_SCANCODE_F22\0"
 2455      5343414E 
 2455      434F4445 
 2455      5F463232 
 2455      00
 2456 1cd9 71       		.byte	0x71
 2457 1cda 01       		.uleb128 0x1
GAS LISTING C:\Users\lsw\AppData\Local\Temp\ccSZcLze.s 			page 91


 2458 1cdb 53444C5F 		.ascii "SDL_SCANCODE_F23\0"
 2458      5343414E 
 2458      434F4445 
 2458      5F463233 
 2458      00
 2459 1cec 72       		.byte	0x72
 2460 1ced 01       		.uleb128 0x1
 2461 1cee 53444C5F 		.ascii "SDL_SCANCODE_F24\0"
 2461      5343414E 
 2461      434F4445 
 2461      5F463234 
 2461      00
 2462 1cff 73       		.byte	0x73
 2463 1d00 01       		.uleb128 0x1
 2464 1d01 53444C5F 		.ascii "SDL_SCANCODE_EXECUTE\0"
 2464      5343414E 
 2464      434F4445 
 2464      5F455845 
 2464      43555445 
 2465 1d16 74       		.byte	0x74
 2466 1d17 01       		.uleb128 0x1
 2467 1d18 53444C5F 		.ascii "SDL_SCANCODE_HELP\0"
 2467      5343414E 
 2467      434F4445 
 2467      5F48454C 
 2467      5000
 2468 1d2a 75       		.byte	0x75
 2469 1d2b 01       		.uleb128 0x1
 2470 1d2c 53444C5F 		.ascii "SDL_SCANCODE_MENU\0"
 2470      5343414E 
 2470      434F4445 
 2470      5F4D454E 
 2470      5500
 2471 1d3e 76       		.byte	0x76
 2472 1d3f 01       		.uleb128 0x1
 2473 1d40 53444C5F 		.ascii "SDL_SCANCODE_SELECT\0"
 2473      5343414E 
 2473      434F4445 
 2473      5F53454C 
 2473      45435400 
 2474 1d54 77       		.byte	0x77
 2475 1d55 01       		.uleb128 0x1
 2476 1d56 53444C5F 		.ascii "SDL_SCANCODE_STOP\0"
 2476      5343414E 
 2476      434F4445 
 2476      5F53544F 
 2476      5000
 2477 1d68 78       		.byte	0x78
 2478 1d69 01       		.uleb128 0x1
 2479 1d6a 53444C5F 		.ascii "SDL_SCANCODE_AGAIN\0"
 2479      5343414E 
 2479      434F4445 
 2479      5F414741 
 2479      494E00
 2480 1d7d 79       		.byte	0x79
 2481 1d7e 01       		.uleb128 0x1
 2482 1d7f 53444C5F 		.ascii "SDL_SCANCODE_UNDO\0"
GAS LISTING C:\Users\lsw\AppData\Local\Temp\ccSZcLze.s 			page 92


 2482      5343414E 
 2482      434F4445 
 2482      5F554E44 
 2482      4F00
 2483 1d91 7A       		.byte	0x7a
 2484 1d92 01       		.uleb128 0x1
 2485 1d93 53444C5F 		.ascii "SDL_SCANCODE_CUT\0"
 2485      5343414E 
 2485      434F4445 
 2485      5F435554 
 2485      00
 2486 1da4 7B       		.byte	0x7b
 2487 1da5 01       		.uleb128 0x1
 2488 1da6 53444C5F 		.ascii "SDL_SCANCODE_COPY\0"
 2488      5343414E 
 2488      434F4445 
 2488      5F434F50 
 2488      5900
 2489 1db8 7C       		.byte	0x7c
 2490 1db9 01       		.uleb128 0x1
 2491 1dba 53444C5F 		.ascii "SDL_SCANCODE_PASTE\0"
 2491      5343414E 
 2491      434F4445 
 2491      5F504153 
 2491      544500
 2492 1dcd 7D       		.byte	0x7d
 2493 1dce 01       		.uleb128 0x1
 2494 1dcf 53444C5F 		.ascii "SDL_SCANCODE_FIND\0"
 2494      5343414E 
 2494      434F4445 
 2494      5F46494E 
 2494      4400
 2495 1de1 7E       		.byte	0x7e
 2496 1de2 01       		.uleb128 0x1
 2497 1de3 53444C5F 		.ascii "SDL_SCANCODE_MUTE\0"
 2497      5343414E 
 2497      434F4445 
 2497      5F4D5554 
 2497      4500
 2498 1df5 7F       		.byte	0x7f
 2499 1df6 01       		.uleb128 0x1
 2500 1df7 53444C5F 		.ascii "SDL_SCANCODE_VOLUMEUP\0"
 2500      5343414E 
 2500      434F4445 
 2500      5F564F4C 
 2500      554D4555 
 2501 1e0d 80       		.byte	0x80
 2502 1e0e 01       		.uleb128 0x1
 2503 1e0f 53444C5F 		.ascii "SDL_SCANCODE_VOLUMEDOWN\0"
 2503      5343414E 
 2503      434F4445 
 2503      5F564F4C 
 2503      554D4544 
 2504 1e27 81       		.byte	0x81
 2505 1e28 01       		.uleb128 0x1
 2506 1e29 53444C5F 		.ascii "SDL_SCANCODE_KP_COMMA\0"
 2506      5343414E 
GAS LISTING C:\Users\lsw\AppData\Local\Temp\ccSZcLze.s 			page 93


 2506      434F4445 
 2506      5F4B505F 
 2506      434F4D4D 
 2507 1e3f 85       		.byte	0x85
 2508 1e40 01       		.uleb128 0x1
 2509 1e41 53444C5F 		.ascii "SDL_SCANCODE_KP_EQUALSAS400\0"
 2509      5343414E 
 2509      434F4445 
 2509      5F4B505F 
 2509      45515541 
 2510 1e5d 86       		.byte	0x86
 2511 1e5e 01       		.uleb128 0x1
 2512 1e5f 53444C5F 		.ascii "SDL_SCANCODE_INTERNATIONAL1\0"
 2512      5343414E 
 2512      434F4445 
 2512      5F494E54 
 2512      45524E41 
 2513 1e7b 87       		.byte	0x87
 2514 1e7c 01       		.uleb128 0x1
 2515 1e7d 53444C5F 		.ascii "SDL_SCANCODE_INTERNATIONAL2\0"
 2515      5343414E 
 2515      434F4445 
 2515      5F494E54 
 2515      45524E41 
 2516 1e99 88       		.byte	0x88
 2517 1e9a 01       		.uleb128 0x1
 2518 1e9b 53444C5F 		.ascii "SDL_SCANCODE_INTERNATIONAL3\0"
 2518      5343414E 
 2518      434F4445 
 2518      5F494E54 
 2518      45524E41 
 2519 1eb7 89       		.byte	0x89
 2520 1eb8 01       		.uleb128 0x1
 2521 1eb9 53444C5F 		.ascii "SDL_SCANCODE_INTERNATIONAL4\0"
 2521      5343414E 
 2521      434F4445 
 2521      5F494E54 
 2521      45524E41 
 2522 1ed5 8A       		.byte	0x8a
 2523 1ed6 01       		.uleb128 0x1
 2524 1ed7 53444C5F 		.ascii "SDL_SCANCODE_INTERNATIONAL5\0"
 2524      5343414E 
 2524      434F4445 
 2524      5F494E54 
 2524      45524E41 
 2525 1ef3 8B       		.byte	0x8b
 2526 1ef4 01       		.uleb128 0x1
 2527 1ef5 53444C5F 		.ascii "SDL_SCANCODE_INTERNATIONAL6\0"
 2527      5343414E 
 2527      434F4445 
 2527      5F494E54 
 2527      45524E41 
 2528 1f11 8C       		.byte	0x8c
 2529 1f12 01       		.uleb128 0x1
 2530 1f13 53444C5F 		.ascii "SDL_SCANCODE_INTERNATIONAL7\0"
 2530      5343414E 
 2530      434F4445 
GAS LISTING C:\Users\lsw\AppData\Local\Temp\ccSZcLze.s 			page 94


 2530      5F494E54 
 2530      45524E41 
 2531 1f2f 8D       		.byte	0x8d
 2532 1f30 01       		.uleb128 0x1
 2533 1f31 53444C5F 		.ascii "SDL_SCANCODE_INTERNATIONAL8\0"
 2533      5343414E 
 2533      434F4445 
 2533      5F494E54 
 2533      45524E41 
 2534 1f4d 8E       		.byte	0x8e
 2535 1f4e 01       		.uleb128 0x1
 2536 1f4f 53444C5F 		.ascii "SDL_SCANCODE_INTERNATIONAL9\0"
 2536      5343414E 
 2536      434F4445 
 2536      5F494E54 
 2536      45524E41 
 2537 1f6b 8F       		.byte	0x8f
 2538 1f6c 01       		.uleb128 0x1
 2539 1f6d 53444C5F 		.ascii "SDL_SCANCODE_LANG1\0"
 2539      5343414E 
 2539      434F4445 
 2539      5F4C414E 
 2539      473100
 2540 1f80 90       		.byte	0x90
 2541 1f81 01       		.uleb128 0x1
 2542 1f82 53444C5F 		.ascii "SDL_SCANCODE_LANG2\0"
 2542      5343414E 
 2542      434F4445 
 2542      5F4C414E 
 2542      473200
 2543 1f95 91       		.byte	0x91
 2544 1f96 01       		.uleb128 0x1
 2545 1f97 53444C5F 		.ascii "SDL_SCANCODE_LANG3\0"
 2545      5343414E 
 2545      434F4445 
 2545      5F4C414E 
 2545      473300
 2546 1faa 92       		.byte	0x92
 2547 1fab 01       		.uleb128 0x1
 2548 1fac 53444C5F 		.ascii "SDL_SCANCODE_LANG4\0"
 2548      5343414E 
 2548      434F4445 
 2548      5F4C414E 
 2548      473400
 2549 1fbf 93       		.byte	0x93
 2550 1fc0 01       		.uleb128 0x1
 2551 1fc1 53444C5F 		.ascii "SDL_SCANCODE_LANG5\0"
 2551      5343414E 
 2551      434F4445 
 2551      5F4C414E 
 2551      473500
 2552 1fd4 94       		.byte	0x94
 2553 1fd5 01       		.uleb128 0x1
 2554 1fd6 53444C5F 		.ascii "SDL_SCANCODE_LANG6\0"
 2554      5343414E 
 2554      434F4445 
 2554      5F4C414E 
GAS LISTING C:\Users\lsw\AppData\Local\Temp\ccSZcLze.s 			page 95


 2554      473600
 2555 1fe9 95       		.byte	0x95
 2556 1fea 01       		.uleb128 0x1
 2557 1feb 53444C5F 		.ascii "SDL_SCANCODE_LANG7\0"
 2557      5343414E 
 2557      434F4445 
 2557      5F4C414E 
 2557      473700
 2558 1ffe 96       		.byte	0x96
 2559 1fff 01       		.uleb128 0x1
 2560 2000 53444C5F 		.ascii "SDL_SCANCODE_LANG8\0"
 2560      5343414E 
 2560      434F4445 
 2560      5F4C414E 
 2560      473800
 2561 2013 97       		.byte	0x97
 2562 2014 01       		.uleb128 0x1
 2563 2015 53444C5F 		.ascii "SDL_SCANCODE_LANG9\0"
 2563      5343414E 
 2563      434F4445 
 2563      5F4C414E 
 2563      473900
 2564 2028 98       		.byte	0x98
 2565 2029 01       		.uleb128 0x1
 2566 202a 53444C5F 		.ascii "SDL_SCANCODE_ALTERASE\0"
 2566      5343414E 
 2566      434F4445 
 2566      5F414C54 
 2566      45524153 
 2567 2040 99       		.byte	0x99
 2568 2041 01       		.uleb128 0x1
 2569 2042 53444C5F 		.ascii "SDL_SCANCODE_SYSREQ\0"
 2569      5343414E 
 2569      434F4445 
 2569      5F535953 
 2569      52455100 
 2570 2056 9A       		.byte	0x9a
 2571 2057 01       		.uleb128 0x1
 2572 2058 53444C5F 		.ascii "SDL_SCANCODE_CANCEL\0"
 2572      5343414E 
 2572      434F4445 
 2572      5F43414E 
 2572      43454C00 
 2573 206c 9B       		.byte	0x9b
 2574 206d 01       		.uleb128 0x1
 2575 206e 53444C5F 		.ascii "SDL_SCANCODE_CLEAR\0"
 2575      5343414E 
 2575      434F4445 
 2575      5F434C45 
 2575      415200
 2576 2081 9C       		.byte	0x9c
 2577 2082 01       		.uleb128 0x1
 2578 2083 53444C5F 		.ascii "SDL_SCANCODE_PRIOR\0"
 2578      5343414E 
 2578      434F4445 
 2578      5F505249 
 2578      4F5200
GAS LISTING C:\Users\lsw\AppData\Local\Temp\ccSZcLze.s 			page 96


 2579 2096 9D       		.byte	0x9d
 2580 2097 01       		.uleb128 0x1
 2581 2098 53444C5F 		.ascii "SDL_SCANCODE_RETURN2\0"
 2581      5343414E 
 2581      434F4445 
 2581      5F524554 
 2581      55524E32 
 2582 20ad 9E       		.byte	0x9e
 2583 20ae 01       		.uleb128 0x1
 2584 20af 53444C5F 		.ascii "SDL_SCANCODE_SEPARATOR\0"
 2584      5343414E 
 2584      434F4445 
 2584      5F534550 
 2584      41524154 
 2585 20c6 9F       		.byte	0x9f
 2586 20c7 01       		.uleb128 0x1
 2587 20c8 53444C5F 		.ascii "SDL_SCANCODE_OUT\0"
 2587      5343414E 
 2587      434F4445 
 2587      5F4F5554 
 2587      00
 2588 20d9 A0       		.byte	0xa0
 2589 20da 01       		.uleb128 0x1
 2590 20db 53444C5F 		.ascii "SDL_SCANCODE_OPER\0"
 2590      5343414E 
 2590      434F4445 
 2590      5F4F5045 
 2590      5200
 2591 20ed A1       		.byte	0xa1
 2592 20ee 01       		.uleb128 0x1
 2593 20ef 53444C5F 		.ascii "SDL_SCANCODE_CLEARAGAIN\0"
 2593      5343414E 
 2593      434F4445 
 2593      5F434C45 
 2593      41524147 
 2594 2107 A2       		.byte	0xa2
 2595 2108 01       		.uleb128 0x1
 2596 2109 53444C5F 		.ascii "SDL_SCANCODE_CRSEL\0"
 2596      5343414E 
 2596      434F4445 
 2596      5F435253 
 2596      454C00
 2597 211c A3       		.byte	0xa3
 2598 211d 01       		.uleb128 0x1
 2599 211e 53444C5F 		.ascii "SDL_SCANCODE_EXSEL\0"
 2599      5343414E 
 2599      434F4445 
 2599      5F455853 
 2599      454C00
 2600 2131 A4       		.byte	0xa4
 2601 2132 01       		.uleb128 0x1
 2602 2133 53444C5F 		.ascii "SDL_SCANCODE_KP_00\0"
 2602      5343414E 
 2602      434F4445 
 2602      5F4B505F 
 2602      303000
 2603 2146 B0       		.byte	0xb0
GAS LISTING C:\Users\lsw\AppData\Local\Temp\ccSZcLze.s 			page 97


 2604 2147 01       		.uleb128 0x1
 2605 2148 53444C5F 		.ascii "SDL_SCANCODE_KP_000\0"
 2605      5343414E 
 2605      434F4445 
 2605      5F4B505F 
 2605      30303000 
 2606 215c B1       		.byte	0xb1
 2607 215d 01       		.uleb128 0x1
 2608 215e 53444C5F 		.ascii "SDL_SCANCODE_THOUSANDSSEPARATOR\0"
 2608      5343414E 
 2608      434F4445 
 2608      5F54484F 
 2608      5553414E 
 2609 217e B2       		.byte	0xb2
 2610 217f 01       		.uleb128 0x1
 2611 2180 53444C5F 		.ascii "SDL_SCANCODE_DECIMALSEPARATOR\0"
 2611      5343414E 
 2611      434F4445 
 2611      5F444543 
 2611      494D414C 
 2612 219e B3       		.byte	0xb3
 2613 219f 01       		.uleb128 0x1
 2614 21a0 53444C5F 		.ascii "SDL_SCANCODE_CURRENCYUNIT\0"
 2614      5343414E 
 2614      434F4445 
 2614      5F435552 
 2614      52454E43 
 2615 21ba B4       		.byte	0xb4
 2616 21bb 01       		.uleb128 0x1
 2617 21bc 53444C5F 		.ascii "SDL_SCANCODE_CURRENCYSUBUNIT\0"
 2617      5343414E 
 2617      434F4445 
 2617      5F435552 
 2617      52454E43 
 2618 21d9 B5       		.byte	0xb5
 2619 21da 01       		.uleb128 0x1
 2620 21db 53444C5F 		.ascii "SDL_SCANCODE_KP_LEFTPAREN\0"
 2620      5343414E 
 2620      434F4445 
 2620      5F4B505F 
 2620      4C454654 
 2621 21f5 B6       		.byte	0xb6
 2622 21f6 01       		.uleb128 0x1
 2623 21f7 53444C5F 		.ascii "SDL_SCANCODE_KP_RIGHTPAREN\0"
 2623      5343414E 
 2623      434F4445 
 2623      5F4B505F 
 2623      52494748 
 2624 2212 B7       		.byte	0xb7
 2625 2213 01       		.uleb128 0x1
 2626 2214 53444C5F 		.ascii "SDL_SCANCODE_KP_LEFTBRACE\0"
 2626      5343414E 
 2626      434F4445 
 2626      5F4B505F 
 2626      4C454654 
 2627 222e B8       		.byte	0xb8
 2628 222f 01       		.uleb128 0x1
GAS LISTING C:\Users\lsw\AppData\Local\Temp\ccSZcLze.s 			page 98


 2629 2230 53444C5F 		.ascii "SDL_SCANCODE_KP_RIGHTBRACE\0"
 2629      5343414E 
 2629      434F4445 
 2629      5F4B505F 
 2629      52494748 
 2630 224b B9       		.byte	0xb9
 2631 224c 01       		.uleb128 0x1
 2632 224d 53444C5F 		.ascii "SDL_SCANCODE_KP_TAB\0"
 2632      5343414E 
 2632      434F4445 
 2632      5F4B505F 
 2632      54414200 
 2633 2261 BA       		.byte	0xba
 2634 2262 01       		.uleb128 0x1
 2635 2263 53444C5F 		.ascii "SDL_SCANCODE_KP_BACKSPACE\0"
 2635      5343414E 
 2635      434F4445 
 2635      5F4B505F 
 2635      4241434B 
 2636 227d BB       		.byte	0xbb
 2637 227e 01       		.uleb128 0x1
 2638 227f 53444C5F 		.ascii "SDL_SCANCODE_KP_A\0"
 2638      5343414E 
 2638      434F4445 
 2638      5F4B505F 
 2638      4100
 2639 2291 BC       		.byte	0xbc
 2640 2292 01       		.uleb128 0x1
 2641 2293 53444C5F 		.ascii "SDL_SCANCODE_KP_B\0"
 2641      5343414E 
 2641      434F4445 
 2641      5F4B505F 
 2641      4200
 2642 22a5 BD       		.byte	0xbd
 2643 22a6 01       		.uleb128 0x1
 2644 22a7 53444C5F 		.ascii "SDL_SCANCODE_KP_C\0"
 2644      5343414E 
 2644      434F4445 
 2644      5F4B505F 
 2644      4300
 2645 22b9 BE       		.byte	0xbe
 2646 22ba 01       		.uleb128 0x1
 2647 22bb 53444C5F 		.ascii "SDL_SCANCODE_KP_D\0"
 2647      5343414E 
 2647      434F4445 
 2647      5F4B505F 
 2647      4400
 2648 22cd BF       		.byte	0xbf
 2649 22ce 01       		.uleb128 0x1
 2650 22cf 53444C5F 		.ascii "SDL_SCANCODE_KP_E\0"
 2650      5343414E 
 2650      434F4445 
 2650      5F4B505F 
 2650      4500
 2651 22e1 C0       		.byte	0xc0
 2652 22e2 01       		.uleb128 0x1
 2653 22e3 53444C5F 		.ascii "SDL_SCANCODE_KP_F\0"
GAS LISTING C:\Users\lsw\AppData\Local\Temp\ccSZcLze.s 			page 99


 2653      5343414E 
 2653      434F4445 
 2653      5F4B505F 
 2653      4600
 2654 22f5 C1       		.byte	0xc1
 2655 22f6 01       		.uleb128 0x1
 2656 22f7 53444C5F 		.ascii "SDL_SCANCODE_KP_XOR\0"
 2656      5343414E 
 2656      434F4445 
 2656      5F4B505F 
 2656      584F5200 
 2657 230b C2       		.byte	0xc2
 2658 230c 01       		.uleb128 0x1
 2659 230d 53444C5F 		.ascii "SDL_SCANCODE_KP_POWER\0"
 2659      5343414E 
 2659      434F4445 
 2659      5F4B505F 
 2659      504F5745 
 2660 2323 C3       		.byte	0xc3
 2661 2324 01       		.uleb128 0x1
 2662 2325 53444C5F 		.ascii "SDL_SCANCODE_KP_PERCENT\0"
 2662      5343414E 
 2662      434F4445 
 2662      5F4B505F 
 2662      50455243 
 2663 233d C4       		.byte	0xc4
 2664 233e 01       		.uleb128 0x1
 2665 233f 53444C5F 		.ascii "SDL_SCANCODE_KP_LESS\0"
 2665      5343414E 
 2665      434F4445 
 2665      5F4B505F 
 2665      4C455353 
 2666 2354 C5       		.byte	0xc5
 2667 2355 01       		.uleb128 0x1
 2668 2356 53444C5F 		.ascii "SDL_SCANCODE_KP_GREATER\0"
 2668      5343414E 
 2668      434F4445 
 2668      5F4B505F 
 2668      47524541 
 2669 236e C6       		.byte	0xc6
 2670 236f 01       		.uleb128 0x1
 2671 2370 53444C5F 		.ascii "SDL_SCANCODE_KP_AMPERSAND\0"
 2671      5343414E 
 2671      434F4445 
 2671      5F4B505F 
 2671      414D5045 
 2672 238a C7       		.byte	0xc7
 2673 238b 01       		.uleb128 0x1
 2674 238c 53444C5F 		.ascii "SDL_SCANCODE_KP_DBLAMPERSAND\0"
 2674      5343414E 
 2674      434F4445 
 2674      5F4B505F 
 2674      44424C41 
 2675 23a9 C8       		.byte	0xc8
 2676 23aa 01       		.uleb128 0x1
 2677 23ab 53444C5F 		.ascii "SDL_SCANCODE_KP_VERTICALBAR\0"
 2677      5343414E 
GAS LISTING C:\Users\lsw\AppData\Local\Temp\ccSZcLze.s 			page 100


 2677      434F4445 
 2677      5F4B505F 
 2677      56455254 
 2678 23c7 C9       		.byte	0xc9
 2679 23c8 01       		.uleb128 0x1
 2680 23c9 53444C5F 		.ascii "SDL_SCANCODE_KP_DBLVERTICALBAR\0"
 2680      5343414E 
 2680      434F4445 
 2680      5F4B505F 
 2680      44424C56 
 2681 23e8 CA       		.byte	0xca
 2682 23e9 01       		.uleb128 0x1
 2683 23ea 53444C5F 		.ascii "SDL_SCANCODE_KP_COLON\0"
 2683      5343414E 
 2683      434F4445 
 2683      5F4B505F 
 2683      434F4C4F 
 2684 2400 CB       		.byte	0xcb
 2685 2401 01       		.uleb128 0x1
 2686 2402 53444C5F 		.ascii "SDL_SCANCODE_KP_HASH\0"
 2686      5343414E 
 2686      434F4445 
 2686      5F4B505F 
 2686      48415348 
 2687 2417 CC       		.byte	0xcc
 2688 2418 01       		.uleb128 0x1
 2689 2419 53444C5F 		.ascii "SDL_SCANCODE_KP_SPACE\0"
 2689      5343414E 
 2689      434F4445 
 2689      5F4B505F 
 2689      53504143 
 2690 242f CD       		.byte	0xcd
 2691 2430 01       		.uleb128 0x1
 2692 2431 53444C5F 		.ascii "SDL_SCANCODE_KP_AT\0"
 2692      5343414E 
 2692      434F4445 
 2692      5F4B505F 
 2692      415400
 2693 2444 CE       		.byte	0xce
 2694 2445 01       		.uleb128 0x1
 2695 2446 53444C5F 		.ascii "SDL_SCANCODE_KP_EXCLAM\0"
 2695      5343414E 
 2695      434F4445 
 2695      5F4B505F 
 2695      4558434C 
 2696 245d CF       		.byte	0xcf
 2697 245e 01       		.uleb128 0x1
 2698 245f 53444C5F 		.ascii "SDL_SCANCODE_KP_MEMSTORE\0"
 2698      5343414E 
 2698      434F4445 
 2698      5F4B505F 
 2698      4D454D53 
 2699 2478 D0       		.byte	0xd0
 2700 2479 01       		.uleb128 0x1
 2701 247a 53444C5F 		.ascii "SDL_SCANCODE_KP_MEMRECALL\0"
 2701      5343414E 
 2701      434F4445 
GAS LISTING C:\Users\lsw\AppData\Local\Temp\ccSZcLze.s 			page 101


 2701      5F4B505F 
 2701      4D454D52 
 2702 2494 D1       		.byte	0xd1
 2703 2495 01       		.uleb128 0x1
 2704 2496 53444C5F 		.ascii "SDL_SCANCODE_KP_MEMCLEAR\0"
 2704      5343414E 
 2704      434F4445 
 2704      5F4B505F 
 2704      4D454D43 
 2705 24af D2       		.byte	0xd2
 2706 24b0 01       		.uleb128 0x1
 2707 24b1 53444C5F 		.ascii "SDL_SCANCODE_KP_MEMADD\0"
 2707      5343414E 
 2707      434F4445 
 2707      5F4B505F 
 2707      4D454D41 
 2708 24c8 D3       		.byte	0xd3
 2709 24c9 01       		.uleb128 0x1
 2710 24ca 53444C5F 		.ascii "SDL_SCANCODE_KP_MEMSUBTRACT\0"
 2710      5343414E 
 2710      434F4445 
 2710      5F4B505F 
 2710      4D454D53 
 2711 24e6 D4       		.byte	0xd4
 2712 24e7 01       		.uleb128 0x1
 2713 24e8 53444C5F 		.ascii "SDL_SCANCODE_KP_MEMMULTIPLY\0"
 2713      5343414E 
 2713      434F4445 
 2713      5F4B505F 
 2713      4D454D4D 
 2714 2504 D5       		.byte	0xd5
 2715 2505 01       		.uleb128 0x1
 2716 2506 53444C5F 		.ascii "SDL_SCANCODE_KP_MEMDIVIDE\0"
 2716      5343414E 
 2716      434F4445 
 2716      5F4B505F 
 2716      4D454D44 
 2717 2520 D6       		.byte	0xd6
 2718 2521 01       		.uleb128 0x1
 2719 2522 53444C5F 		.ascii "SDL_SCANCODE_KP_PLUSMINUS\0"
 2719      5343414E 
 2719      434F4445 
 2719      5F4B505F 
 2719      504C5553 
 2720 253c D7       		.byte	0xd7
 2721 253d 01       		.uleb128 0x1
 2722 253e 53444C5F 		.ascii "SDL_SCANCODE_KP_CLEAR\0"
 2722      5343414E 
 2722      434F4445 
 2722      5F4B505F 
 2722      434C4541 
 2723 2554 D8       		.byte	0xd8
 2724 2555 01       		.uleb128 0x1
 2725 2556 53444C5F 		.ascii "SDL_SCANCODE_KP_CLEARENTRY\0"
 2725      5343414E 
 2725      434F4445 
 2725      5F4B505F 
GAS LISTING C:\Users\lsw\AppData\Local\Temp\ccSZcLze.s 			page 102


 2725      434C4541 
 2726 2571 D9       		.byte	0xd9
 2727 2572 01       		.uleb128 0x1
 2728 2573 53444C5F 		.ascii "SDL_SCANCODE_KP_BINARY\0"
 2728      5343414E 
 2728      434F4445 
 2728      5F4B505F 
 2728      42494E41 
 2729 258a DA       		.byte	0xda
 2730 258b 01       		.uleb128 0x1
 2731 258c 53444C5F 		.ascii "SDL_SCANCODE_KP_OCTAL\0"
 2731      5343414E 
 2731      434F4445 
 2731      5F4B505F 
 2731      4F435441 
 2732 25a2 DB       		.byte	0xdb
 2733 25a3 01       		.uleb128 0x1
 2734 25a4 53444C5F 		.ascii "SDL_SCANCODE_KP_DECIMAL\0"
 2734      5343414E 
 2734      434F4445 
 2734      5F4B505F 
 2734      44454349 
 2735 25bc DC       		.byte	0xdc
 2736 25bd 01       		.uleb128 0x1
 2737 25be 53444C5F 		.ascii "SDL_SCANCODE_KP_HEXADECIMAL\0"
 2737      5343414E 
 2737      434F4445 
 2737      5F4B505F 
 2737      48455841 
 2738 25da DD       		.byte	0xdd
 2739 25db 01       		.uleb128 0x1
 2740 25dc 53444C5F 		.ascii "SDL_SCANCODE_LCTRL\0"
 2740      5343414E 
 2740      434F4445 
 2740      5F4C4354 
 2740      524C00
 2741 25ef E0       		.byte	0xe0
 2742 25f0 01       		.uleb128 0x1
 2743 25f1 53444C5F 		.ascii "SDL_SCANCODE_LSHIFT\0"
 2743      5343414E 
 2743      434F4445 
 2743      5F4C5348 
 2743      49465400 
 2744 2605 E1       		.byte	0xe1
 2745 2606 01       		.uleb128 0x1
 2746 2607 53444C5F 		.ascii "SDL_SCANCODE_LALT\0"
 2746      5343414E 
 2746      434F4445 
 2746      5F4C414C 
 2746      5400
 2747 2619 E2       		.byte	0xe2
 2748 261a 01       		.uleb128 0x1
 2749 261b 53444C5F 		.ascii "SDL_SCANCODE_LGUI\0"
 2749      5343414E 
 2749      434F4445 
 2749      5F4C4755 
 2749      4900
GAS LISTING C:\Users\lsw\AppData\Local\Temp\ccSZcLze.s 			page 103


 2750 262d E3       		.byte	0xe3
 2751 262e 01       		.uleb128 0x1
 2752 262f 53444C5F 		.ascii "SDL_SCANCODE_RCTRL\0"
 2752      5343414E 
 2752      434F4445 
 2752      5F524354 
 2752      524C00
 2753 2642 E4       		.byte	0xe4
 2754 2643 01       		.uleb128 0x1
 2755 2644 53444C5F 		.ascii "SDL_SCANCODE_RSHIFT\0"
 2755      5343414E 
 2755      434F4445 
 2755      5F525348 
 2755      49465400 
 2756 2658 E5       		.byte	0xe5
 2757 2659 01       		.uleb128 0x1
 2758 265a 53444C5F 		.ascii "SDL_SCANCODE_RALT\0"
 2758      5343414E 
 2758      434F4445 
 2758      5F52414C 
 2758      5400
 2759 266c E6       		.byte	0xe6
 2760 266d 01       		.uleb128 0x1
 2761 266e 53444C5F 		.ascii "SDL_SCANCODE_RGUI\0"
 2761      5343414E 
 2761      434F4445 
 2761      5F524755 
 2761      4900
 2762 2680 E7       		.byte	0xe7
 2763 2681 08       		.uleb128 0x8
 2764 2682 53444C5F 		.ascii "SDL_SCANCODE_MODE\0"
 2764      5343414E 
 2764      434F4445 
 2764      5F4D4F44 
 2764      4500
 2765 2694 0101     		.word	0x101
 2766 2696 08       		.uleb128 0x8
 2767 2697 53444C5F 		.ascii "SDL_SCANCODE_AUDIONEXT\0"
 2767      5343414E 
 2767      434F4445 
 2767      5F415544 
 2767      494F4E45 
 2768 26ae 0201     		.word	0x102
 2769 26b0 08       		.uleb128 0x8
 2770 26b1 53444C5F 		.ascii "SDL_SCANCODE_AUDIOPREV\0"
 2770      5343414E 
 2770      434F4445 
 2770      5F415544 
 2770      494F5052 
 2771 26c8 0301     		.word	0x103
 2772 26ca 08       		.uleb128 0x8
 2773 26cb 53444C5F 		.ascii "SDL_SCANCODE_AUDIOSTOP\0"
 2773      5343414E 
 2773      434F4445 
 2773      5F415544 
 2773      494F5354 
 2774 26e2 0401     		.word	0x104
GAS LISTING C:\Users\lsw\AppData\Local\Temp\ccSZcLze.s 			page 104


 2775 26e4 08       		.uleb128 0x8
 2776 26e5 53444C5F 		.ascii "SDL_SCANCODE_AUDIOPLAY\0"
 2776      5343414E 
 2776      434F4445 
 2776      5F415544 
 2776      494F504C 
 2777 26fc 0501     		.word	0x105
 2778 26fe 08       		.uleb128 0x8
 2779 26ff 53444C5F 		.ascii "SDL_SCANCODE_AUDIOMUTE\0"
 2779      5343414E 
 2779      434F4445 
 2779      5F415544 
 2779      494F4D55 
 2780 2716 0601     		.word	0x106
 2781 2718 08       		.uleb128 0x8
 2782 2719 53444C5F 		.ascii "SDL_SCANCODE_MEDIASELECT\0"
 2782      5343414E 
 2782      434F4445 
 2782      5F4D4544 
 2782      49415345 
 2783 2732 0701     		.word	0x107
 2784 2734 08       		.uleb128 0x8
 2785 2735 53444C5F 		.ascii "SDL_SCANCODE_WWW\0"
 2785      5343414E 
 2785      434F4445 
 2785      5F575757 
 2785      00
 2786 2746 0801     		.word	0x108
 2787 2748 08       		.uleb128 0x8
 2788 2749 53444C5F 		.ascii "SDL_SCANCODE_MAIL\0"
 2788      5343414E 
 2788      434F4445 
 2788      5F4D4149 
 2788      4C00
 2789 275b 0901     		.word	0x109
 2790 275d 08       		.uleb128 0x8
 2791 275e 53444C5F 		.ascii "SDL_SCANCODE_CALCULATOR\0"
 2791      5343414E 
 2791      434F4445 
 2791      5F43414C 
 2791      43554C41 
 2792 2776 0A01     		.word	0x10a
 2793 2778 08       		.uleb128 0x8
 2794 2779 53444C5F 		.ascii "SDL_SCANCODE_COMPUTER\0"
 2794      5343414E 
 2794      434F4445 
 2794      5F434F4D 
 2794      50555445 
 2795 278f 0B01     		.word	0x10b
 2796 2791 08       		.uleb128 0x8
 2797 2792 53444C5F 		.ascii "SDL_SCANCODE_AC_SEARCH\0"
 2797      5343414E 
 2797      434F4445 
 2797      5F41435F 
 2797      53454152 
 2798 27a9 0C01     		.word	0x10c
 2799 27ab 08       		.uleb128 0x8
GAS LISTING C:\Users\lsw\AppData\Local\Temp\ccSZcLze.s 			page 105


 2800 27ac 53444C5F 		.ascii "SDL_SCANCODE_AC_HOME\0"
 2800      5343414E 
 2800      434F4445 
 2800      5F41435F 
 2800      484F4D45 
 2801 27c1 0D01     		.word	0x10d
 2802 27c3 08       		.uleb128 0x8
 2803 27c4 53444C5F 		.ascii "SDL_SCANCODE_AC_BACK\0"
 2803      5343414E 
 2803      434F4445 
 2803      5F41435F 
 2803      4241434B 
 2804 27d9 0E01     		.word	0x10e
 2805 27db 08       		.uleb128 0x8
 2806 27dc 53444C5F 		.ascii "SDL_SCANCODE_AC_FORWARD\0"
 2806      5343414E 
 2806      434F4445 
 2806      5F41435F 
 2806      464F5257 
 2807 27f4 0F01     		.word	0x10f
 2808 27f6 08       		.uleb128 0x8
 2809 27f7 53444C5F 		.ascii "SDL_SCANCODE_AC_STOP\0"
 2809      5343414E 
 2809      434F4445 
 2809      5F41435F 
 2809      53544F50 
 2810 280c 1001     		.word	0x110
 2811 280e 08       		.uleb128 0x8
 2812 280f 53444C5F 		.ascii "SDL_SCANCODE_AC_REFRESH\0"
 2812      5343414E 
 2812      434F4445 
 2812      5F41435F 
 2812      52454652 
 2813 2827 1101     		.word	0x111
 2814 2829 08       		.uleb128 0x8
 2815 282a 53444C5F 		.ascii "SDL_SCANCODE_AC_BOOKMARKS\0"
 2815      5343414E 
 2815      434F4445 
 2815      5F41435F 
 2815      424F4F4B 
 2816 2844 1201     		.word	0x112
 2817 2846 08       		.uleb128 0x8
 2818 2847 53444C5F 		.ascii "SDL_SCANCODE_BRIGHTNESSDOWN\0"
 2818      5343414E 
 2818      434F4445 
 2818      5F425249 
 2818      4748544E 
 2819 2863 1301     		.word	0x113
 2820 2865 08       		.uleb128 0x8
 2821 2866 53444C5F 		.ascii "SDL_SCANCODE_BRIGHTNESSUP\0"
 2821      5343414E 
 2821      434F4445 
 2821      5F425249 
 2821      4748544E 
 2822 2880 1401     		.word	0x114
 2823 2882 08       		.uleb128 0x8
 2824 2883 53444C5F 		.ascii "SDL_SCANCODE_DISPLAYSWITCH\0"
GAS LISTING C:\Users\lsw\AppData\Local\Temp\ccSZcLze.s 			page 106


 2824      5343414E 
 2824      434F4445 
 2824      5F444953 
 2824      504C4159 
 2825 289e 1501     		.word	0x115
 2826 28a0 08       		.uleb128 0x8
 2827 28a1 53444C5F 		.ascii "SDL_SCANCODE_KBDILLUMTOGGLE\0"
 2827      5343414E 
 2827      434F4445 
 2827      5F4B4244 
 2827      494C4C55 
 2828 28bd 1601     		.word	0x116
 2829 28bf 08       		.uleb128 0x8
 2830 28c0 53444C5F 		.ascii "SDL_SCANCODE_KBDILLUMDOWN\0"
 2830      5343414E 
 2830      434F4445 
 2830      5F4B4244 
 2830      494C4C55 
 2831 28da 1701     		.word	0x117
 2832 28dc 08       		.uleb128 0x8
 2833 28dd 53444C5F 		.ascii "SDL_SCANCODE_KBDILLUMUP\0"
 2833      5343414E 
 2833      434F4445 
 2833      5F4B4244 
 2833      494C4C55 
 2834 28f5 1801     		.word	0x118
 2835 28f7 08       		.uleb128 0x8
 2836 28f8 53444C5F 		.ascii "SDL_SCANCODE_EJECT\0"
 2836      5343414E 
 2836      434F4445 
 2836      5F454A45 
 2836      435400
 2837 290b 1901     		.word	0x119
 2838 290d 08       		.uleb128 0x8
 2839 290e 53444C5F 		.ascii "SDL_SCANCODE_SLEEP\0"
 2839      5343414E 
 2839      434F4445 
 2839      5F534C45 
 2839      455000
 2840 2921 1A01     		.word	0x11a
 2841 2923 08       		.uleb128 0x8
 2842 2924 53444C5F 		.ascii "SDL_SCANCODE_APP1\0"
 2842      5343414E 
 2842      434F4445 
 2842      5F415050 
 2842      3100
 2843 2936 1B01     		.word	0x11b
 2844 2938 08       		.uleb128 0x8
 2845 2939 53444C5F 		.ascii "SDL_SCANCODE_APP2\0"
 2845      5343414E 
 2845      434F4445 
 2845      5F415050 
 2845      3200
 2846 294b 1C01     		.word	0x11c
 2847 294d 08       		.uleb128 0x8
 2848 294e 53444C5F 		.ascii "SDL_SCANCODE_AUDIOREWIND\0"
 2848      5343414E 
GAS LISTING C:\Users\lsw\AppData\Local\Temp\ccSZcLze.s 			page 107


 2848      434F4445 
 2848      5F415544 
 2848      494F5245 
 2849 2967 1D01     		.word	0x11d
 2850 2969 08       		.uleb128 0x8
 2851 296a 53444C5F 		.ascii "SDL_SCANCODE_AUDIOFASTFORWARD\0"
 2851      5343414E 
 2851      434F4445 
 2851      5F415544 
 2851      494F4641 
 2852 2988 1E01     		.word	0x11e
 2853 298a 08       		.uleb128 0x8
 2854 298b 53444C5F 		.ascii "SDL_NUM_SCANCODES\0"
 2854      4E554D5F 
 2854      5343414E 
 2854      434F4445 
 2854      5300
 2855 299d 0002     		.word	0x200
 2856 299f 00       		.byte	0
 2857 29a0 19       		.uleb128 0x19
 2858 29a1 53444C5F 		.ascii "SDL_Scancode\0"
 2858      5363616E 
 2858      636F6465 
 2858      00
 2859 29ae 0B       		.byte	0xb
 2860 29af 9901     		.word	0x199
 2861 29b1 21140000 		.long	0x1421
 2862 29b5 0E       		.uleb128 0xe
 2863 29b6 53444C5F 		.ascii "SDL_Keycode\0"
 2863      4B657963 
 2863      6F646500 
 2864 29c2 0C       		.byte	0xc
 2865 29c3 2D       		.byte	0x2d
 2866 29c4 10       		.byte	0x10
 2867 29c5 0C020000 		.long	0x20c
 2868 29c9 13       		.uleb128 0x13
 2869 29ca 4D010000 		.secrel32	.LASF14
 2870 29ce 10       		.byte	0x10
 2871 29cf 0D       		.byte	0xd
 2872 29d0 2F       		.byte	0x2f
 2873 29d1 122A0000 		.long	0x2a12
 2874 29d5 07       		.uleb128 0x7
 2875 29d6 7363616E 		.ascii "scancode\0"
 2875      636F6465 
 2875      00
 2876 29df 0D       		.byte	0xd
 2877 29e0 31       		.byte	0x31
 2878 29e1 12       		.byte	0x12
 2879 29e2 A0290000 		.long	0x29a0
 2880 29e6 00       		.byte	0
 2881 29e7 07       		.uleb128 0x7
 2882 29e8 73796D00 		.ascii "sym\0"
 2883 29ec 0D       		.byte	0xd
 2884 29ed 32       		.byte	0x32
 2885 29ee 11       		.byte	0x11
 2886 29ef B5290000 		.long	0x29b5
 2887 29f3 04       		.byte	0x4
GAS LISTING C:\Users\lsw\AppData\Local\Temp\ccSZcLze.s 			page 108


 2888 29f4 07       		.uleb128 0x7
 2889 29f5 6D6F6400 		.ascii "mod\0"
 2890 29f9 0D       		.byte	0xd
 2891 29fa 33       		.byte	0x33
 2892 29fb 0C       		.byte	0xc
 2893 29fc FD010000 		.long	0x1fd
 2894 2a00 08       		.byte	0x8
 2895 2a01 07       		.uleb128 0x7
 2896 2a02 756E7573 		.ascii "unused\0"
 2896      656400
 2897 2a09 0D       		.byte	0xd
 2898 2a0a 34       		.byte	0x34
 2899 2a0b 0C       		.byte	0xc
 2900 2a0c 1B020000 		.long	0x21b
 2901 2a10 0C       		.byte	0xc
 2902 2a11 00       		.byte	0
 2903 2a12 11       		.uleb128 0x11
 2904 2a13 4D010000 		.secrel32	.LASF14
 2905 2a17 0D       		.byte	0xd
 2906 2a18 35       		.byte	0x35
 2907 2a19 03       		.byte	0x3
 2908 2a1a C9290000 		.long	0x29c9
 2909 2a1e 0E       		.uleb128 0xe
 2910 2a1f 53444C5F 		.ascii "SDL_JoystickID\0"
 2910      4A6F7973 
 2910      7469636B 
 2910      494400
 2911 2a2e 0E       		.byte	0xe
 2912 2a2f 53       		.byte	0x53
 2913 2a30 10       		.byte	0x10
 2914 2a31 0C020000 		.long	0x20c
 2915 2a35 0E       		.uleb128 0xe
 2916 2a36 53444C5F 		.ascii "SDL_TouchID\0"
 2916      546F7563 
 2916      68494400 
 2917 2a42 0F       		.byte	0xf
 2918 2a43 29       		.byte	0x29
 2919 2a44 10       		.byte	0x10
 2920 2a45 2A020000 		.long	0x22a
 2921 2a49 0E       		.uleb128 0xe
 2922 2a4a 53444C5F 		.ascii "SDL_FingerID\0"
 2922      46696E67 
 2922      65724944 
 2922      00
 2923 2a57 0F       		.byte	0xf
 2924 2a58 2A       		.byte	0x2a
 2925 2a59 10       		.byte	0x10
 2926 2a5a 2A020000 		.long	0x22a
 2927 2a5e 0E       		.uleb128 0xe
 2928 2a5f 53444C5F 		.ascii "SDL_GestureID\0"
 2928      47657374 
 2928      75726549 
 2928      4400
 2929 2a6d 10       		.byte	0x10
 2930 2a6e 2C       		.byte	0x2c
 2931 2a6f 10       		.byte	0x10
 2932 2a70 2A020000 		.long	0x22a
GAS LISTING C:\Users\lsw\AppData\Local\Temp\ccSZcLze.s 			page 109


 2933 2a74 13       		.uleb128 0x13
 2934 2a75 3D030000 		.secrel32	.LASF15
 2935 2a79 08       		.byte	0x8
 2936 2a7a 11       		.byte	0x11
 2937 2a7b B5       		.byte	0xb5
 2938 2a7c 9B2A0000 		.long	0x2a9b
 2939 2a80 0A       		.uleb128 0xa
 2940 2a81 1F020000 		.secrel32	.LASF4
 2941 2a85 11       		.byte	0x11
 2942 2a86 B7       		.byte	0xb7
 2943 2a87 0C       		.byte	0xc
 2944 2a88 1B020000 		.long	0x21b
 2945 2a8c 00       		.byte	0
 2946 2a8d 0A       		.uleb128 0xa
 2947 2a8e F3010000 		.secrel32	.LASF16
 2948 2a92 11       		.byte	0x11
 2949 2a93 B8       		.byte	0xb8
 2950 2a94 0C       		.byte	0xc
 2951 2a95 1B020000 		.long	0x21b
 2952 2a99 04       		.byte	0x4
 2953 2a9a 00       		.byte	0
 2954 2a9b 11       		.uleb128 0x11
 2955 2a9c 3D030000 		.secrel32	.LASF15
 2956 2aa0 11       		.byte	0x11
 2957 2aa1 B9       		.byte	0xb9
 2958 2aa2 03       		.byte	0x3
 2959 2aa3 742A0000 		.long	0x2a74
 2960 2aa7 13       		.uleb128 0x13
 2961 2aa8 97010000 		.secrel32	.LASF17
 2962 2aac 14       		.byte	0x14
 2963 2aad 11       		.byte	0x11
 2964 2aae BE       		.byte	0xbe
 2965 2aaf 222B0000 		.long	0x2b22
 2966 2ab3 0A       		.uleb128 0xa
 2967 2ab4 1F020000 		.secrel32	.LASF4
 2968 2ab8 11       		.byte	0x11
 2969 2ab9 C0       		.byte	0xc0
 2970 2aba 0C       		.byte	0xc
 2971 2abb 1B020000 		.long	0x21b
 2972 2abf 00       		.byte	0
 2973 2ac0 0A       		.uleb128 0xa
 2974 2ac1 F3010000 		.secrel32	.LASF16
 2975 2ac5 11       		.byte	0x11
 2976 2ac6 C1       		.byte	0xc1
 2977 2ac7 0C       		.byte	0xc
 2978 2ac8 1B020000 		.long	0x21b
 2979 2acc 04       		.byte	0x4
 2980 2acd 07       		.uleb128 0x7
 2981 2ace 64697370 		.ascii "display\0"
 2981      6C617900 
 2982 2ad6 11       		.byte	0x11
 2983 2ad7 C2       		.byte	0xc2
 2984 2ad8 0C       		.byte	0xc
 2985 2ad9 1B020000 		.long	0x21b
 2986 2add 08       		.byte	0x8
 2987 2ade 07       		.uleb128 0x7
 2988 2adf 6576656E 		.ascii "event\0"
GAS LISTING C:\Users\lsw\AppData\Local\Temp\ccSZcLze.s 			page 110


 2988      7400
 2989 2ae5 11       		.byte	0x11
 2990 2ae6 C3       		.byte	0xc3
 2991 2ae7 0B       		.byte	0xb
 2992 2ae8 E0010000 		.long	0x1e0
 2993 2aec 0C       		.byte	0xc
 2994 2aed 0A       		.uleb128 0xa
 2995 2aee 22010000 		.secrel32	.LASF18
 2996 2af2 11       		.byte	0x11
 2997 2af3 C4       		.byte	0xc4
 2998 2af4 0B       		.byte	0xb
 2999 2af5 E0010000 		.long	0x1e0
 3000 2af9 0D       		.byte	0xd
 3001 2afa 0A       		.uleb128 0xa
 3002 2afb 2B010000 		.secrel32	.LASF19
 3003 2aff 11       		.byte	0x11
 3004 2b00 C5       		.byte	0xc5
 3005 2b01 0B       		.byte	0xb
 3006 2b02 E0010000 		.long	0x1e0
 3007 2b06 0E       		.byte	0xe
 3008 2b07 0A       		.uleb128 0xa
 3009 2b08 7B010000 		.secrel32	.LASF20
 3010 2b0c 11       		.byte	0x11
 3011 2b0d C6       		.byte	0xc6
 3012 2b0e 0B       		.byte	0xb
 3013 2b0f E0010000 		.long	0x1e0
 3014 2b13 0F       		.byte	0xf
 3015 2b14 0A       		.uleb128 0xa
 3016 2b15 31030000 		.secrel32	.LASF3
 3017 2b19 11       		.byte	0x11
 3018 2b1a C7       		.byte	0xc7
 3019 2b1b 0C       		.byte	0xc
 3020 2b1c 0C020000 		.long	0x20c
 3021 2b20 10       		.byte	0x10
 3022 2b21 00       		.byte	0
 3023 2b22 11       		.uleb128 0x11
 3024 2b23 97010000 		.secrel32	.LASF17
 3025 2b27 11       		.byte	0x11
 3026 2b28 C8       		.byte	0xc8
 3027 2b29 03       		.byte	0x3
 3028 2b2a A72A0000 		.long	0x2aa7
 3029 2b2e 13       		.uleb128 0x13
 3030 2b2f 65030000 		.secrel32	.LASF21
 3031 2b33 18       		.byte	0x18
 3032 2b34 11       		.byte	0x11
 3033 2b35 CD       		.byte	0xcd
 3034 2b36 B42B0000 		.long	0x2bb4
 3035 2b3a 0A       		.uleb128 0xa
 3036 2b3b 1F020000 		.secrel32	.LASF4
 3037 2b3f 11       		.byte	0x11
 3038 2b40 CF       		.byte	0xcf
 3039 2b41 0C       		.byte	0xc
 3040 2b42 1B020000 		.long	0x21b
 3041 2b46 00       		.byte	0
 3042 2b47 0A       		.uleb128 0xa
 3043 2b48 F3010000 		.secrel32	.LASF16
 3044 2b4c 11       		.byte	0x11
GAS LISTING C:\Users\lsw\AppData\Local\Temp\ccSZcLze.s 			page 111


 3045 2b4d D0       		.byte	0xd0
 3046 2b4e 0C       		.byte	0xc
 3047 2b4f 1B020000 		.long	0x21b
 3048 2b53 04       		.byte	0x4
 3049 2b54 0A       		.uleb128 0xa
 3050 2b55 D0020000 		.secrel32	.LASF22
 3051 2b59 11       		.byte	0x11
 3052 2b5a D1       		.byte	0xd1
 3053 2b5b 0C       		.byte	0xc
 3054 2b5c 1B020000 		.long	0x21b
 3055 2b60 08       		.byte	0x8
 3056 2b61 07       		.uleb128 0x7
 3057 2b62 6576656E 		.ascii "event\0"
 3057      7400
 3058 2b68 11       		.byte	0x11
 3059 2b69 D2       		.byte	0xd2
 3060 2b6a 0B       		.byte	0xb
 3061 2b6b E0010000 		.long	0x1e0
 3062 2b6f 0C       		.byte	0xc
 3063 2b70 0A       		.uleb128 0xa
 3064 2b71 22010000 		.secrel32	.LASF18
 3065 2b75 11       		.byte	0x11
 3066 2b76 D3       		.byte	0xd3
 3067 2b77 0B       		.byte	0xb
 3068 2b78 E0010000 		.long	0x1e0
 3069 2b7c 0D       		.byte	0xd
 3070 2b7d 0A       		.uleb128 0xa
 3071 2b7e 2B010000 		.secrel32	.LASF19
 3072 2b82 11       		.byte	0x11
 3073 2b83 D4       		.byte	0xd4
 3074 2b84 0B       		.byte	0xb
 3075 2b85 E0010000 		.long	0x1e0
 3076 2b89 0E       		.byte	0xe
 3077 2b8a 0A       		.uleb128 0xa
 3078 2b8b 7B010000 		.secrel32	.LASF20
 3079 2b8f 11       		.byte	0x11
 3080 2b90 D5       		.byte	0xd5
 3081 2b91 0B       		.byte	0xb
 3082 2b92 E0010000 		.long	0x1e0
 3083 2b96 0F       		.byte	0xf
 3084 2b97 0A       		.uleb128 0xa
 3085 2b98 31030000 		.secrel32	.LASF3
 3086 2b9c 11       		.byte	0x11
 3087 2b9d D6       		.byte	0xd6
 3088 2b9e 0C       		.byte	0xc
 3089 2b9f 0C020000 		.long	0x20c
 3090 2ba3 10       		.byte	0x10
 3091 2ba4 07       		.uleb128 0x7
 3092 2ba5 64617461 		.ascii "data2\0"
 3092      3200
 3093 2bab 11       		.byte	0x11
 3094 2bac D7       		.byte	0xd7
 3095 2bad 0C       		.byte	0xc
 3096 2bae 0C020000 		.long	0x20c
 3097 2bb2 14       		.byte	0x14
 3098 2bb3 00       		.byte	0
 3099 2bb4 11       		.uleb128 0x11
GAS LISTING C:\Users\lsw\AppData\Local\Temp\ccSZcLze.s 			page 112


 3100 2bb5 65030000 		.secrel32	.LASF21
 3101 2bb9 11       		.byte	0x11
 3102 2bba D8       		.byte	0xd8
 3103 2bbb 03       		.byte	0x3
 3104 2bbc 2E2B0000 		.long	0x2b2e
 3105 2bc0 13       		.uleb128 0x13
 3106 2bc1 E1010000 		.secrel32	.LASF23
 3107 2bc5 20       		.byte	0x20
 3108 2bc6 11       		.byte	0x11
 3109 2bc7 DD       		.byte	0xdd
 3110 2bc8 3B2C0000 		.long	0x2c3b
 3111 2bcc 0A       		.uleb128 0xa
 3112 2bcd 1F020000 		.secrel32	.LASF4
 3113 2bd1 11       		.byte	0x11
 3114 2bd2 DF       		.byte	0xdf
 3115 2bd3 0C       		.byte	0xc
 3116 2bd4 1B020000 		.long	0x21b
 3117 2bd8 00       		.byte	0
 3118 2bd9 0A       		.uleb128 0xa
 3119 2bda F3010000 		.secrel32	.LASF16
 3120 2bde 11       		.byte	0x11
 3121 2bdf E0       		.byte	0xe0
 3122 2be0 0C       		.byte	0xc
 3123 2be1 1B020000 		.long	0x21b
 3124 2be5 04       		.byte	0x4
 3125 2be6 0A       		.uleb128 0xa
 3126 2be7 D0020000 		.secrel32	.LASF22
 3127 2beb 11       		.byte	0x11
 3128 2bec E1       		.byte	0xe1
 3129 2bed 0C       		.byte	0xc
 3130 2bee 1B020000 		.long	0x21b
 3131 2bf2 08       		.byte	0x8
 3132 2bf3 0A       		.uleb128 0xa
 3133 2bf4 A8010000 		.secrel32	.LASF24
 3134 2bf8 11       		.byte	0x11
 3135 2bf9 E2       		.byte	0xe2
 3136 2bfa 0B       		.byte	0xb
 3137 2bfb E0010000 		.long	0x1e0
 3138 2bff 0C       		.byte	0xc
 3139 2c00 07       		.uleb128 0x7
 3140 2c01 72657065 		.ascii "repeat\0"
 3140      617400
 3141 2c08 11       		.byte	0x11
 3142 2c09 E3       		.byte	0xe3
 3143 2c0a 0B       		.byte	0xb
 3144 2c0b E0010000 		.long	0x1e0
 3145 2c0f 0D       		.byte	0xd
 3146 2c10 0A       		.uleb128 0xa
 3147 2c11 2B010000 		.secrel32	.LASF19
 3148 2c15 11       		.byte	0x11
 3149 2c16 E4       		.byte	0xe4
 3150 2c17 0B       		.byte	0xb
 3151 2c18 E0010000 		.long	0x1e0
 3152 2c1c 0E       		.byte	0xe
 3153 2c1d 0A       		.uleb128 0xa
 3154 2c1e 7B010000 		.secrel32	.LASF20
 3155 2c22 11       		.byte	0x11
GAS LISTING C:\Users\lsw\AppData\Local\Temp\ccSZcLze.s 			page 113


 3156 2c23 E5       		.byte	0xe5
 3157 2c24 0B       		.byte	0xb
 3158 2c25 E0010000 		.long	0x1e0
 3159 2c29 0F       		.byte	0xf
 3160 2c2a 07       		.uleb128 0x7
 3161 2c2b 6B657973 		.ascii "keysym\0"
 3161      796D00
 3162 2c32 11       		.byte	0x11
 3163 2c33 E6       		.byte	0xe6
 3164 2c34 10       		.byte	0x10
 3165 2c35 122A0000 		.long	0x2a12
 3166 2c39 10       		.byte	0x10
 3167 2c3a 00       		.byte	0
 3168 2c3b 11       		.uleb128 0x11
 3169 2c3c E1010000 		.secrel32	.LASF23
 3170 2c40 11       		.byte	0x11
 3171 2c41 E7       		.byte	0xe7
 3172 2c42 03       		.byte	0x3
 3173 2c43 C02B0000 		.long	0x2bc0
 3174 2c47 13       		.uleb128 0x13
 3175 2c48 B2020000 		.secrel32	.LASF25
 3176 2c4c 34       		.byte	0x34
 3177 2c4d 11       		.byte	0x11
 3178 2c4e ED       		.byte	0xed
 3179 2c4f A82C0000 		.long	0x2ca8
 3180 2c53 0A       		.uleb128 0xa
 3181 2c54 1F020000 		.secrel32	.LASF4
 3182 2c58 11       		.byte	0x11
 3183 2c59 EF       		.byte	0xef
 3184 2c5a 0C       		.byte	0xc
 3185 2c5b 1B020000 		.long	0x21b
 3186 2c5f 00       		.byte	0
 3187 2c60 0A       		.uleb128 0xa
 3188 2c61 F3010000 		.secrel32	.LASF16
 3189 2c65 11       		.byte	0x11
 3190 2c66 F0       		.byte	0xf0
 3191 2c67 0C       		.byte	0xc
 3192 2c68 1B020000 		.long	0x21b
 3193 2c6c 04       		.byte	0x4
 3194 2c6d 0A       		.uleb128 0xa
 3195 2c6e D0020000 		.secrel32	.LASF22
 3196 2c72 11       		.byte	0x11
 3197 2c73 F1       		.byte	0xf1
 3198 2c74 0C       		.byte	0xc
 3199 2c75 1B020000 		.long	0x21b
 3200 2c79 08       		.byte	0x8
 3201 2c7a 07       		.uleb128 0x7
 3202 2c7b 74657874 		.ascii "text\0"
 3202      00
 3203 2c80 11       		.byte	0x11
 3204 2c81 F2       		.byte	0xf2
 3205 2c82 0A       		.byte	0xa
 3206 2c83 A82C0000 		.long	0x2ca8
 3207 2c87 0C       		.byte	0xc
 3208 2c88 07       		.uleb128 0x7
 3209 2c89 73746172 		.ascii "start\0"
 3209      7400
GAS LISTING C:\Users\lsw\AppData\Local\Temp\ccSZcLze.s 			page 114


 3210 2c8f 11       		.byte	0x11
 3211 2c90 F3       		.byte	0xf3
 3212 2c91 0C       		.byte	0xc
 3213 2c92 0C020000 		.long	0x20c
 3214 2c96 2C       		.byte	0x2c
 3215 2c97 07       		.uleb128 0x7
 3216 2c98 6C656E67 		.ascii "length\0"
 3216      746800
 3217 2c9f 11       		.byte	0x11
 3218 2ca0 F4       		.byte	0xf4
 3219 2ca1 0C       		.byte	0xc
 3220 2ca2 0C020000 		.long	0x20c
 3221 2ca6 30       		.byte	0x30
 3222 2ca7 00       		.byte	0
 3223 2ca8 14       		.uleb128 0x14
 3224 2ca9 93000000 		.long	0x93
 3225 2cad B82C0000 		.long	0x2cb8
 3226 2cb1 1C       		.uleb128 0x1c
 3227 2cb2 AF000000 		.long	0xaf
 3228 2cb6 1F       		.byte	0x1f
 3229 2cb7 00       		.byte	0
 3230 2cb8 11       		.uleb128 0x11
 3231 2cb9 B2020000 		.secrel32	.LASF25
 3232 2cbd 11       		.byte	0x11
 3233 2cbe F5       		.byte	0xf5
 3234 2cbf 03       		.byte	0x3
 3235 2cc0 472C0000 		.long	0x2c47
 3236 2cc4 13       		.uleb128 0x13
 3237 2cc5 0F030000 		.secrel32	.LASF26
 3238 2cc9 20       		.byte	0x20
 3239 2cca 11       		.byte	0x11
 3240 2ccb FB       		.byte	0xfb
 3241 2ccc 282D0000 		.long	0x2d28
 3242 2cd0 0A       		.uleb128 0xa
 3243 2cd1 1F020000 		.secrel32	.LASF4
 3244 2cd5 11       		.byte	0x11
 3245 2cd6 FD       		.byte	0xfd
 3246 2cd7 0C       		.byte	0xc
 3247 2cd8 1B020000 		.long	0x21b
 3248 2cdc 00       		.byte	0
 3249 2cdd 0A       		.uleb128 0xa
 3250 2cde F3010000 		.secrel32	.LASF16
 3251 2ce2 11       		.byte	0x11
 3252 2ce3 FE       		.byte	0xfe
 3253 2ce4 0C       		.byte	0xc
 3254 2ce5 1B020000 		.long	0x21b
 3255 2ce9 04       		.byte	0x4
 3256 2cea 0A       		.uleb128 0xa
 3257 2ceb D0020000 		.secrel32	.LASF22
 3258 2cef 11       		.byte	0x11
 3259 2cf0 FF       		.byte	0xff
 3260 2cf1 0C       		.byte	0xc
 3261 2cf2 1B020000 		.long	0x21b
 3262 2cf6 08       		.byte	0x8
 3263 2cf7 03       		.uleb128 0x3
 3264 2cf8 74657874 		.ascii "text\0"
 3264      00
GAS LISTING C:\Users\lsw\AppData\Local\Temp\ccSZcLze.s 			page 115


 3265 2cfd 11       		.byte	0x11
 3266 2cfe 0001     		.word	0x100
 3267 2d00 0B       		.byte	0xb
 3268 2d01 40020000 		.long	0x240
 3269 2d05 10       		.byte	0x10
 3270 2d06 03       		.uleb128 0x3
 3271 2d07 73746172 		.ascii "start\0"
 3271      7400
 3272 2d0d 11       		.byte	0x11
 3273 2d0e 0101     		.word	0x101
 3274 2d10 0C       		.byte	0xc
 3275 2d11 0C020000 		.long	0x20c
 3276 2d15 18       		.byte	0x18
 3277 2d16 03       		.uleb128 0x3
 3278 2d17 6C656E67 		.ascii "length\0"
 3278      746800
 3279 2d1e 11       		.byte	0x11
 3280 2d1f 0201     		.word	0x102
 3281 2d21 0C       		.byte	0xc
 3282 2d22 0C020000 		.long	0x20c
 3283 2d26 1C       		.byte	0x1c
 3284 2d27 00       		.byte	0
 3285 2d28 0B       		.uleb128 0xb
 3286 2d29 0F030000 		.secrel32	.LASF26
 3287 2d2d 11       		.byte	0x11
 3288 2d2e 0301     		.word	0x103
 3289 2d30 03       		.byte	0x3
 3290 2d31 C42C0000 		.long	0x2cc4
 3291 2d35 0D       		.uleb128 0xd
 3292 2d36 65020000 		.secrel32	.LASF27
 3293 2d3a 2C       		.byte	0x2c
 3294 2d3b 11       		.byte	0x11
 3295 2d3c 0901     		.word	0x109
 3296 2d3e 7C2D0000 		.long	0x2d7c
 3297 2d42 02       		.uleb128 0x2
 3298 2d43 1F020000 		.secrel32	.LASF4
 3299 2d47 11       		.byte	0x11
 3300 2d48 0B01     		.word	0x10b
 3301 2d4a 0C       		.byte	0xc
 3302 2d4b 1B020000 		.long	0x21b
 3303 2d4f 00       		.byte	0
 3304 2d50 02       		.uleb128 0x2
 3305 2d51 F3010000 		.secrel32	.LASF16
 3306 2d55 11       		.byte	0x11
 3307 2d56 0C01     		.word	0x10c
 3308 2d58 0C       		.byte	0xc
 3309 2d59 1B020000 		.long	0x21b
 3310 2d5d 04       		.byte	0x4
 3311 2d5e 02       		.uleb128 0x2
 3312 2d5f D0020000 		.secrel32	.LASF22
 3313 2d63 11       		.byte	0x11
 3314 2d64 0D01     		.word	0x10d
 3315 2d66 0C       		.byte	0xc
 3316 2d67 1B020000 		.long	0x21b
 3317 2d6b 08       		.byte	0x8
 3318 2d6c 03       		.uleb128 0x3
 3319 2d6d 74657874 		.ascii "text\0"
GAS LISTING C:\Users\lsw\AppData\Local\Temp\ccSZcLze.s 			page 116


 3319      00
 3320 2d72 11       		.byte	0x11
 3321 2d73 0E01     		.word	0x10e
 3322 2d75 0A       		.byte	0xa
 3323 2d76 A82C0000 		.long	0x2ca8
 3324 2d7a 0C       		.byte	0xc
 3325 2d7b 00       		.byte	0
 3326 2d7c 0B       		.uleb128 0xb
 3327 2d7d 65020000 		.secrel32	.LASF27
 3328 2d81 11       		.byte	0x11
 3329 2d82 0F01     		.word	0x10f
 3330 2d84 03       		.byte	0x3
 3331 2d85 352D0000 		.long	0x2d35
 3332 2d89 0D       		.uleb128 0xd
 3333 2d8a 24020000 		.secrel32	.LASF28
 3334 2d8e 24       		.byte	0x24
 3335 2d8f 11       		.byte	0x11
 3336 2d90 1401     		.word	0x114
 3337 2d92 132E0000 		.long	0x2e13
 3338 2d96 02       		.uleb128 0x2
 3339 2d97 1F020000 		.secrel32	.LASF4
 3340 2d9b 11       		.byte	0x11
 3341 2d9c 1601     		.word	0x116
 3342 2d9e 0C       		.byte	0xc
 3343 2d9f 1B020000 		.long	0x21b
 3344 2da3 00       		.byte	0
 3345 2da4 02       		.uleb128 0x2
 3346 2da5 F3010000 		.secrel32	.LASF16
 3347 2da9 11       		.byte	0x11
 3348 2daa 1701     		.word	0x117
 3349 2dac 0C       		.byte	0xc
 3350 2dad 1B020000 		.long	0x21b
 3351 2db1 04       		.byte	0x4
 3352 2db2 02       		.uleb128 0x2
 3353 2db3 D0020000 		.secrel32	.LASF22
 3354 2db7 11       		.byte	0x11
 3355 2db8 1801     		.word	0x118
 3356 2dba 0C       		.byte	0xc
 3357 2dbb 1B020000 		.long	0x21b
 3358 2dbf 08       		.byte	0x8
 3359 2dc0 02       		.uleb128 0x2
 3360 2dc1 37030000 		.secrel32	.LASF29
 3361 2dc5 11       		.byte	0x11
 3362 2dc6 1901     		.word	0x119
 3363 2dc8 0C       		.byte	0xc
 3364 2dc9 1B020000 		.long	0x21b
 3365 2dcd 0C       		.byte	0xc
 3366 2dce 02       		.uleb128 0x2
 3367 2dcf A8010000 		.secrel32	.LASF24
 3368 2dd3 11       		.byte	0x11
 3369 2dd4 1A01     		.word	0x11a
 3370 2dd6 0C       		.byte	0xc
 3371 2dd7 1B020000 		.long	0x21b
 3372 2ddb 10       		.byte	0x10
 3373 2ddc 03       		.uleb128 0x3
 3374 2ddd 7800     		.ascii "x\0"
 3375 2ddf 11       		.byte	0x11
GAS LISTING C:\Users\lsw\AppData\Local\Temp\ccSZcLze.s 			page 117


 3376 2de0 1B01     		.word	0x11b
 3377 2de2 0C       		.byte	0xc
 3378 2de3 0C020000 		.long	0x20c
 3379 2de7 14       		.byte	0x14
 3380 2de8 03       		.uleb128 0x3
 3381 2de9 7900     		.ascii "y\0"
 3382 2deb 11       		.byte	0x11
 3383 2dec 1C01     		.word	0x11c
 3384 2dee 0C       		.byte	0xc
 3385 2def 0C020000 		.long	0x20c
 3386 2df3 18       		.byte	0x18
 3387 2df4 03       		.uleb128 0x3
 3388 2df5 7872656C 		.ascii "xrel\0"
 3388      00
 3389 2dfa 11       		.byte	0x11
 3390 2dfb 1D01     		.word	0x11d
 3391 2dfd 0C       		.byte	0xc
 3392 2dfe 0C020000 		.long	0x20c
 3393 2e02 1C       		.byte	0x1c
 3394 2e03 03       		.uleb128 0x3
 3395 2e04 7972656C 		.ascii "yrel\0"
 3395      00
 3396 2e09 11       		.byte	0x11
 3397 2e0a 1E01     		.word	0x11e
 3398 2e0c 0C       		.byte	0xc
 3399 2e0d 0C020000 		.long	0x20c
 3400 2e11 20       		.byte	0x20
 3401 2e12 00       		.byte	0
 3402 2e13 0B       		.uleb128 0xb
 3403 2e14 24020000 		.secrel32	.LASF28
 3404 2e18 11       		.byte	0x11
 3405 2e19 1F01     		.word	0x11f
 3406 2e1b 03       		.byte	0x3
 3407 2e1c 892D0000 		.long	0x2d89
 3408 2e20 0D       		.uleb128 0xd
 3409 2e21 F0000000 		.secrel32	.LASF30
 3410 2e25 1C       		.byte	0x1c
 3411 2e26 11       		.byte	0x11
 3412 2e27 2401     		.word	0x124
 3413 2e29 B92E0000 		.long	0x2eb9
 3414 2e2d 02       		.uleb128 0x2
 3415 2e2e 1F020000 		.secrel32	.LASF4
 3416 2e32 11       		.byte	0x11
 3417 2e33 2601     		.word	0x126
 3418 2e35 0C       		.byte	0xc
 3419 2e36 1B020000 		.long	0x21b
 3420 2e3a 00       		.byte	0
 3421 2e3b 02       		.uleb128 0x2
 3422 2e3c F3010000 		.secrel32	.LASF16
 3423 2e40 11       		.byte	0x11
 3424 2e41 2701     		.word	0x127
 3425 2e43 0C       		.byte	0xc
 3426 2e44 1B020000 		.long	0x21b
 3427 2e48 04       		.byte	0x4
 3428 2e49 02       		.uleb128 0x2
 3429 2e4a D0020000 		.secrel32	.LASF22
 3430 2e4e 11       		.byte	0x11
GAS LISTING C:\Users\lsw\AppData\Local\Temp\ccSZcLze.s 			page 118


 3431 2e4f 2801     		.word	0x128
 3432 2e51 0C       		.byte	0xc
 3433 2e52 1B020000 		.long	0x21b
 3434 2e56 08       		.byte	0x8
 3435 2e57 02       		.uleb128 0x2
 3436 2e58 37030000 		.secrel32	.LASF29
 3437 2e5c 11       		.byte	0x11
 3438 2e5d 2901     		.word	0x129
 3439 2e5f 0C       		.byte	0xc
 3440 2e60 1B020000 		.long	0x21b
 3441 2e64 0C       		.byte	0xc
 3442 2e65 02       		.uleb128 0x2
 3443 2e66 65010000 		.secrel32	.LASF31
 3444 2e6a 11       		.byte	0x11
 3445 2e6b 2A01     		.word	0x12a
 3446 2e6d 0B       		.byte	0xb
 3447 2e6e E0010000 		.long	0x1e0
 3448 2e72 10       		.byte	0x10
 3449 2e73 02       		.uleb128 0x2
 3450 2e74 A8010000 		.secrel32	.LASF24
 3451 2e78 11       		.byte	0x11
 3452 2e79 2B01     		.word	0x12b
 3453 2e7b 0B       		.byte	0xb
 3454 2e7c E0010000 		.long	0x1e0
 3455 2e80 11       		.byte	0x11
 3456 2e81 03       		.uleb128 0x3
 3457 2e82 636C6963 		.ascii "clicks\0"
 3457      6B7300
 3458 2e89 11       		.byte	0x11
 3459 2e8a 2C01     		.word	0x12c
 3460 2e8c 0B       		.byte	0xb
 3461 2e8d E0010000 		.long	0x1e0
 3462 2e91 12       		.byte	0x12
 3463 2e92 02       		.uleb128 0x2
 3464 2e93 22010000 		.secrel32	.LASF18
 3465 2e97 11       		.byte	0x11
 3466 2e98 2D01     		.word	0x12d
 3467 2e9a 0B       		.byte	0xb
 3468 2e9b E0010000 		.long	0x1e0
 3469 2e9f 13       		.byte	0x13
 3470 2ea0 03       		.uleb128 0x3
 3471 2ea1 7800     		.ascii "x\0"
 3472 2ea3 11       		.byte	0x11
 3473 2ea4 2E01     		.word	0x12e
 3474 2ea6 0C       		.byte	0xc
 3475 2ea7 0C020000 		.long	0x20c
 3476 2eab 14       		.byte	0x14
 3477 2eac 03       		.uleb128 0x3
 3478 2ead 7900     		.ascii "y\0"
 3479 2eaf 11       		.byte	0x11
 3480 2eb0 2F01     		.word	0x12f
 3481 2eb2 0C       		.byte	0xc
 3482 2eb3 0C020000 		.long	0x20c
 3483 2eb7 18       		.byte	0x18
 3484 2eb8 00       		.byte	0
 3485 2eb9 0B       		.uleb128 0xb
 3486 2eba F0000000 		.secrel32	.LASF30
GAS LISTING C:\Users\lsw\AppData\Local\Temp\ccSZcLze.s 			page 119


 3487 2ebe 11       		.byte	0x11
 3488 2ebf 3001     		.word	0x130
 3489 2ec1 03       		.byte	0x3
 3490 2ec2 202E0000 		.long	0x2e20
 3491 2ec6 0D       		.uleb128 0xd
 3492 2ec7 9D000000 		.secrel32	.LASF32
 3493 2ecb 24       		.byte	0x24
 3494 2ecc 11       		.byte	0x11
 3495 2ecd 3501     		.word	0x135
 3496 2ecf 5E2F0000 		.long	0x2f5e
 3497 2ed3 02       		.uleb128 0x2
 3498 2ed4 1F020000 		.secrel32	.LASF4
 3499 2ed8 11       		.byte	0x11
 3500 2ed9 3701     		.word	0x137
 3501 2edb 0C       		.byte	0xc
 3502 2edc 1B020000 		.long	0x21b
 3503 2ee0 00       		.byte	0
 3504 2ee1 02       		.uleb128 0x2
 3505 2ee2 F3010000 		.secrel32	.LASF16
 3506 2ee6 11       		.byte	0x11
 3507 2ee7 3801     		.word	0x138
 3508 2ee9 0C       		.byte	0xc
 3509 2eea 1B020000 		.long	0x21b
 3510 2eee 04       		.byte	0x4
 3511 2eef 02       		.uleb128 0x2
 3512 2ef0 D0020000 		.secrel32	.LASF22
 3513 2ef4 11       		.byte	0x11
 3514 2ef5 3901     		.word	0x139
 3515 2ef7 0C       		.byte	0xc
 3516 2ef8 1B020000 		.long	0x21b
 3517 2efc 08       		.byte	0x8
 3518 2efd 02       		.uleb128 0x2
 3519 2efe 37030000 		.secrel32	.LASF29
 3520 2f02 11       		.byte	0x11
 3521 2f03 3A01     		.word	0x13a
 3522 2f05 0C       		.byte	0xc
 3523 2f06 1B020000 		.long	0x21b
 3524 2f0a 0C       		.byte	0xc
 3525 2f0b 03       		.uleb128 0x3
 3526 2f0c 7800     		.ascii "x\0"
 3527 2f0e 11       		.byte	0x11
 3528 2f0f 3B01     		.word	0x13b
 3529 2f11 0C       		.byte	0xc
 3530 2f12 0C020000 		.long	0x20c
 3531 2f16 10       		.byte	0x10
 3532 2f17 03       		.uleb128 0x3
 3533 2f18 7900     		.ascii "y\0"
 3534 2f1a 11       		.byte	0x11
 3535 2f1b 3C01     		.word	0x13c
 3536 2f1d 0C       		.byte	0xc
 3537 2f1e 0C020000 		.long	0x20c
 3538 2f22 14       		.byte	0x14
 3539 2f23 03       		.uleb128 0x3
 3540 2f24 64697265 		.ascii "direction\0"
 3540      6374696F 
 3540      6E00
 3541 2f2e 11       		.byte	0x11
GAS LISTING C:\Users\lsw\AppData\Local\Temp\ccSZcLze.s 			page 120


 3542 2f2f 3D01     		.word	0x13d
 3543 2f31 0C       		.byte	0xc
 3544 2f32 1B020000 		.long	0x21b
 3545 2f36 18       		.byte	0x18
 3546 2f37 03       		.uleb128 0x3
 3547 2f38 70726563 		.ascii "preciseX\0"
 3547      69736558 
 3547      00
 3548 2f41 11       		.byte	0x11
 3549 2f42 3E01     		.word	0x13e
 3550 2f44 0B       		.byte	0xb
 3551 2f45 85040000 		.long	0x485
 3552 2f49 1C       		.byte	0x1c
 3553 2f4a 03       		.uleb128 0x3
 3554 2f4b 70726563 		.ascii "preciseY\0"
 3554      69736559 
 3554      00
 3555 2f54 11       		.byte	0x11
 3556 2f55 3F01     		.word	0x13f
 3557 2f57 0B       		.byte	0xb
 3558 2f58 85040000 		.long	0x485
 3559 2f5c 20       		.byte	0x20
 3560 2f5d 00       		.byte	0
 3561 2f5e 0B       		.uleb128 0xb
 3562 2f5f 9D000000 		.secrel32	.LASF32
 3563 2f63 11       		.byte	0x11
 3564 2f64 4001     		.word	0x140
 3565 2f66 03       		.byte	0x3
 3566 2f67 C62E0000 		.long	0x2ec6
 3567 2f6b 0D       		.uleb128 0xd
 3568 2f6c D4000000 		.secrel32	.LASF33
 3569 2f70 14       		.byte	0x14
 3570 2f71 11       		.byte	0x11
 3571 2f72 4501     		.word	0x145
 3572 2f74 FA2F0000 		.long	0x2ffa
 3573 2f78 02       		.uleb128 0x2
 3574 2f79 1F020000 		.secrel32	.LASF4
 3575 2f7d 11       		.byte	0x11
 3576 2f7e 4701     		.word	0x147
 3577 2f80 0C       		.byte	0xc
 3578 2f81 1B020000 		.long	0x21b
 3579 2f85 00       		.byte	0
 3580 2f86 02       		.uleb128 0x2
 3581 2f87 F3010000 		.secrel32	.LASF16
 3582 2f8b 11       		.byte	0x11
 3583 2f8c 4801     		.word	0x148
 3584 2f8e 0C       		.byte	0xc
 3585 2f8f 1B020000 		.long	0x21b
 3586 2f93 04       		.byte	0x4
 3587 2f94 02       		.uleb128 0x2
 3588 2f95 37030000 		.secrel32	.LASF29
 3589 2f99 11       		.byte	0x11
 3590 2f9a 4901     		.word	0x149
 3591 2f9c 14       		.byte	0x14
 3592 2f9d 1E2A0000 		.long	0x2a1e
 3593 2fa1 08       		.byte	0x8
 3594 2fa2 03       		.uleb128 0x3
GAS LISTING C:\Users\lsw\AppData\Local\Temp\ccSZcLze.s 			page 121


 3595 2fa3 61786973 		.ascii "axis\0"
 3595      00
 3596 2fa8 11       		.byte	0x11
 3597 2fa9 4A01     		.word	0x14a
 3598 2fab 0B       		.byte	0xb
 3599 2fac E0010000 		.long	0x1e0
 3600 2fb0 0C       		.byte	0xc
 3601 2fb1 02       		.uleb128 0x2
 3602 2fb2 22010000 		.secrel32	.LASF18
 3603 2fb6 11       		.byte	0x11
 3604 2fb7 4B01     		.word	0x14b
 3605 2fb9 0B       		.byte	0xb
 3606 2fba E0010000 		.long	0x1e0
 3607 2fbe 0D       		.byte	0xd
 3608 2fbf 02       		.uleb128 0x2
 3609 2fc0 2B010000 		.secrel32	.LASF19
 3610 2fc4 11       		.byte	0x11
 3611 2fc5 4C01     		.word	0x14c
 3612 2fc7 0B       		.byte	0xb
 3613 2fc8 E0010000 		.long	0x1e0
 3614 2fcc 0E       		.byte	0xe
 3615 2fcd 02       		.uleb128 0x2
 3616 2fce 7B010000 		.secrel32	.LASF20
 3617 2fd2 11       		.byte	0x11
 3618 2fd3 4D01     		.word	0x14d
 3619 2fd5 0B       		.byte	0xb
 3620 2fd6 E0010000 		.long	0x1e0
 3621 2fda 0F       		.byte	0xf
 3622 2fdb 03       		.uleb128 0x3
 3623 2fdc 76616C75 		.ascii "value\0"
 3623      6500
 3624 2fe2 11       		.byte	0x11
 3625 2fe3 4E01     		.word	0x14e
 3626 2fe5 0C       		.byte	0xc
 3627 2fe6 EE010000 		.long	0x1ee
 3628 2fea 10       		.byte	0x10
 3629 2feb 02       		.uleb128 0x2
 3630 2fec 44010000 		.secrel32	.LASF34
 3631 2ff0 11       		.byte	0x11
 3632 2ff1 4F01     		.word	0x14f
 3633 2ff3 0C       		.byte	0xc
 3634 2ff4 FD010000 		.long	0x1fd
 3635 2ff8 12       		.byte	0x12
 3636 2ff9 00       		.byte	0
 3637 2ffa 0B       		.uleb128 0xb
 3638 2ffb D4000000 		.secrel32	.LASF33
 3639 2fff 11       		.byte	0x11
 3640 3000 5001     		.word	0x150
 3641 3002 03       		.byte	0x3
 3642 3003 6B2F0000 		.long	0x2f6b
 3643 3007 0D       		.uleb128 0xd
 3644 3008 26000000 		.secrel32	.LASF35
 3645 300c 14       		.byte	0x14
 3646 300d 11       		.byte	0x11
 3647 300e 5501     		.word	0x155
 3648 3010 96300000 		.long	0x3096
 3649 3014 02       		.uleb128 0x2
GAS LISTING C:\Users\lsw\AppData\Local\Temp\ccSZcLze.s 			page 122


 3650 3015 1F020000 		.secrel32	.LASF4
 3651 3019 11       		.byte	0x11
 3652 301a 5701     		.word	0x157
 3653 301c 0C       		.byte	0xc
 3654 301d 1B020000 		.long	0x21b
 3655 3021 00       		.byte	0
 3656 3022 02       		.uleb128 0x2
 3657 3023 F3010000 		.secrel32	.LASF16
 3658 3027 11       		.byte	0x11
 3659 3028 5801     		.word	0x158
 3660 302a 0C       		.byte	0xc
 3661 302b 1B020000 		.long	0x21b
 3662 302f 04       		.byte	0x4
 3663 3030 02       		.uleb128 0x2
 3664 3031 37030000 		.secrel32	.LASF29
 3665 3035 11       		.byte	0x11
 3666 3036 5901     		.word	0x159
 3667 3038 14       		.byte	0x14
 3668 3039 1E2A0000 		.long	0x2a1e
 3669 303d 08       		.byte	0x8
 3670 303e 03       		.uleb128 0x3
 3671 303f 62616C6C 		.ascii "ball\0"
 3671      00
 3672 3044 11       		.byte	0x11
 3673 3045 5A01     		.word	0x15a
 3674 3047 0B       		.byte	0xb
 3675 3048 E0010000 		.long	0x1e0
 3676 304c 0C       		.byte	0xc
 3677 304d 02       		.uleb128 0x2
 3678 304e 22010000 		.secrel32	.LASF18
 3679 3052 11       		.byte	0x11
 3680 3053 5B01     		.word	0x15b
 3681 3055 0B       		.byte	0xb
 3682 3056 E0010000 		.long	0x1e0
 3683 305a 0D       		.byte	0xd
 3684 305b 02       		.uleb128 0x2
 3685 305c 2B010000 		.secrel32	.LASF19
 3686 3060 11       		.byte	0x11
 3687 3061 5C01     		.word	0x15c
 3688 3063 0B       		.byte	0xb
 3689 3064 E0010000 		.long	0x1e0
 3690 3068 0E       		.byte	0xe
 3691 3069 02       		.uleb128 0x2
 3692 306a 7B010000 		.secrel32	.LASF20
 3693 306e 11       		.byte	0x11
 3694 306f 5D01     		.word	0x15d
 3695 3071 0B       		.byte	0xb
 3696 3072 E0010000 		.long	0x1e0
 3697 3076 0F       		.byte	0xf
 3698 3077 03       		.uleb128 0x3
 3699 3078 7872656C 		.ascii "xrel\0"
 3699      00
 3700 307d 11       		.byte	0x11
 3701 307e 5E01     		.word	0x15e
 3702 3080 0C       		.byte	0xc
 3703 3081 EE010000 		.long	0x1ee
 3704 3085 10       		.byte	0x10
GAS LISTING C:\Users\lsw\AppData\Local\Temp\ccSZcLze.s 			page 123


 3705 3086 03       		.uleb128 0x3
 3706 3087 7972656C 		.ascii "yrel\0"
 3706      00
 3707 308c 11       		.byte	0x11
 3708 308d 5F01     		.word	0x15f
 3709 308f 0C       		.byte	0xc
 3710 3090 EE010000 		.long	0x1ee
 3711 3094 12       		.byte	0x12
 3712 3095 00       		.byte	0
 3713 3096 0B       		.uleb128 0xb
 3714 3097 26000000 		.secrel32	.LASF35
 3715 309b 11       		.byte	0x11
 3716 309c 6001     		.word	0x160
 3717 309e 03       		.byte	0x3
 3718 309f 07300000 		.long	0x3007
 3719 30a3 0D       		.uleb128 0xd
 3720 30a4 05010000 		.secrel32	.LASF36
 3721 30a8 10       		.byte	0x10
 3722 30a9 11       		.byte	0x11
 3723 30aa 6501     		.word	0x165
 3724 30ac 15310000 		.long	0x3115
 3725 30b0 02       		.uleb128 0x2
 3726 30b1 1F020000 		.secrel32	.LASF4
 3727 30b5 11       		.byte	0x11
 3728 30b6 6701     		.word	0x167
 3729 30b8 0C       		.byte	0xc
 3730 30b9 1B020000 		.long	0x21b
 3731 30bd 00       		.byte	0
 3732 30be 02       		.uleb128 0x2
 3733 30bf F3010000 		.secrel32	.LASF16
 3734 30c3 11       		.byte	0x11
 3735 30c4 6801     		.word	0x168
 3736 30c6 0C       		.byte	0xc
 3737 30c7 1B020000 		.long	0x21b
 3738 30cb 04       		.byte	0x4
 3739 30cc 02       		.uleb128 0x2
 3740 30cd 37030000 		.secrel32	.LASF29
 3741 30d1 11       		.byte	0x11
 3742 30d2 6901     		.word	0x169
 3743 30d4 14       		.byte	0x14
 3744 30d5 1E2A0000 		.long	0x2a1e
 3745 30d9 08       		.byte	0x8
 3746 30da 03       		.uleb128 0x3
 3747 30db 68617400 		.ascii "hat\0"
 3748 30df 11       		.byte	0x11
 3749 30e0 6A01     		.word	0x16a
 3750 30e2 0B       		.byte	0xb
 3751 30e3 E0010000 		.long	0x1e0
 3752 30e7 0C       		.byte	0xc
 3753 30e8 03       		.uleb128 0x3
 3754 30e9 76616C75 		.ascii "value\0"
 3754      6500
 3755 30ef 11       		.byte	0x11
 3756 30f0 6B01     		.word	0x16b
 3757 30f2 0B       		.byte	0xb
 3758 30f3 E0010000 		.long	0x1e0
 3759 30f7 0D       		.byte	0xd
GAS LISTING C:\Users\lsw\AppData\Local\Temp\ccSZcLze.s 			page 124


 3760 30f8 02       		.uleb128 0x2
 3761 30f9 22010000 		.secrel32	.LASF18
 3762 30fd 11       		.byte	0x11
 3763 30fe 7201     		.word	0x172
 3764 3100 0B       		.byte	0xb
 3765 3101 E0010000 		.long	0x1e0
 3766 3105 0E       		.byte	0xe
 3767 3106 02       		.uleb128 0x2
 3768 3107 2B010000 		.secrel32	.LASF19
 3769 310b 11       		.byte	0x11
 3770 310c 7301     		.word	0x173
 3771 310e 0B       		.byte	0xb
 3772 310f E0010000 		.long	0x1e0
 3773 3113 0F       		.byte	0xf
 3774 3114 00       		.byte	0
 3775 3115 0B       		.uleb128 0xb
 3776 3116 05010000 		.secrel32	.LASF36
 3777 311a 11       		.byte	0x11
 3778 311b 7401     		.word	0x174
 3779 311d 03       		.byte	0x3
 3780 311e A3300000 		.long	0x30a3
 3781 3122 0D       		.uleb128 0xd
 3782 3123 9F020000 		.secrel32	.LASF37
 3783 3127 10       		.byte	0x10
 3784 3128 11       		.byte	0x11
 3785 3129 7901     		.word	0x179
 3786 312b 92310000 		.long	0x3192
 3787 312f 02       		.uleb128 0x2
 3788 3130 1F020000 		.secrel32	.LASF4
 3789 3134 11       		.byte	0x11
 3790 3135 7B01     		.word	0x17b
 3791 3137 0C       		.byte	0xc
 3792 3138 1B020000 		.long	0x21b
 3793 313c 00       		.byte	0
 3794 313d 02       		.uleb128 0x2
 3795 313e F3010000 		.secrel32	.LASF16
 3796 3142 11       		.byte	0x11
 3797 3143 7C01     		.word	0x17c
 3798 3145 0C       		.byte	0xc
 3799 3146 1B020000 		.long	0x21b
 3800 314a 04       		.byte	0x4
 3801 314b 02       		.uleb128 0x2
 3802 314c 37030000 		.secrel32	.LASF29
 3803 3150 11       		.byte	0x11
 3804 3151 7D01     		.word	0x17d
 3805 3153 14       		.byte	0x14
 3806 3154 1E2A0000 		.long	0x2a1e
 3807 3158 08       		.byte	0x8
 3808 3159 02       		.uleb128 0x2
 3809 315a 65010000 		.secrel32	.LASF31
 3810 315e 11       		.byte	0x11
 3811 315f 7E01     		.word	0x17e
 3812 3161 0B       		.byte	0xb
 3813 3162 E0010000 		.long	0x1e0
 3814 3166 0C       		.byte	0xc
 3815 3167 02       		.uleb128 0x2
 3816 3168 A8010000 		.secrel32	.LASF24
GAS LISTING C:\Users\lsw\AppData\Local\Temp\ccSZcLze.s 			page 125


 3817 316c 11       		.byte	0x11
 3818 316d 7F01     		.word	0x17f
 3819 316f 0B       		.byte	0xb
 3820 3170 E0010000 		.long	0x1e0
 3821 3174 0D       		.byte	0xd
 3822 3175 02       		.uleb128 0x2
 3823 3176 22010000 		.secrel32	.LASF18
 3824 317a 11       		.byte	0x11
 3825 317b 8001     		.word	0x180
 3826 317d 0B       		.byte	0xb
 3827 317e E0010000 		.long	0x1e0
 3828 3182 0E       		.byte	0xe
 3829 3183 02       		.uleb128 0x2
 3830 3184 2B010000 		.secrel32	.LASF19
 3831 3188 11       		.byte	0x11
 3832 3189 8101     		.word	0x181
 3833 318b 0B       		.byte	0xb
 3834 318c E0010000 		.long	0x1e0
 3835 3190 0F       		.byte	0xf
 3836 3191 00       		.byte	0
 3837 3192 0B       		.uleb128 0xb
 3838 3193 9F020000 		.secrel32	.LASF37
 3839 3197 11       		.byte	0x11
 3840 3198 8201     		.word	0x182
 3841 319a 03       		.byte	0x3
 3842 319b 22310000 		.long	0x3122
 3843 319f 0D       		.uleb128 0xd
 3844 31a0 84010000 		.secrel32	.LASF38
 3845 31a4 0C       		.byte	0xc
 3846 31a5 11       		.byte	0x11
 3847 31a6 8701     		.word	0x187
 3848 31a8 D7310000 		.long	0x31d7
 3849 31ac 02       		.uleb128 0x2
 3850 31ad 1F020000 		.secrel32	.LASF4
 3851 31b1 11       		.byte	0x11
 3852 31b2 8901     		.word	0x189
 3853 31b4 0C       		.byte	0xc
 3854 31b5 1B020000 		.long	0x21b
 3855 31b9 00       		.byte	0
 3856 31ba 02       		.uleb128 0x2
 3857 31bb F3010000 		.secrel32	.LASF16
 3858 31bf 11       		.byte	0x11
 3859 31c0 8A01     		.word	0x18a
 3860 31c2 0C       		.byte	0xc
 3861 31c3 1B020000 		.long	0x21b
 3862 31c7 04       		.byte	0x4
 3863 31c8 02       		.uleb128 0x2
 3864 31c9 37030000 		.secrel32	.LASF29
 3865 31cd 11       		.byte	0x11
 3866 31ce 8B01     		.word	0x18b
 3867 31d0 0C       		.byte	0xc
 3868 31d1 0C020000 		.long	0x20c
 3869 31d5 08       		.byte	0x8
 3870 31d6 00       		.byte	0
 3871 31d7 0B       		.uleb128 0xb
 3872 31d8 84010000 		.secrel32	.LASF38
 3873 31dc 11       		.byte	0x11
GAS LISTING C:\Users\lsw\AppData\Local\Temp\ccSZcLze.s 			page 126


 3874 31dd 8C01     		.word	0x18c
 3875 31df 03       		.byte	0x3
 3876 31e0 9F310000 		.long	0x319f
 3877 31e4 0D       		.uleb128 0xd
 3878 31e5 75030000 		.secrel32	.LASF39
 3879 31e9 14       		.byte	0x14
 3880 31ea 11       		.byte	0x11
 3881 31eb 9201     		.word	0x192
 3882 31ed 73320000 		.long	0x3273
 3883 31f1 02       		.uleb128 0x2
 3884 31f2 1F020000 		.secrel32	.LASF4
 3885 31f6 11       		.byte	0x11
 3886 31f7 9401     		.word	0x194
 3887 31f9 0C       		.byte	0xc
 3888 31fa 1B020000 		.long	0x21b
 3889 31fe 00       		.byte	0
 3890 31ff 02       		.uleb128 0x2
 3891 3200 F3010000 		.secrel32	.LASF16
 3892 3204 11       		.byte	0x11
 3893 3205 9501     		.word	0x195
 3894 3207 0C       		.byte	0xc
 3895 3208 1B020000 		.long	0x21b
 3896 320c 04       		.byte	0x4
 3897 320d 02       		.uleb128 0x2
 3898 320e 37030000 		.secrel32	.LASF29
 3899 3212 11       		.byte	0x11
 3900 3213 9601     		.word	0x196
 3901 3215 14       		.byte	0x14
 3902 3216 1E2A0000 		.long	0x2a1e
 3903 321a 08       		.byte	0x8
 3904 321b 03       		.uleb128 0x3
 3905 321c 61786973 		.ascii "axis\0"
 3905      00
 3906 3221 11       		.byte	0x11
 3907 3222 9701     		.word	0x197
 3908 3224 0B       		.byte	0xb
 3909 3225 E0010000 		.long	0x1e0
 3910 3229 0C       		.byte	0xc
 3911 322a 02       		.uleb128 0x2
 3912 322b 22010000 		.secrel32	.LASF18
 3913 322f 11       		.byte	0x11
 3914 3230 9801     		.word	0x198
 3915 3232 0B       		.byte	0xb
 3916 3233 E0010000 		.long	0x1e0
 3917 3237 0D       		.byte	0xd
 3918 3238 02       		.uleb128 0x2
 3919 3239 2B010000 		.secrel32	.LASF19
 3920 323d 11       		.byte	0x11
 3921 323e 9901     		.word	0x199
 3922 3240 0B       		.byte	0xb
 3923 3241 E0010000 		.long	0x1e0
 3924 3245 0E       		.byte	0xe
 3925 3246 02       		.uleb128 0x2
 3926 3247 7B010000 		.secrel32	.LASF20
 3927 324b 11       		.byte	0x11
 3928 324c 9A01     		.word	0x19a
 3929 324e 0B       		.byte	0xb
GAS LISTING C:\Users\lsw\AppData\Local\Temp\ccSZcLze.s 			page 127


 3930 324f E0010000 		.long	0x1e0
 3931 3253 0F       		.byte	0xf
 3932 3254 03       		.uleb128 0x3
 3933 3255 76616C75 		.ascii "value\0"
 3933      6500
 3934 325b 11       		.byte	0x11
 3935 325c 9B01     		.word	0x19b
 3936 325e 0C       		.byte	0xc
 3937 325f EE010000 		.long	0x1ee
 3938 3263 10       		.byte	0x10
 3939 3264 02       		.uleb128 0x2
 3940 3265 44010000 		.secrel32	.LASF34
 3941 3269 11       		.byte	0x11
 3942 326a 9C01     		.word	0x19c
 3943 326c 0C       		.byte	0xc
 3944 326d FD010000 		.long	0x1fd
 3945 3271 12       		.byte	0x12
 3946 3272 00       		.byte	0
 3947 3273 0B       		.uleb128 0xb
 3948 3274 75030000 		.secrel32	.LASF39
 3949 3278 11       		.byte	0x11
 3950 3279 9D01     		.word	0x19d
 3951 327b 03       		.byte	0x3
 3952 327c E4310000 		.long	0x31e4
 3953 3280 0D       		.uleb128 0xd
 3954 3281 E2020000 		.secrel32	.LASF40
 3955 3285 10       		.byte	0x10
 3956 3286 11       		.byte	0x11
 3957 3287 A301     		.word	0x1a3
 3958 3289 F0320000 		.long	0x32f0
 3959 328d 02       		.uleb128 0x2
 3960 328e 1F020000 		.secrel32	.LASF4
 3961 3292 11       		.byte	0x11
 3962 3293 A501     		.word	0x1a5
 3963 3295 0C       		.byte	0xc
 3964 3296 1B020000 		.long	0x21b
 3965 329a 00       		.byte	0
 3966 329b 02       		.uleb128 0x2
 3967 329c F3010000 		.secrel32	.LASF16
 3968 32a0 11       		.byte	0x11
 3969 32a1 A601     		.word	0x1a6
 3970 32a3 0C       		.byte	0xc
 3971 32a4 1B020000 		.long	0x21b
 3972 32a8 04       		.byte	0x4
 3973 32a9 02       		.uleb128 0x2
 3974 32aa 37030000 		.secrel32	.LASF29
 3975 32ae 11       		.byte	0x11
 3976 32af A701     		.word	0x1a7
 3977 32b1 14       		.byte	0x14
 3978 32b2 1E2A0000 		.long	0x2a1e
 3979 32b6 08       		.byte	0x8
 3980 32b7 02       		.uleb128 0x2
 3981 32b8 65010000 		.secrel32	.LASF31
 3982 32bc 11       		.byte	0x11
 3983 32bd A801     		.word	0x1a8
 3984 32bf 0B       		.byte	0xb
 3985 32c0 E0010000 		.long	0x1e0
GAS LISTING C:\Users\lsw\AppData\Local\Temp\ccSZcLze.s 			page 128


 3986 32c4 0C       		.byte	0xc
 3987 32c5 02       		.uleb128 0x2
 3988 32c6 A8010000 		.secrel32	.LASF24
 3989 32ca 11       		.byte	0x11
 3990 32cb A901     		.word	0x1a9
 3991 32cd 0B       		.byte	0xb
 3992 32ce E0010000 		.long	0x1e0
 3993 32d2 0D       		.byte	0xd
 3994 32d3 02       		.uleb128 0x2
 3995 32d4 22010000 		.secrel32	.LASF18
 3996 32d8 11       		.byte	0x11
 3997 32d9 AA01     		.word	0x1aa
 3998 32db 0B       		.byte	0xb
 3999 32dc E0010000 		.long	0x1e0
 4000 32e0 0E       		.byte	0xe
 4001 32e1 02       		.uleb128 0x2
 4002 32e2 2B010000 		.secrel32	.LASF19
 4003 32e6 11       		.byte	0x11
 4004 32e7 AB01     		.word	0x1ab
 4005 32e9 0B       		.byte	0xb
 4006 32ea E0010000 		.long	0x1e0
 4007 32ee 0F       		.byte	0xf
 4008 32ef 00       		.byte	0
 4009 32f0 0B       		.uleb128 0xb
 4010 32f1 E2020000 		.secrel32	.LASF40
 4011 32f5 11       		.byte	0x11
 4012 32f6 AC01     		.word	0x1ac
 4013 32f8 03       		.byte	0x3
 4014 32f9 80320000 		.long	0x3280
 4015 32fd 0D       		.uleb128 0xd
 4016 32fe 00000000 		.secrel32	.LASF41
 4017 3302 0C       		.byte	0xc
 4018 3303 11       		.byte	0x11
 4019 3304 B201     		.word	0x1b2
 4020 3306 35330000 		.long	0x3335
 4021 330a 02       		.uleb128 0x2
 4022 330b 1F020000 		.secrel32	.LASF4
 4023 330f 11       		.byte	0x11
 4024 3310 B401     		.word	0x1b4
 4025 3312 0C       		.byte	0xc
 4026 3313 1B020000 		.long	0x21b
 4027 3317 00       		.byte	0
 4028 3318 02       		.uleb128 0x2
 4029 3319 F3010000 		.secrel32	.LASF16
 4030 331d 11       		.byte	0x11
 4031 331e B501     		.word	0x1b5
 4032 3320 0C       		.byte	0xc
 4033 3321 1B020000 		.long	0x21b
 4034 3325 04       		.byte	0x4
 4035 3326 02       		.uleb128 0x2
 4036 3327 37030000 		.secrel32	.LASF29
 4037 332b 11       		.byte	0x11
 4038 332c B601     		.word	0x1b6
 4039 332e 0C       		.byte	0xc
 4040 332f 0C020000 		.long	0x20c
 4041 3333 08       		.byte	0x8
 4042 3334 00       		.byte	0
GAS LISTING C:\Users\lsw\AppData\Local\Temp\ccSZcLze.s 			page 129


 4043 3335 0B       		.uleb128 0xb
 4044 3336 00000000 		.secrel32	.LASF41
 4045 333a 11       		.byte	0x11
 4046 333b B701     		.word	0x1b7
 4047 333d 03       		.byte	0x3
 4048 333e FD320000 		.long	0x32fd
 4049 3342 0D       		.uleb128 0xd
 4050 3343 42000000 		.secrel32	.LASF42
 4051 3347 20       		.byte	0x20
 4052 3348 11       		.byte	0x11
 4053 3349 BC01     		.word	0x1bc
 4054 334b C4330000 		.long	0x33c4
 4055 334f 02       		.uleb128 0x2
 4056 3350 1F020000 		.secrel32	.LASF4
 4057 3354 11       		.byte	0x11
 4058 3355 BE01     		.word	0x1be
 4059 3357 0C       		.byte	0xc
 4060 3358 1B020000 		.long	0x21b
 4061 335c 00       		.byte	0
 4062 335d 02       		.uleb128 0x2
 4063 335e F3010000 		.secrel32	.LASF16
 4064 3362 11       		.byte	0x11
 4065 3363 BF01     		.word	0x1bf
 4066 3365 0C       		.byte	0xc
 4067 3366 1B020000 		.long	0x21b
 4068 336a 04       		.byte	0x4
 4069 336b 02       		.uleb128 0x2
 4070 336c 37030000 		.secrel32	.LASF29
 4071 3370 11       		.byte	0x11
 4072 3371 C001     		.word	0x1c0
 4073 3373 14       		.byte	0x14
 4074 3374 1E2A0000 		.long	0x2a1e
 4075 3378 08       		.byte	0x8
 4076 3379 03       		.uleb128 0x3
 4077 337a 746F7563 		.ascii "touchpad\0"
 4077      68706164 
 4077      00
 4078 3383 11       		.byte	0x11
 4079 3384 C101     		.word	0x1c1
 4080 3386 0C       		.byte	0xc
 4081 3387 0C020000 		.long	0x20c
 4082 338b 0C       		.byte	0xc
 4083 338c 03       		.uleb128 0x3
 4084 338d 66696E67 		.ascii "finger\0"
 4084      657200
 4085 3394 11       		.byte	0x11
 4086 3395 C201     		.word	0x1c2
 4087 3397 0C       		.byte	0xc
 4088 3398 0C020000 		.long	0x20c
 4089 339c 10       		.byte	0x10
 4090 339d 03       		.uleb128 0x3
 4091 339e 7800     		.ascii "x\0"
 4092 33a0 11       		.byte	0x11
 4093 33a1 C301     		.word	0x1c3
 4094 33a3 0B       		.byte	0xb
 4095 33a4 85040000 		.long	0x485
 4096 33a8 14       		.byte	0x14
GAS LISTING C:\Users\lsw\AppData\Local\Temp\ccSZcLze.s 			page 130


 4097 33a9 03       		.uleb128 0x3
 4098 33aa 7900     		.ascii "y\0"
 4099 33ac 11       		.byte	0x11
 4100 33ad C401     		.word	0x1c4
 4101 33af 0B       		.byte	0xb
 4102 33b0 85040000 		.long	0x485
 4103 33b4 18       		.byte	0x18
 4104 33b5 02       		.uleb128 0x2
 4105 33b6 CB000000 		.secrel32	.LASF43
 4106 33ba 11       		.byte	0x11
 4107 33bb C501     		.word	0x1c5
 4108 33bd 0B       		.byte	0xb
 4109 33be 85040000 		.long	0x485
 4110 33c2 1C       		.byte	0x1c
 4111 33c3 00       		.byte	0
 4112 33c4 0B       		.uleb128 0xb
 4113 33c5 42000000 		.secrel32	.LASF42
 4114 33c9 11       		.byte	0x11
 4115 33ca C601     		.word	0x1c6
 4116 33cc 03       		.byte	0x3
 4117 33cd 42330000 		.long	0x3342
 4118 33d1 0D       		.uleb128 0xd
 4119 33d2 83000000 		.secrel32	.LASF44
 4120 33d6 1C       		.byte	0x1c
 4121 33d7 11       		.byte	0x11
 4122 33d8 CB01     		.word	0x1cb
 4123 33da 29340000 		.long	0x3429
 4124 33de 02       		.uleb128 0x2
 4125 33df 1F020000 		.secrel32	.LASF4
 4126 33e3 11       		.byte	0x11
 4127 33e4 CD01     		.word	0x1cd
 4128 33e6 0C       		.byte	0xc
 4129 33e7 1B020000 		.long	0x21b
 4130 33eb 00       		.byte	0
 4131 33ec 02       		.uleb128 0x2
 4132 33ed F3010000 		.secrel32	.LASF16
 4133 33f1 11       		.byte	0x11
 4134 33f2 CE01     		.word	0x1ce
 4135 33f4 0C       		.byte	0xc
 4136 33f5 1B020000 		.long	0x21b
 4137 33f9 04       		.byte	0x4
 4138 33fa 02       		.uleb128 0x2
 4139 33fb 37030000 		.secrel32	.LASF29
 4140 33ff 11       		.byte	0x11
 4141 3400 CF01     		.word	0x1cf
 4142 3402 14       		.byte	0x14
 4143 3403 1E2A0000 		.long	0x2a1e
 4144 3407 08       		.byte	0x8
 4145 3408 03       		.uleb128 0x3
 4146 3409 73656E73 		.ascii "sensor\0"
 4146      6F7200
 4147 3410 11       		.byte	0x11
 4148 3411 D001     		.word	0x1d0
 4149 3413 0C       		.byte	0xc
 4150 3414 0C020000 		.long	0x20c
 4151 3418 0C       		.byte	0xc
 4152 3419 03       		.uleb128 0x3
GAS LISTING C:\Users\lsw\AppData\Local\Temp\ccSZcLze.s 			page 131


 4153 341a 64617461 		.ascii "data\0"
 4153      00
 4154 341f 11       		.byte	0x11
 4155 3420 D101     		.word	0x1d1
 4156 3422 0B       		.byte	0xb
 4157 3423 29340000 		.long	0x3429
 4158 3427 10       		.byte	0x10
 4159 3428 00       		.byte	0
 4160 3429 14       		.uleb128 0x14
 4161 342a 85040000 		.long	0x485
 4162 342e 39340000 		.long	0x3439
 4163 3432 1C       		.uleb128 0x1c
 4164 3433 AF000000 		.long	0xaf
 4165 3437 02       		.byte	0x2
 4166 3438 00       		.byte	0
 4167 3439 0B       		.uleb128 0xb
 4168 343a 83000000 		.secrel32	.LASF44
 4169 343e 11       		.byte	0x11
 4170 343f D201     		.word	0x1d2
 4171 3441 03       		.byte	0x3
 4172 3442 D1330000 		.long	0x33d1
 4173 3446 0D       		.uleb128 0xd
 4174 3447 44020000 		.secrel32	.LASF45
 4175 344b 10       		.byte	0x10
 4176 344c 11       		.byte	0x11
 4177 344d D701     		.word	0x1d7
 4178 344f BC340000 		.long	0x34bc
 4179 3453 02       		.uleb128 0x2
 4180 3454 1F020000 		.secrel32	.LASF4
 4181 3458 11       		.byte	0x11
 4182 3459 D901     		.word	0x1d9
 4183 345b 0C       		.byte	0xc
 4184 345c 1B020000 		.long	0x21b
 4185 3460 00       		.byte	0
 4186 3461 02       		.uleb128 0x2
 4187 3462 F3010000 		.secrel32	.LASF16
 4188 3466 11       		.byte	0x11
 4189 3467 DA01     		.word	0x1da
 4190 3469 0C       		.byte	0xc
 4191 346a 1B020000 		.long	0x21b
 4192 346e 04       		.byte	0x4
 4193 346f 02       		.uleb128 0x2
 4194 3470 37030000 		.secrel32	.LASF29
 4195 3474 11       		.byte	0x11
 4196 3475 DB01     		.word	0x1db
 4197 3477 0C       		.byte	0xc
 4198 3478 1B020000 		.long	0x21b
 4199 347c 08       		.byte	0x8
 4200 347d 03       		.uleb128 0x3
 4201 347e 69736361 		.ascii "iscapture\0"
 4201      70747572 
 4201      6500
 4202 3488 11       		.byte	0x11
 4203 3489 DC01     		.word	0x1dc
 4204 348b 0B       		.byte	0xb
 4205 348c E0010000 		.long	0x1e0
 4206 3490 0C       		.byte	0xc
GAS LISTING C:\Users\lsw\AppData\Local\Temp\ccSZcLze.s 			page 132


 4207 3491 02       		.uleb128 0x2
 4208 3492 22010000 		.secrel32	.LASF18
 4209 3496 11       		.byte	0x11
 4210 3497 DD01     		.word	0x1dd
 4211 3499 0B       		.byte	0xb
 4212 349a E0010000 		.long	0x1e0
 4213 349e 0D       		.byte	0xd
 4214 349f 02       		.uleb128 0x2
 4215 34a0 2B010000 		.secrel32	.LASF19
 4216 34a4 11       		.byte	0x11
 4217 34a5 DE01     		.word	0x1de
 4218 34a7 0B       		.byte	0xb
 4219 34a8 E0010000 		.long	0x1e0
 4220 34ac 0E       		.byte	0xe
 4221 34ad 02       		.uleb128 0x2
 4222 34ae 7B010000 		.secrel32	.LASF20
 4223 34b2 11       		.byte	0x11
 4224 34b3 DF01     		.word	0x1df
 4225 34b5 0B       		.byte	0xb
 4226 34b6 E0010000 		.long	0x1e0
 4227 34ba 0F       		.byte	0xf
 4228 34bb 00       		.byte	0
 4229 34bc 0B       		.uleb128 0xb
 4230 34bd 44020000 		.secrel32	.LASF45
 4231 34c1 11       		.byte	0x11
 4232 34c2 E001     		.word	0x1e0
 4233 34c4 03       		.byte	0x3
 4234 34c5 46340000 		.long	0x3446
 4235 34c9 0D       		.uleb128 0xd
 4236 34ca BC010000 		.secrel32	.LASF46
 4237 34ce 30       		.byte	0x30
 4238 34cf 11       		.byte	0x11
 4239 34d0 E601     		.word	0x1e6
 4240 34d2 62350000 		.long	0x3562
 4241 34d6 02       		.uleb128 0x2
 4242 34d7 1F020000 		.secrel32	.LASF4
 4243 34db 11       		.byte	0x11
 4244 34dc E801     		.word	0x1e8
 4245 34de 0C       		.byte	0xc
 4246 34df 1B020000 		.long	0x21b
 4247 34e3 00       		.byte	0
 4248 34e4 02       		.uleb128 0x2
 4249 34e5 F3010000 		.secrel32	.LASF16
 4250 34e9 11       		.byte	0x11
 4251 34ea E901     		.word	0x1e9
 4252 34ec 0C       		.byte	0xc
 4253 34ed 1B020000 		.long	0x21b
 4254 34f1 04       		.byte	0x4
 4255 34f2 02       		.uleb128 0x2
 4256 34f3 B1000000 		.secrel32	.LASF47
 4257 34f7 11       		.byte	0x11
 4258 34f8 EA01     		.word	0x1ea
 4259 34fa 11       		.byte	0x11
 4260 34fb 352A0000 		.long	0x2a35
 4261 34ff 08       		.byte	0x8
 4262 3500 03       		.uleb128 0x3
 4263 3501 66696E67 		.ascii "fingerId\0"
GAS LISTING C:\Users\lsw\AppData\Local\Temp\ccSZcLze.s 			page 133


 4263      65724964 
 4263      00
 4264 350a 11       		.byte	0x11
 4265 350b EB01     		.word	0x1eb
 4266 350d 12       		.byte	0x12
 4267 350e 492A0000 		.long	0x2a49
 4268 3512 10       		.byte	0x10
 4269 3513 03       		.uleb128 0x3
 4270 3514 7800     		.ascii "x\0"
 4271 3516 11       		.byte	0x11
 4272 3517 EC01     		.word	0x1ec
 4273 3519 0B       		.byte	0xb
 4274 351a 85040000 		.long	0x485
 4275 351e 18       		.byte	0x18
 4276 351f 03       		.uleb128 0x3
 4277 3520 7900     		.ascii "y\0"
 4278 3522 11       		.byte	0x11
 4279 3523 ED01     		.word	0x1ed
 4280 3525 0B       		.byte	0xb
 4281 3526 85040000 		.long	0x485
 4282 352a 1C       		.byte	0x1c
 4283 352b 03       		.uleb128 0x3
 4284 352c 647800   		.ascii "dx\0"
 4285 352f 11       		.byte	0x11
 4286 3530 EE01     		.word	0x1ee
 4287 3532 0B       		.byte	0xb
 4288 3533 85040000 		.long	0x485
 4289 3537 20       		.byte	0x20
 4290 3538 03       		.uleb128 0x3
 4291 3539 647900   		.ascii "dy\0"
 4292 353c 11       		.byte	0x11
 4293 353d EF01     		.word	0x1ef
 4294 353f 0B       		.byte	0xb
 4295 3540 85040000 		.long	0x485
 4296 3544 24       		.byte	0x24
 4297 3545 02       		.uleb128 0x2
 4298 3546 CB000000 		.secrel32	.LASF43
 4299 354a 11       		.byte	0x11
 4300 354b F001     		.word	0x1f0
 4301 354d 0B       		.byte	0xb
 4302 354e 85040000 		.long	0x485
 4303 3552 28       		.byte	0x28
 4304 3553 02       		.uleb128 0x2
 4305 3554 D0020000 		.secrel32	.LASF22
 4306 3558 11       		.byte	0x11
 4307 3559 F101     		.word	0x1f1
 4308 355b 0C       		.byte	0xc
 4309 355c 1B020000 		.long	0x21b
 4310 3560 2C       		.byte	0x2c
 4311 3561 00       		.byte	0
 4312 3562 0B       		.uleb128 0xb
 4313 3563 BC010000 		.secrel32	.LASF46
 4314 3567 11       		.byte	0x11
 4315 3568 F201     		.word	0x1f2
 4316 356a 03       		.byte	0x3
 4317 356b C9340000 		.long	0x34c9
 4318 356f 0D       		.uleb128 0xd
GAS LISTING C:\Users\lsw\AppData\Local\Temp\ccSZcLze.s 			page 134


 4319 3570 09020000 		.secrel32	.LASF48
 4320 3574 28       		.byte	0x28
 4321 3575 11       		.byte	0x11
 4322 3576 F801     		.word	0x1f8
 4323 3578 FC350000 		.long	0x35fc
 4324 357c 02       		.uleb128 0x2
 4325 357d 1F020000 		.secrel32	.LASF4
 4326 3581 11       		.byte	0x11
 4327 3582 FA01     		.word	0x1fa
 4328 3584 0C       		.byte	0xc
 4329 3585 1B020000 		.long	0x21b
 4330 3589 00       		.byte	0
 4331 358a 02       		.uleb128 0x2
 4332 358b F3010000 		.secrel32	.LASF16
 4333 358f 11       		.byte	0x11
 4334 3590 FB01     		.word	0x1fb
 4335 3592 0C       		.byte	0xc
 4336 3593 1B020000 		.long	0x21b
 4337 3597 04       		.byte	0x4
 4338 3598 02       		.uleb128 0x2
 4339 3599 B1000000 		.secrel32	.LASF47
 4340 359d 11       		.byte	0x11
 4341 359e FC01     		.word	0x1fc
 4342 35a0 11       		.byte	0x11
 4343 35a1 352A0000 		.long	0x2a35
 4344 35a5 08       		.byte	0x8
 4345 35a6 03       		.uleb128 0x3
 4346 35a7 64546865 		.ascii "dTheta\0"
 4346      746100
 4347 35ae 11       		.byte	0x11
 4348 35af FD01     		.word	0x1fd
 4349 35b1 0B       		.byte	0xb
 4350 35b2 85040000 		.long	0x485
 4351 35b6 10       		.byte	0x10
 4352 35b7 03       		.uleb128 0x3
 4353 35b8 64446973 		.ascii "dDist\0"
 4353      7400
 4354 35be 11       		.byte	0x11
 4355 35bf FE01     		.word	0x1fe
 4356 35c1 0B       		.byte	0xb
 4357 35c2 85040000 		.long	0x485
 4358 35c6 14       		.byte	0x14
 4359 35c7 03       		.uleb128 0x3
 4360 35c8 7800     		.ascii "x\0"
 4361 35ca 11       		.byte	0x11
 4362 35cb FF01     		.word	0x1ff
 4363 35cd 0B       		.byte	0xb
 4364 35ce 85040000 		.long	0x485
 4365 35d2 18       		.byte	0x18
 4366 35d3 03       		.uleb128 0x3
 4367 35d4 7900     		.ascii "y\0"
 4368 35d6 11       		.byte	0x11
 4369 35d7 0002     		.word	0x200
 4370 35d9 0B       		.byte	0xb
 4371 35da 85040000 		.long	0x485
 4372 35de 1C       		.byte	0x1c
 4373 35df 02       		.uleb128 0x2
GAS LISTING C:\Users\lsw\AppData\Local\Temp\ccSZcLze.s 			page 135


 4374 35e0 E5000000 		.secrel32	.LASF49
 4375 35e4 11       		.byte	0x11
 4376 35e5 0102     		.word	0x201
 4377 35e7 0C       		.byte	0xc
 4378 35e8 FD010000 		.long	0x1fd
 4379 35ec 20       		.byte	0x20
 4380 35ed 02       		.uleb128 0x2
 4381 35ee 90020000 		.secrel32	.LASF10
 4382 35f2 11       		.byte	0x11
 4383 35f3 0202     		.word	0x202
 4384 35f5 0C       		.byte	0xc
 4385 35f6 FD010000 		.long	0x1fd
 4386 35fa 22       		.byte	0x22
 4387 35fb 00       		.byte	0
 4388 35fc 0B       		.uleb128 0xb
 4389 35fd 09020000 		.secrel32	.LASF48
 4390 3601 11       		.byte	0x11
 4391 3602 0302     		.word	0x203
 4392 3604 03       		.byte	0x3
 4393 3605 6F350000 		.long	0x356f
 4394 3609 0D       		.uleb128 0xd
 4395 360a 6C000000 		.secrel32	.LASF50
 4396 360e 28       		.byte	0x28
 4397 360f 11       		.byte	0x11
 4398 3610 0902     		.word	0x209
 4399 3612 8B360000 		.long	0x368b
 4400 3616 02       		.uleb128 0x2
 4401 3617 1F020000 		.secrel32	.LASF4
 4402 361b 11       		.byte	0x11
 4403 361c 0B02     		.word	0x20b
 4404 361e 0C       		.byte	0xc
 4405 361f 1B020000 		.long	0x21b
 4406 3623 00       		.byte	0
 4407 3624 02       		.uleb128 0x2
 4408 3625 F3010000 		.secrel32	.LASF16
 4409 3629 11       		.byte	0x11
 4410 362a 0C02     		.word	0x20c
 4411 362c 0C       		.byte	0xc
 4412 362d 1B020000 		.long	0x21b
 4413 3631 04       		.byte	0x4
 4414 3632 02       		.uleb128 0x2
 4415 3633 B1000000 		.secrel32	.LASF47
 4416 3637 11       		.byte	0x11
 4417 3638 0D02     		.word	0x20d
 4418 363a 11       		.byte	0x11
 4419 363b 352A0000 		.long	0x2a35
 4420 363f 08       		.byte	0x8
 4421 3640 03       		.uleb128 0x3
 4422 3641 67657374 		.ascii "gestureId\0"
 4422      75726549 
 4422      6400
 4423 364b 11       		.byte	0x11
 4424 364c 0E02     		.word	0x20e
 4425 364e 13       		.byte	0x13
 4426 364f 5E2A0000 		.long	0x2a5e
 4427 3653 10       		.byte	0x10
 4428 3654 02       		.uleb128 0x2
GAS LISTING C:\Users\lsw\AppData\Local\Temp\ccSZcLze.s 			page 136


 4429 3655 E5000000 		.secrel32	.LASF49
 4430 3659 11       		.byte	0x11
 4431 365a 0F02     		.word	0x20f
 4432 365c 0C       		.byte	0xc
 4433 365d 1B020000 		.long	0x21b
 4434 3661 18       		.byte	0x18
 4435 3662 03       		.uleb128 0x3
 4436 3663 6572726F 		.ascii "error\0"
 4436      7200
 4437 3669 11       		.byte	0x11
 4438 366a 1002     		.word	0x210
 4439 366c 0B       		.byte	0xb
 4440 366d 85040000 		.long	0x485
 4441 3671 1C       		.byte	0x1c
 4442 3672 03       		.uleb128 0x3
 4443 3673 7800     		.ascii "x\0"
 4444 3675 11       		.byte	0x11
 4445 3676 1102     		.word	0x211
 4446 3678 0B       		.byte	0xb
 4447 3679 85040000 		.long	0x485
 4448 367d 20       		.byte	0x20
 4449 367e 03       		.uleb128 0x3
 4450 367f 7900     		.ascii "y\0"
 4451 3681 11       		.byte	0x11
 4452 3682 1202     		.word	0x212
 4453 3684 0B       		.byte	0xb
 4454 3685 85040000 		.long	0x485
 4455 3689 24       		.byte	0x24
 4456 368a 00       		.byte	0
 4457 368b 0B       		.uleb128 0xb
 4458 368c 6C000000 		.secrel32	.LASF50
 4459 3690 11       		.byte	0x11
 4460 3691 1302     		.word	0x213
 4461 3693 03       		.byte	0x3
 4462 3694 09360000 		.long	0x3609
 4463 3698 0D       		.uleb128 0xd
 4464 3699 AE010000 		.secrel32	.LASF51
 4465 369d 18       		.byte	0x18
 4466 369e 11       		.byte	0x11
 4467 369f 1B02     		.word	0x21b
 4468 36a1 DF360000 		.long	0x36df
 4469 36a5 02       		.uleb128 0x2
 4470 36a6 1F020000 		.secrel32	.LASF4
 4471 36aa 11       		.byte	0x11
 4472 36ab 1D02     		.word	0x21d
 4473 36ad 0C       		.byte	0xc
 4474 36ae 1B020000 		.long	0x21b
 4475 36b2 00       		.byte	0
 4476 36b3 02       		.uleb128 0x2
 4477 36b4 F3010000 		.secrel32	.LASF16
 4478 36b8 11       		.byte	0x11
 4479 36b9 1E02     		.word	0x21e
 4480 36bb 0C       		.byte	0xc
 4481 36bc 1B020000 		.long	0x21b
 4482 36c0 04       		.byte	0x4
 4483 36c1 03       		.uleb128 0x3
 4484 36c2 66696C65 		.ascii "file\0"
GAS LISTING C:\Users\lsw\AppData\Local\Temp\ccSZcLze.s 			page 137


 4484      00
 4485 36c7 11       		.byte	0x11
 4486 36c8 1F02     		.word	0x21f
 4487 36ca 0B       		.byte	0xb
 4488 36cb 40020000 		.long	0x240
 4489 36cf 08       		.byte	0x8
 4490 36d0 02       		.uleb128 0x2
 4491 36d1 D0020000 		.secrel32	.LASF22
 4492 36d5 11       		.byte	0x11
 4493 36d6 2002     		.word	0x220
 4494 36d8 0C       		.byte	0xc
 4495 36d9 1B020000 		.long	0x21b
 4496 36dd 10       		.byte	0x10
 4497 36de 00       		.byte	0
 4498 36df 0B       		.uleb128 0xb
 4499 36e0 AE010000 		.secrel32	.LASF51
 4500 36e4 11       		.byte	0x11
 4501 36e5 2102     		.word	0x221
 4502 36e7 03       		.byte	0x3
 4503 36e8 98360000 		.long	0x3698
 4504 36ec 0D       		.uleb128 0xd
 4505 36ed D1010000 		.secrel32	.LASF52
 4506 36f1 24       		.byte	0x24
 4507 36f2 11       		.byte	0x11
 4508 36f3 2702     		.word	0x227
 4509 36f5 33370000 		.long	0x3733
 4510 36f9 02       		.uleb128 0x2
 4511 36fa 1F020000 		.secrel32	.LASF4
 4512 36fe 11       		.byte	0x11
 4513 36ff 2902     		.word	0x229
 4514 3701 0C       		.byte	0xc
 4515 3702 1B020000 		.long	0x21b
 4516 3706 00       		.byte	0
 4517 3707 02       		.uleb128 0x2
 4518 3708 F3010000 		.secrel32	.LASF16
 4519 370c 11       		.byte	0x11
 4520 370d 2A02     		.word	0x22a
 4521 370f 0C       		.byte	0xc
 4522 3710 1B020000 		.long	0x21b
 4523 3714 04       		.byte	0x4
 4524 3715 02       		.uleb128 0x2
 4525 3716 37030000 		.secrel32	.LASF29
 4526 371a 11       		.byte	0x11
 4527 371b 2B02     		.word	0x22b
 4528 371d 0C       		.byte	0xc
 4529 371e 0C020000 		.long	0x20c
 4530 3722 08       		.byte	0x8
 4531 3723 03       		.uleb128 0x3
 4532 3724 64617461 		.ascii "data\0"
 4532      00
 4533 3729 11       		.byte	0x11
 4534 372a 2C02     		.word	0x22c
 4535 372c 0B       		.byte	0xb
 4536 372d 33370000 		.long	0x3733
 4537 3731 0C       		.byte	0xc
 4538 3732 00       		.byte	0
 4539 3733 14       		.uleb128 0x14
GAS LISTING C:\Users\lsw\AppData\Local\Temp\ccSZcLze.s 			page 138


 4540 3734 85040000 		.long	0x485
 4541 3738 43370000 		.long	0x3743
 4542 373c 1C       		.uleb128 0x1c
 4543 373d AF000000 		.long	0xaf
 4544 3741 05       		.byte	0x5
 4545 3742 00       		.byte	0
 4546 3743 0B       		.uleb128 0xb
 4547 3744 D1010000 		.secrel32	.LASF52
 4548 3748 11       		.byte	0x11
 4549 3749 2D02     		.word	0x22d
 4550 374b 03       		.byte	0x3
 4551 374c EC360000 		.long	0x36ec
 4552 3750 0D       		.uleb128 0xd
 4553 3751 5E000000 		.secrel32	.LASF53
 4554 3755 08       		.byte	0x8
 4555 3756 11       		.byte	0x11
 4556 3757 3202     		.word	0x232
 4557 3759 7A370000 		.long	0x377a
 4558 375d 02       		.uleb128 0x2
 4559 375e 1F020000 		.secrel32	.LASF4
 4560 3762 11       		.byte	0x11
 4561 3763 3402     		.word	0x234
 4562 3765 0C       		.byte	0xc
 4563 3766 1B020000 		.long	0x21b
 4564 376a 00       		.byte	0
 4565 376b 02       		.uleb128 0x2
 4566 376c F3010000 		.secrel32	.LASF16
 4567 3770 11       		.byte	0x11
 4568 3771 3502     		.word	0x235
 4569 3773 0C       		.byte	0xc
 4570 3774 1B020000 		.long	0x21b
 4571 3778 04       		.byte	0x4
 4572 3779 00       		.byte	0
 4573 377a 0B       		.uleb128 0xb
 4574 377b 5E000000 		.secrel32	.LASF53
 4575 377f 11       		.byte	0x11
 4576 3780 3602     		.word	0x236
 4577 3782 03       		.byte	0x3
 4578 3783 50370000 		.long	0x3750
 4579 3787 0D       		.uleb128 0xd
 4580 3788 4D030000 		.secrel32	.LASF54
 4581 378c 20       		.byte	0x20
 4582 378d 11       		.byte	0x11
 4583 378e 4402     		.word	0x244
 4584 3790 EC370000 		.long	0x37ec
 4585 3794 02       		.uleb128 0x2
 4586 3795 1F020000 		.secrel32	.LASF4
 4587 3799 11       		.byte	0x11
 4588 379a 4602     		.word	0x246
 4589 379c 0C       		.byte	0xc
 4590 379d 1B020000 		.long	0x21b
 4591 37a1 00       		.byte	0
 4592 37a2 02       		.uleb128 0x2
 4593 37a3 F3010000 		.secrel32	.LASF16
 4594 37a7 11       		.byte	0x11
 4595 37a8 4702     		.word	0x247
 4596 37aa 0C       		.byte	0xc
GAS LISTING C:\Users\lsw\AppData\Local\Temp\ccSZcLze.s 			page 139


 4597 37ab 1B020000 		.long	0x21b
 4598 37af 04       		.byte	0x4
 4599 37b0 02       		.uleb128 0x2
 4600 37b1 D0020000 		.secrel32	.LASF22
 4601 37b5 11       		.byte	0x11
 4602 37b6 4802     		.word	0x248
 4603 37b8 0C       		.byte	0xc
 4604 37b9 1B020000 		.long	0x21b
 4605 37bd 08       		.byte	0x8
 4606 37be 03       		.uleb128 0x3
 4607 37bf 636F6465 		.ascii "code\0"
 4607      00
 4608 37c4 11       		.byte	0x11
 4609 37c5 4902     		.word	0x249
 4610 37c7 0C       		.byte	0xc
 4611 37c8 0C020000 		.long	0x20c
 4612 37cc 0C       		.byte	0xc
 4613 37cd 02       		.uleb128 0x2
 4614 37ce 31030000 		.secrel32	.LASF3
 4615 37d2 11       		.byte	0x11
 4616 37d3 4A02     		.word	0x24a
 4617 37d5 0B       		.byte	0xb
 4618 37d6 39020000 		.long	0x239
 4619 37da 10       		.byte	0x10
 4620 37db 03       		.uleb128 0x3
 4621 37dc 64617461 		.ascii "data2\0"
 4621      3200
 4622 37e2 11       		.byte	0x11
 4623 37e3 4B02     		.word	0x24b
 4624 37e5 0B       		.byte	0xb
 4625 37e6 39020000 		.long	0x239
 4626 37ea 18       		.byte	0x18
 4627 37eb 00       		.byte	0
 4628 37ec 0B       		.uleb128 0xb
 4629 37ed 4D030000 		.secrel32	.LASF54
 4630 37f1 11       		.byte	0x11
 4631 37f2 4C02     		.word	0x24c
 4632 37f4 03       		.byte	0x3
 4633 37f5 87370000 		.long	0x3787
 4634 37f9 0B       		.uleb128 0xb
 4635 37fa 15010000 		.secrel32	.LASF55
 4636 37fe 11       		.byte	0x11
 4637 37ff 5002     		.word	0x250
 4638 3801 1D       		.byte	0x1d
 4639 3802 06380000 		.long	0x3806
 4640 3806 23       		.uleb128 0x23
 4641 3807 15010000 		.secrel32	.LASF55
 4642 380b 0D       		.uleb128 0xd
 4643 380c 6C010000 		.secrel32	.LASF56
 4644 3810 10       		.byte	0x10
 4645 3811 11       		.byte	0x11
 4646 3812 5802     		.word	0x258
 4647 3814 43380000 		.long	0x3843
 4648 3818 02       		.uleb128 0x2
 4649 3819 1F020000 		.secrel32	.LASF4
 4650 381d 11       		.byte	0x11
 4651 381e 5A02     		.word	0x25a
GAS LISTING C:\Users\lsw\AppData\Local\Temp\ccSZcLze.s 			page 140


 4652 3820 0C       		.byte	0xc
 4653 3821 1B020000 		.long	0x21b
 4654 3825 00       		.byte	0
 4655 3826 02       		.uleb128 0x2
 4656 3827 F3010000 		.secrel32	.LASF16
 4657 382b 11       		.byte	0x11
 4658 382c 5B02     		.word	0x25b
 4659 382e 0C       		.byte	0xc
 4660 382f 1B020000 		.long	0x21b
 4661 3833 04       		.byte	0x4
 4662 3834 03       		.uleb128 0x3
 4663 3835 6D736700 		.ascii "msg\0"
 4664 3839 11       		.byte	0x11
 4665 383a 5C02     		.word	0x25c
 4666 383c 13       		.byte	0x13
 4667 383d 43380000 		.long	0x3843
 4668 3841 08       		.byte	0x8
 4669 3842 00       		.byte	0
 4670 3843 09       		.uleb128 0x9
 4671 3844 F9370000 		.long	0x37f9
 4672 3848 0B       		.uleb128 0xb
 4673 3849 6C010000 		.secrel32	.LASF56
 4674 384d 11       		.byte	0x11
 4675 384e 5D02     		.word	0x25d
 4676 3850 03       		.byte	0x3
 4677 3851 0B380000 		.long	0x380b
 4678 3855 40       		.uleb128 0x40
 4679 3856 5B030000 		.secrel32	.LASF57
 4680 385a 38       		.byte	0x38
 4681 385b 11       		.byte	0x11
 4682 385c 6202     		.word	0x262
 4683 385e 0F       		.byte	0xf
 4684 385f 283A0000 		.long	0x3a28
 4685 3863 29       		.uleb128 0x29
 4686 3864 1F020000 		.secrel32	.LASF4
 4687 3868 6402     		.word	0x264
 4688 386a 0C       		.byte	0xc
 4689 386b 1B020000 		.long	0x21b
 4690 386f 0C       		.uleb128 0xc
 4691 3870 636F6D6D 		.ascii "common\0"
 4691      6F6E00
 4692 3877 6502     		.word	0x265
 4693 3879 15       		.byte	0x15
 4694 387a 9B2A0000 		.long	0x2a9b
 4695 387e 0C       		.uleb128 0xc
 4696 387f 64697370 		.ascii "display\0"
 4696      6C617900 
 4697 3887 6602     		.word	0x266
 4698 3889 16       		.byte	0x16
 4699 388a 222B0000 		.long	0x2b22
 4700 388e 0C       		.uleb128 0xc
 4701 388f 77696E64 		.ascii "window\0"
 4701      6F7700
 4702 3896 6702     		.word	0x267
 4703 3898 15       		.byte	0x15
 4704 3899 B42B0000 		.long	0x2bb4
 4705 389d 0C       		.uleb128 0xc
GAS LISTING C:\Users\lsw\AppData\Local\Temp\ccSZcLze.s 			page 141


 4706 389e 6B657900 		.ascii "key\0"
 4707 38a2 6802     		.word	0x268
 4708 38a4 17       		.byte	0x17
 4709 38a5 3B2C0000 		.long	0x2c3b
 4710 38a9 0C       		.uleb128 0xc
 4711 38aa 65646974 		.ascii "edit\0"
 4711      00
 4712 38af 6902     		.word	0x269
 4713 38b1 1A       		.byte	0x1a
 4714 38b2 B82C0000 		.long	0x2cb8
 4715 38b6 0C       		.uleb128 0xc
 4716 38b7 65646974 		.ascii "editExt\0"
 4716      45787400 
 4717 38bf 6A02     		.word	0x26a
 4718 38c1 1D       		.byte	0x1d
 4719 38c2 282D0000 		.long	0x2d28
 4720 38c6 0C       		.uleb128 0xc
 4721 38c7 74657874 		.ascii "text\0"
 4721      00
 4722 38cc 6B02     		.word	0x26b
 4723 38ce 18       		.byte	0x18
 4724 38cf 7C2D0000 		.long	0x2d7c
 4725 38d3 0C       		.uleb128 0xc
 4726 38d4 6D6F7469 		.ascii "motion\0"
 4726      6F6E00
 4727 38db 6C02     		.word	0x26c
 4728 38dd 1A       		.byte	0x1a
 4729 38de 132E0000 		.long	0x2e13
 4730 38e2 29       		.uleb128 0x29
 4731 38e3 65010000 		.secrel32	.LASF31
 4732 38e7 6D02     		.word	0x26d
 4733 38e9 1A       		.byte	0x1a
 4734 38ea B92E0000 		.long	0x2eb9
 4735 38ee 0C       		.uleb128 0xc
 4736 38ef 77686565 		.ascii "wheel\0"
 4736      6C00
 4737 38f5 6E02     		.word	0x26e
 4738 38f7 19       		.byte	0x19
 4739 38f8 5E2F0000 		.long	0x2f5e
 4740 38fc 0C       		.uleb128 0xc
 4741 38fd 6A617869 		.ascii "jaxis\0"
 4741      7300
 4742 3903 6F02     		.word	0x26f
 4743 3905 16       		.byte	0x16
 4744 3906 FA2F0000 		.long	0x2ffa
 4745 390a 0C       		.uleb128 0xc
 4746 390b 6A62616C 		.ascii "jball\0"
 4746      6C00
 4747 3911 7002     		.word	0x270
 4748 3913 16       		.byte	0x16
 4749 3914 96300000 		.long	0x3096
 4750 3918 0C       		.uleb128 0xc
 4751 3919 6A686174 		.ascii "jhat\0"
 4751      00
 4752 391e 7102     		.word	0x271
 4753 3920 15       		.byte	0x15
 4754 3921 15310000 		.long	0x3115
GAS LISTING C:\Users\lsw\AppData\Local\Temp\ccSZcLze.s 			page 142


 4755 3925 0C       		.uleb128 0xc
 4756 3926 6A627574 		.ascii "jbutton\0"
 4756      746F6E00 
 4757 392e 7202     		.word	0x272
 4758 3930 18       		.byte	0x18
 4759 3931 92310000 		.long	0x3192
 4760 3935 0C       		.uleb128 0xc
 4761 3936 6A646576 		.ascii "jdevice\0"
 4761      69636500 
 4762 393e 7302     		.word	0x273
 4763 3940 18       		.byte	0x18
 4764 3941 D7310000 		.long	0x31d7
 4765 3945 0C       		.uleb128 0xc
 4766 3946 63617869 		.ascii "caxis\0"
 4766      7300
 4767 394c 7402     		.word	0x274
 4768 394e 1D       		.byte	0x1d
 4769 394f 73320000 		.long	0x3273
 4770 3953 0C       		.uleb128 0xc
 4771 3954 63627574 		.ascii "cbutton\0"
 4771      746F6E00 
 4772 395c 7502     		.word	0x275
 4773 395e 1F       		.byte	0x1f
 4774 395f F0320000 		.long	0x32f0
 4775 3963 0C       		.uleb128 0xc
 4776 3964 63646576 		.ascii "cdevice\0"
 4776      69636500 
 4777 396c 7602     		.word	0x276
 4778 396e 1F       		.byte	0x1f
 4779 396f 35330000 		.long	0x3335
 4780 3973 0C       		.uleb128 0xc
 4781 3974 63746F75 		.ascii "ctouchpad\0"
 4781      63687061 
 4781      6400
 4782 397e 7702     		.word	0x277
 4783 3980 21       		.byte	0x21
 4784 3981 C4330000 		.long	0x33c4
 4785 3985 0C       		.uleb128 0xc
 4786 3986 6373656E 		.ascii "csensor\0"
 4786      736F7200 
 4787 398e 7802     		.word	0x278
 4788 3990 1F       		.byte	0x1f
 4789 3991 39340000 		.long	0x3439
 4790 3995 0C       		.uleb128 0xc
 4791 3996 61646576 		.ascii "adevice\0"
 4791      69636500 
 4792 399e 7902     		.word	0x279
 4793 39a0 1A       		.byte	0x1a
 4794 39a1 BC340000 		.long	0x34bc
 4795 39a5 0C       		.uleb128 0xc
 4796 39a6 73656E73 		.ascii "sensor\0"
 4796      6F7200
 4797 39ad 7A02     		.word	0x27a
 4798 39af 15       		.byte	0x15
 4799 39b0 43370000 		.long	0x3743
 4800 39b4 0C       		.uleb128 0xc
 4801 39b5 71756974 		.ascii "quit\0"
GAS LISTING C:\Users\lsw\AppData\Local\Temp\ccSZcLze.s 			page 143


 4801      00
 4802 39ba 7B02     		.word	0x27b
 4803 39bc 13       		.byte	0x13
 4804 39bd 7A370000 		.long	0x377a
 4805 39c1 0C       		.uleb128 0xc
 4806 39c2 75736572 		.ascii "user\0"
 4806      00
 4807 39c7 7C02     		.word	0x27c
 4808 39c9 13       		.byte	0x13
 4809 39ca EC370000 		.long	0x37ec
 4810 39ce 0C       		.uleb128 0xc
 4811 39cf 73797377 		.ascii "syswm\0"
 4811      6D00
 4812 39d5 7D02     		.word	0x27d
 4813 39d7 14       		.byte	0x14
 4814 39d8 48380000 		.long	0x3848
 4815 39dc 0C       		.uleb128 0xc
 4816 39dd 7466696E 		.ascii "tfinger\0"
 4816      67657200 
 4817 39e5 7E02     		.word	0x27e
 4818 39e7 1A       		.byte	0x1a
 4819 39e8 62350000 		.long	0x3562
 4820 39ec 0C       		.uleb128 0xc
 4821 39ed 6D676573 		.ascii "mgesture\0"
 4821      74757265 
 4821      00
 4822 39f6 7F02     		.word	0x27f
 4823 39f8 1B       		.byte	0x1b
 4824 39f9 FC350000 		.long	0x35fc
 4825 39fd 0C       		.uleb128 0xc
 4826 39fe 64676573 		.ascii "dgesture\0"
 4826      74757265 
 4826      00
 4827 3a07 8002     		.word	0x280
 4828 3a09 1C       		.byte	0x1c
 4829 3a0a 8B360000 		.long	0x368b
 4830 3a0e 0C       		.uleb128 0xc
 4831 3a0f 64726F70 		.ascii "drop\0"
 4831      00
 4832 3a14 8102     		.word	0x281
 4833 3a16 13       		.byte	0x13
 4834 3a17 DF360000 		.long	0x36df
 4835 3a1b 29       		.uleb128 0x29
 4836 3a1c 90020000 		.secrel32	.LASF10
 4837 3a20 9002     		.word	0x290
 4838 3a22 0B       		.byte	0xb
 4839 3a23 283A0000 		.long	0x3a28
 4840 3a27 00       		.byte	0
 4841 3a28 14       		.uleb128 0x14
 4842 3a29 E0010000 		.long	0x1e0
 4843 3a2d 383A0000 		.long	0x3a38
 4844 3a31 1C       		.uleb128 0x1c
 4845 3a32 AF000000 		.long	0xaf
 4846 3a36 37       		.byte	0x37
 4847 3a37 00       		.byte	0
 4848 3a38 0B       		.uleb128 0xb
 4849 3a39 5B030000 		.secrel32	.LASF57
GAS LISTING C:\Users\lsw\AppData\Local\Temp\ccSZcLze.s 			page 144


 4850 3a3d 11       		.byte	0x11
 4851 3a3e 9102     		.word	0x291
 4852 3a40 03       		.byte	0x3
 4853 3a41 55380000 		.long	0x3855
 4854 3a45 12       		.uleb128 0x12
 4855 3a46 03010000 		.long	0x103
 4856 3a4a 12       		.byte	0x12
 4857 3a4b 4A       		.byte	0x4a
 4858 3a4c 1F3B0000 		.long	0x3b1f
 4859 3a50 01       		.uleb128 0x1
 4860 3a51 53444C5F 		.ascii "SDL_MESSAGEBOX_COLOR_BACKGROUND\0"
 4860      4D455353 
 4860      41474542 
 4860      4F585F43 
 4860      4F4C4F52 
 4861 3a71 00       		.byte	0
 4862 3a72 01       		.uleb128 0x1
 4863 3a73 53444C5F 		.ascii "SDL_MESSAGEBOX_COLOR_TEXT\0"
 4863      4D455353 
 4863      41474542 
 4863      4F585F43 
 4863      4F4C4F52 
 4864 3a8d 01       		.byte	0x1
 4865 3a8e 01       		.uleb128 0x1
 4866 3a8f 53444C5F 		.ascii "SDL_MESSAGEBOX_COLOR_BUTTON_BORDER\0"
 4866      4D455353 
 4866      41474542 
 4866      4F585F43 
 4866      4F4C4F52 
 4867 3ab2 02       		.byte	0x2
 4868 3ab3 01       		.uleb128 0x1
 4869 3ab4 53444C5F 		.ascii "SDL_MESSAGEBOX_COLOR_BUTTON_BACKGROUND\0"
 4869      4D455353 
 4869      41474542 
 4869      4F585F43 
 4869      4F4C4F52 
 4870 3adb 03       		.byte	0x3
 4871 3adc 01       		.uleb128 0x1
 4872 3add 53444C5F 		.ascii "SDL_MESSAGEBOX_COLOR_BUTTON_SELECTED\0"
 4872      4D455353 
 4872      41474542 
 4872      4F585F43 
 4872      4F4C4F52 
 4873 3b02 04       		.byte	0x4
 4874 3b03 01       		.uleb128 0x1
 4875 3b04 53444C5F 		.ascii "SDL_MESSAGEBOX_COLOR_MAX\0"
 4875      4D455353 
 4875      41474542 
 4875      4F585F43 
 4875      4F4C4F52 
 4876 3b1d 05       		.byte	0x5
 4877 3b1e 00       		.byte	0
 4878 3b1f 12       		.uleb128 0x12
 4879 3b20 03010000 		.long	0x103
 4880 3b24 13       		.byte	0x13
 4881 3b25 70       		.byte	0x70
 4882 3b26 7F3B0000 		.long	0x3b7f
GAS LISTING C:\Users\lsw\AppData\Local\Temp\ccSZcLze.s 			page 145


 4883 3b2a 01       		.uleb128 0x1
 4884 3b2b 53444C5F 		.ascii "SDL_TEXTUREACCESS_STATIC\0"
 4884      54455854 
 4884      55524541 
 4884      43434553 
 4884      535F5354 
 4885 3b44 00       		.byte	0
 4886 3b45 01       		.uleb128 0x1
 4887 3b46 53444C5F 		.ascii "SDL_TEXTUREACCESS_STREAMING\0"
 4887      54455854 
 4887      55524541 
 4887      43434553 
 4887      535F5354 
 4888 3b62 01       		.byte	0x1
 4889 3b63 01       		.uleb128 0x1
 4890 3b64 53444C5F 		.ascii "SDL_TEXTUREACCESS_TARGET\0"
 4890      54455854 
 4890      55524541 
 4890      43434553 
 4890      535F5441 
 4891 3b7d 02       		.byte	0x2
 4892 3b7e 00       		.byte	0
 4893 3b7f 11       		.uleb128 0x11
 4894 3b80 78020000 		.secrel32	.LASF58
 4895 3b84 13       		.byte	0x13
 4896 3b85 8E       		.byte	0x8e
 4897 3b86 1D       		.byte	0x1d
 4898 3b87 8B3B0000 		.long	0x3b8b
 4899 3b8b 23       		.uleb128 0x23
 4900 3b8c 78020000 		.secrel32	.LASF58
 4901 3b90 11       		.uleb128 0x11
 4902 3b91 59020000 		.secrel32	.LASF59
 4903 3b95 13       		.byte	0x13
 4904 3b96 94       		.byte	0x94
 4905 3b97 1C       		.byte	0x1c
 4906 3b98 9C3B0000 		.long	0x3b9c
 4907 3b9c 23       		.uleb128 0x23
 4908 3b9d 59020000 		.secrel32	.LASF59
 4909 3ba1 0E       		.uleb128 0xe
 4910 3ba2 53444C5F 		.ascii "SDL_TimerCallback\0"
 4910      54696D65 
 4910      7243616C 
 4910      6C626163 
 4910      6B00
 4911 3bb4 14       		.byte	0x14
 4912 3bb5 9D       		.byte	0x9d
 4913 3bb6 1B       		.byte	0x1b
 4914 3bb7 BB3B0000 		.long	0x3bbb
 4915 3bbb 09       		.uleb128 0x9
 4916 3bbc C03B0000 		.long	0x3bc0
 4917 3bc0 1B       		.uleb128 0x1b
 4918 3bc1 1B020000 		.long	0x21b
 4919 3bc5 D43B0000 		.long	0x3bd4
 4920 3bc9 04       		.uleb128 0x4
 4921 3bca 1B020000 		.long	0x21b
 4922 3bce 04       		.uleb128 0x4
 4923 3bcf 39020000 		.long	0x239
GAS LISTING C:\Users\lsw\AppData\Local\Temp\ccSZcLze.s 			page 146


 4924 3bd3 00       		.byte	0
 4925 3bd4 0E       		.uleb128 0xe
 4926 3bd5 53444C5F 		.ascii "SDL_TimerID\0"
 4926      54696D65 
 4926      72494400 
 4927 3be1 14       		.byte	0x14
 4928 3be2 A2       		.byte	0xa2
 4929 3be3 0D       		.byte	0xd
 4930 3be4 F0000000 		.long	0xf0
 4931 3be8 2A       		.uleb128 0x2a
 4932 3be9 5F696F62 		.ascii "_iobuf\0"
 4932      756600
 4933 3bf0 08       		.byte	0x8
 4934 3bf1 15       		.byte	0x15
 4935 3bf2 21       		.byte	0x21
 4936 3bf3 0A       		.byte	0xa
 4937 3bf4 0F3C0000 		.long	0x3c0f
 4938 3bf8 07       		.uleb128 0x7
 4939 3bf9 5F506C61 		.ascii "_Placeholder\0"
 4939      6365686F 
 4939      6C646572 
 4939      00
 4940 3c06 15       		.byte	0x15
 4941 3c07 23       		.byte	0x23
 4942 3c08 0B       		.byte	0xb
 4943 3c09 39020000 		.long	0x239
 4944 3c0d 00       		.byte	0
 4945 3c0e 00       		.byte	0
 4946 3c0f 0E       		.uleb128 0xe
 4947 3c10 46494C45 		.ascii "FILE\0"
 4947      00
 4948 3c15 15       		.byte	0x15
 4949 3c16 2F       		.byte	0x2f
 4950 3c17 19       		.byte	0x19
 4951 3c18 E83B0000 		.long	0x3be8
 4952 3c1c 1E       		.uleb128 0x1e
 4953 3c1d 02       		.byte	0x2
 4954 3c1e 02       		.byte	0x2
 4955 3c1f E2       		.byte	0xe2
 4956 3c20 05       		.byte	0x5
 4957 3c21 4D3C0000 		.long	0x3c4d
 4958 3c25 2B       		.uleb128 0x2b
 4959 3c26 626C7565 		.ascii "blue\0"
 4959      00
 4960 3c2b E3       		.byte	0xe3
 4961 3c2c 85010000 		.long	0x185
 4962 3c30 05       		.byte	0x5
 4963 3c31 00       		.byte	0
 4964 3c32 2B       		.uleb128 0x2b
 4965 3c33 67726565 		.ascii "green\0"
 4965      6E00
 4966 3c39 E4       		.byte	0xe4
 4967 3c3a 85010000 		.long	0x185
 4968 3c3e 06       		.byte	0x6
 4969 3c3f 05       		.byte	0x5
 4970 3c40 2B       		.uleb128 0x2b
 4971 3c41 72656400 		.ascii "red\0"
GAS LISTING C:\Users\lsw\AppData\Local\Temp\ccSZcLze.s 			page 147


 4972 3c45 E5       		.byte	0xe5
 4973 3c46 85010000 		.long	0x185
 4974 3c4a 05       		.byte	0x5
 4975 3c4b 0B       		.byte	0xb
 4976 3c4c 00       		.byte	0
 4977 3c4d 30       		.uleb128 0x30
 4978 3c4e 02       		.byte	0x2
 4979 3c4f 02       		.byte	0x2
 4980 3c50 E1       		.byte	0xe1
 4981 3c51 09       		.byte	0x9
 4982 3c52 6F3C0000 		.long	0x3c6f
 4983 3c56 1F       		.uleb128 0x1f
 4984 3c57 636800   		.ascii "ch\0"
 4985 3c5a 02       		.byte	0x2
 4986 3c5b E6       		.byte	0xe6
 4987 3c5c 07       		.byte	0x7
 4988 3c5d 1C3C0000 		.long	0x3c1c
 4989 3c61 1F       		.uleb128 0x1f
 4990 3c62 66756C6C 		.ascii "full\0"
 4990      00
 4991 3c67 02       		.byte	0x2
 4992 3c68 E7       		.byte	0xe7
 4993 3c69 0E       		.byte	0xe
 4994 3c6a 85010000 		.long	0x185
 4995 3c6e 00       		.byte	0
 4996 3c6f 0E       		.uleb128 0xe
 4997 3c70 73676C5F 		.ascii "sgl_color16_t\0"
 4997      636F6C6F 
 4997      7231365F 
 4997      7400
 4998 3c7e 02       		.byte	0x2
 4999 3c7f E8       		.byte	0xe8
 5000 3c80 03       		.byte	0x3
 5001 3c81 4D3C0000 		.long	0x3c4d
 5002 3c85 20       		.uleb128 0x20
 5003 3c86 73676C5F 		.ascii "sgl_area\0"
 5003      61726561 
 5003      00
 5004 3c8f 08       		.byte	0x8
 5005 3c90 3202     		.word	0x232
 5006 3c92 CB3C0000 		.long	0x3ccb
 5007 3c96 03       		.uleb128 0x3
 5008 3c97 783100   		.ascii "x1\0"
 5009 3c9a 02       		.byte	0x2
 5010 3c9b 3302     		.word	0x233
 5011 3c9d 0D       		.byte	0xd
 5012 3c9e 22010000 		.long	0x122
 5013 3ca2 00       		.byte	0
 5014 3ca3 03       		.uleb128 0x3
 5015 3ca4 793100   		.ascii "y1\0"
 5016 3ca7 02       		.byte	0x2
 5017 3ca8 3402     		.word	0x234
 5018 3caa 0D       		.byte	0xd
 5019 3cab 22010000 		.long	0x122
 5020 3caf 02       		.byte	0x2
 5021 3cb0 03       		.uleb128 0x3
 5022 3cb1 783200   		.ascii "x2\0"
GAS LISTING C:\Users\lsw\AppData\Local\Temp\ccSZcLze.s 			page 148


 5023 3cb4 02       		.byte	0x2
 5024 3cb5 3502     		.word	0x235
 5025 3cb7 0D       		.byte	0xd
 5026 3cb8 22010000 		.long	0x122
 5027 3cbc 04       		.byte	0x4
 5028 3cbd 03       		.uleb128 0x3
 5029 3cbe 793200   		.ascii "y2\0"
 5030 3cc1 02       		.byte	0x2
 5031 3cc2 3602     		.word	0x236
 5032 3cc4 0D       		.byte	0xd
 5033 3cc5 22010000 		.long	0x122
 5034 3cc9 06       		.byte	0x6
 5035 3cca 00       		.byte	0
 5036 3ccb 19       		.uleb128 0x19
 5037 3ccc 73676C5F 		.ascii "sgl_area_t\0"
 5037      61726561 
 5037      5F7400
 5038 3cd7 02       		.byte	0x2
 5039 3cd8 3702     		.word	0x237
 5040 3cda 853C0000 		.long	0x3c85
 5041 3cde 20       		.uleb128 0x20
 5042 3cdf 73676C5F 		.ascii "sgl_surf\0"
 5042      73757266 
 5042      00
 5043 3ce8 20       		.byte	0x20
 5044 3ce9 4802     		.word	0x248
 5045 3ceb 693D0000 		.long	0x3d69
 5046 3cef 03       		.uleb128 0x3
 5047 3cf0 783100   		.ascii "x1\0"
 5048 3cf3 02       		.byte	0x2
 5049 3cf4 4902     		.word	0x249
 5050 3cf6 12       		.byte	0x12
 5051 3cf7 22010000 		.long	0x122
 5052 3cfb 00       		.byte	0
 5053 3cfc 03       		.uleb128 0x3
 5054 3cfd 793100   		.ascii "y1\0"
 5055 3d00 02       		.byte	0x2
 5056 3d01 4A02     		.word	0x24a
 5057 3d03 12       		.byte	0x12
 5058 3d04 22010000 		.long	0x122
 5059 3d08 02       		.byte	0x2
 5060 3d09 03       		.uleb128 0x3
 5061 3d0a 783200   		.ascii "x2\0"
 5062 3d0d 02       		.byte	0x2
 5063 3d0e 4B02     		.word	0x24b
 5064 3d10 12       		.byte	0x12
 5065 3d11 22010000 		.long	0x122
 5066 3d15 04       		.byte	0x4
 5067 3d16 03       		.uleb128 0x3
 5068 3d17 793200   		.ascii "y2\0"
 5069 3d1a 02       		.byte	0x2
 5070 3d1b 4C02     		.word	0x24c
 5071 3d1d 12       		.byte	0x12
 5072 3d1e 22010000 		.long	0x122
 5073 3d22 06       		.byte	0x6
 5074 3d23 02       		.uleb128 0x2
 5075 3d24 98020000 		.secrel32	.LASF2
GAS LISTING C:\Users\lsw\AppData\Local\Temp\ccSZcLze.s 			page 149


 5076 3d28 02       		.byte	0x2
 5077 3d29 4D02     		.word	0x24d
 5078 3d2b 12       		.byte	0x12
 5079 3d2c 693D0000 		.long	0x3d69
 5080 3d30 08       		.byte	0x8
 5081 3d31 03       		.uleb128 0x3
 5082 3d32 73697A65 		.ascii "size\0"
 5082      00
 5083 3d37 02       		.byte	0x2
 5084 3d38 4E02     		.word	0x24e
 5085 3d3a 12       		.byte	0x12
 5086 3d3b 96010000 		.long	0x196
 5087 3d3f 10       		.byte	0x10
 5088 3d40 03       		.uleb128 0x3
 5089 3d41 7700     		.ascii "w\0"
 5090 3d43 02       		.byte	0x2
 5091 3d44 4F02     		.word	0x24f
 5092 3d46 12       		.byte	0x12
 5093 3d47 85010000 		.long	0x185
 5094 3d4b 14       		.byte	0x14
 5095 3d4c 03       		.uleb128 0x3
 5096 3d4d 6800     		.ascii "h\0"
 5097 3d4f 02       		.byte	0x2
 5098 3d50 5002     		.word	0x250
 5099 3d52 12       		.byte	0x12
 5100 3d53 85010000 		.long	0x185
 5101 3d57 16       		.byte	0x16
 5102 3d58 03       		.uleb128 0x3
 5103 3d59 64697274 		.ascii "dirty\0"
 5103      7900
 5104 3d5f 02       		.byte	0x2
 5105 3d60 5102     		.word	0x251
 5106 3d62 13       		.byte	0x13
 5107 3d63 6E3D0000 		.long	0x3d6e
 5108 3d67 18       		.byte	0x18
 5109 3d68 00       		.byte	0
 5110 3d69 09       		.uleb128 0x9
 5111 3d6a 6F3C0000 		.long	0x3c6f
 5112 3d6e 09       		.uleb128 0x9
 5113 3d6f CB3C0000 		.long	0x3ccb
 5114 3d73 19       		.uleb128 0x19
 5115 3d74 73676C5F 		.ascii "sgl_surf_t\0"
 5115      73757266 
 5115      5F7400
 5116 3d7f 02       		.byte	0x2
 5117 3d80 5202     		.word	0x252
 5118 3d82 DE3C0000 		.long	0x3cde
 5119 3d86 20       		.uleb128 0x20
 5120 3d87 73676C5F 		.ascii "sgl_obj\0"
 5120      6F626A00 
 5121 3d8f 30       		.byte	0x30
 5122 3d90 C002     		.word	0x2c0
 5123 3d92 7A3E0000 		.long	0x3e7a
 5124 3d96 03       		.uleb128 0x3
 5125 3d97 636F6F72 		.ascii "coords\0"
 5125      647300
 5126 3d9e 02       		.byte	0x2
GAS LISTING C:\Users\lsw\AppData\Local\Temp\ccSZcLze.s 			page 150


 5127 3d9f C102     		.word	0x2c1
 5128 3da1 15       		.byte	0x15
 5129 3da2 CB3C0000 		.long	0x3ccb
 5130 3da6 00       		.byte	0
 5131 3da7 03       		.uleb128 0x3
 5132 3da8 636F6E73 		.ascii "construct_fn\0"
 5132      74727563 
 5132      745F666E 
 5132      00
 5133 3db5 02       		.byte	0x2
 5134 3db6 C202     		.word	0x2c2
 5135 3db8 17       		.byte	0x17
 5136 3db9 993E0000 		.long	0x3e99
 5137 3dbd 08       		.byte	0x8
 5138 3dbe 03       		.uleb128 0x3
 5139 3dbf 70617265 		.ascii "parent\0"
 5139      6E7400
 5140 3dc6 02       		.byte	0x2
 5141 3dc7 C302     		.word	0x2c3
 5142 3dc9 16       		.byte	0x16
 5143 3dca 943E0000 		.long	0x3e94
 5144 3dce 10       		.byte	0x10
 5145 3dcf 03       		.uleb128 0x3
 5146 3dd0 6368696C 		.ascii "child\0"
 5146      6400
 5147 3dd6 02       		.byte	0x2
 5148 3dd7 C402     		.word	0x2c4
 5149 3dd9 16       		.byte	0x16
 5150 3dda 943E0000 		.long	0x3e94
 5151 3dde 18       		.byte	0x18
 5152 3ddf 03       		.uleb128 0x3
 5153 3de0 7369626C 		.ascii "sibling\0"
 5153      696E6700 
 5154 3de8 02       		.byte	0x2
 5155 3de9 C502     		.word	0x2c5
 5156 3deb 16       		.byte	0x16
 5157 3dec 943E0000 		.long	0x3e94
 5158 3df0 20       		.byte	0x20
 5159 3df1 1D       		.uleb128 0x1d
 5160 3df2 64657374 		.ascii "destroyed\0"
 5160      726F7965 
 5160      6400
 5161 3dfc C602     		.word	0x2c6
 5162 3dfe 5F010000 		.long	0x15f
 5163 3e02 01       		.byte	0x1
 5164 3e03 4001     		.word	0x140
 5165 3e05 1D       		.uleb128 0x1d
 5166 3e06 64697274 		.ascii "dirty\0"
 5166      7900
 5167 3e0c C702     		.word	0x2c7
 5168 3e0e 5F010000 		.long	0x15f
 5169 3e12 01       		.byte	0x1
 5170 3e13 4101     		.word	0x141
 5171 3e15 1D       		.uleb128 0x1d
 5172 3e16 68696465 		.ascii "hide\0"
 5172      00
 5173 3e1b C802     		.word	0x2c8
GAS LISTING C:\Users\lsw\AppData\Local\Temp\ccSZcLze.s 			page 151


 5174 3e1d 5F010000 		.long	0x15f
 5175 3e21 01       		.byte	0x1
 5176 3e22 4201     		.word	0x142
 5177 3e24 1D       		.uleb128 0x1d
 5178 3e25 6E656564 		.ascii "needinit\0"
 5178      696E6974 
 5178      00
 5179 3e2e C902     		.word	0x2c9
 5180 3e30 5F010000 		.long	0x15f
 5181 3e34 01       		.byte	0x1
 5182 3e35 4301     		.word	0x143
 5183 3e37 1D       		.uleb128 0x1d
 5184 3e38 70616765 		.ascii "page\0"
 5184      00
 5185 3e3d CA02     		.word	0x2ca
 5186 3e3f 5F010000 		.long	0x15f
 5187 3e43 01       		.byte	0x1
 5188 3e44 4401     		.word	0x144
 5189 3e46 1D       		.uleb128 0x1d
 5190 3e47 6C61796F 		.ascii "layout\0"
 5190      757400
 5191 3e4e CB02     		.word	0x2cb
 5192 3e50 5F010000 		.long	0x15f
 5193 3e54 02       		.byte	0x2
 5194 3e55 4501     		.word	0x145
 5195 3e57 03       		.uleb128 0x3
 5196 3e58 626F7264 		.ascii "border\0"
 5196      657200
 5197 3e5f 02       		.byte	0x2
 5198 3e60 CC02     		.word	0x2cc
 5199 3e62 15       		.byte	0x15
 5200 3e63 5F010000 		.long	0x15f
 5201 3e67 29       		.byte	0x29
 5202 3e68 03       		.uleb128 0x3
 5203 3e69 72616469 		.ascii "radius\0"
 5203      757300
 5204 3e70 02       		.byte	0x2
 5205 3e71 CD02     		.word	0x2cd
 5206 3e73 15       		.byte	0x15
 5207 3e74 5F010000 		.long	0x15f
 5208 3e78 2A       		.byte	0x2a
 5209 3e79 00       		.byte	0
 5210 3e7a 2C       		.uleb128 0x2c
 5211 3e7b 8F3E0000 		.long	0x3e8f
 5212 3e7f 04       		.uleb128 0x4
 5213 3e80 8F3E0000 		.long	0x3e8f
 5214 3e84 04       		.uleb128 0x4
 5215 3e85 943E0000 		.long	0x3e94
 5216 3e89 04       		.uleb128 0x4
 5217 3e8a 6E3D0000 		.long	0x3d6e
 5218 3e8e 00       		.byte	0
 5219 3e8f 09       		.uleb128 0x9
 5220 3e90 733D0000 		.long	0x3d73
 5221 3e94 09       		.uleb128 0x9
 5222 3e95 863D0000 		.long	0x3d86
 5223 3e99 09       		.uleb128 0x9
 5224 3e9a 7A3E0000 		.long	0x3e7a
GAS LISTING C:\Users\lsw\AppData\Local\Temp\ccSZcLze.s 			page 152


 5225 3e9e 19       		.uleb128 0x19
 5226 3e9f 73676C5F 		.ascii "sgl_obj_t\0"
 5226      6F626A5F 
 5226      7400
 5227 3ea9 02       		.byte	0x2
 5228 3eaa CE02     		.word	0x2ce
 5229 3eac 863D0000 		.long	0x3d86
 5230 3eb0 09       		.uleb128 0x9
 5231 3eb1 9E3E0000 		.long	0x3e9e
 5232 3eb5 20       		.uleb128 0x20
 5233 3eb6 73676C5F 		.ascii "sgl_fbinfo\0"
 5233      6662696E 
 5233      666F00
 5234 3ec1 20       		.byte	0x20
 5235 3ec2 EF02     		.word	0x2ef
 5236 3ec4 203F0000 		.long	0x3f20
 5237 3ec8 02       		.uleb128 0x2
 5238 3ec9 98020000 		.secrel32	.LASF2
 5239 3ecd 02       		.byte	0x2
 5240 3ece F002     		.word	0x2f0
 5241 3ed0 10       		.byte	0x10
 5242 3ed1 203F0000 		.long	0x3f20
 5243 3ed5 00       		.byte	0
 5244 3ed6 03       		.uleb128 0x3
 5245 3ed7 62756666 		.ascii "buffer_size\0"
 5245      65725F73 
 5245      697A6500 
 5246 3ee3 02       		.byte	0x2
 5247 3ee4 F102     		.word	0x2f1
 5248 3ee6 10       		.byte	0x10
 5249 3ee7 96010000 		.long	0x196
 5250 3eeb 10       		.byte	0x10
 5251 3eec 03       		.uleb128 0x3
 5252 3eed 78726573 		.ascii "xres\0"
 5252      00
 5253 3ef2 02       		.byte	0x2
 5254 3ef3 F202     		.word	0x2f2
 5255 3ef5 10       		.byte	0x10
 5256 3ef6 22010000 		.long	0x122
 5257 3efa 14       		.byte	0x14
 5258 3efb 03       		.uleb128 0x3
 5259 3efc 79726573 		.ascii "yres\0"
 5259      00
 5260 3f01 02       		.byte	0x2
 5261 3f02 F302     		.word	0x2f3
 5262 3f04 10       		.byte	0x10
 5263 3f05 22010000 		.long	0x122
 5264 3f09 16       		.byte	0x16
 5265 3f0a 03       		.uleb128 0x3
 5266 3f0b 666C7573 		.ascii "flush_area\0"
 5266      685F6172 
 5266      656100
 5267 3f16 02       		.byte	0x2
 5268 3f17 F402     		.word	0x2f4
 5269 3f19 12       		.byte	0x12
 5270 3f1a 403F0000 		.long	0x3f40
 5271 3f1e 18       		.byte	0x18
GAS LISTING C:\Users\lsw\AppData\Local\Temp\ccSZcLze.s 			page 153


 5272 3f1f 00       		.byte	0
 5273 3f20 14       		.uleb128 0x14
 5274 3f21 39020000 		.long	0x239
 5275 3f25 303F0000 		.long	0x3f30
 5276 3f29 1C       		.uleb128 0x1c
 5277 3f2a AF000000 		.long	0xaf
 5278 3f2e 01       		.byte	0x1
 5279 3f2f 00       		.byte	0
 5280 3f30 2C       		.uleb128 0x2c
 5281 3f31 403F0000 		.long	0x3f40
 5282 3f35 04       		.uleb128 0x4
 5283 3f36 6E3D0000 		.long	0x3d6e
 5284 3f3a 04       		.uleb128 0x4
 5285 3f3b 693D0000 		.long	0x3d69
 5286 3f3f 00       		.byte	0
 5287 3f40 09       		.uleb128 0x9
 5288 3f41 303F0000 		.long	0x3f30
 5289 3f45 19       		.uleb128 0x19
 5290 3f46 73676C5F 		.ascii "sgl_fbinfo_t\0"
 5290      6662696E 
 5290      666F5F74 
 5290      00
 5291 3f53 02       		.byte	0x2
 5292 3f54 F502     		.word	0x2f5
 5293 3f56 B53E0000 		.long	0x3eb5
 5294 3f5a 20       		.uleb128 0x20
 5295 3f5b 73676C5F 		.ascii "sgl_fbdev\0"
 5295      66626465 
 5295      7600
 5296 3f65 58       		.byte	0x58
 5297 3f66 0203     		.word	0x302
 5298 3f68 D43F0000 		.long	0x3fd4
 5299 3f6c 03       		.uleb128 0x3
 5300 3f6d 6662696E 		.ascii "fbinfo\0"
 5300      666F00
 5301 3f74 02       		.byte	0x2
 5302 3f75 0303     		.word	0x303
 5303 3f77 17       		.byte	0x17
 5304 3f78 453F0000 		.long	0x3f45
 5305 3f7c 00       		.byte	0
 5306 3f7d 03       		.uleb128 0x3
 5307 3f7e 73757266 		.ascii "surf\0"
 5307      00
 5308 3f83 02       		.byte	0x2
 5309 3f84 0403     		.word	0x304
 5310 3f86 17       		.byte	0x17
 5311 3f87 733D0000 		.long	0x3d73
 5312 3f8b 20       		.byte	0x20
 5313 3f8c 03       		.uleb128 0x3
 5314 3f8d 64697274 		.ascii "dirty\0"
 5314      7900
 5315 3f93 02       		.byte	0x2
 5316 3f94 0503     		.word	0x305
 5317 3f96 17       		.byte	0x17
 5318 3f97 CB3C0000 		.long	0x3ccb
 5319 3f9b 40       		.byte	0x40
 5320 3f9c 03       		.uleb128 0x3
GAS LISTING C:\Users\lsw\AppData\Local\Temp\ccSZcLze.s 			page 154


 5321 3f9d 66625F73 		.ascii "fb_swap\0"
 5321      77617000 
 5322 3fa5 02       		.byte	0x2
 5323 3fa6 0603     		.word	0x306
 5324 3fa8 17       		.byte	0x17
 5325 3fa9 5F010000 		.long	0x15f
 5326 3fad 48       		.byte	0x48
 5327 3fae 03       		.uleb128 0x3
 5328 3faf 66625F73 		.ascii "fb_status\0"
 5328      74617475 
 5328      7300
 5329 3fb9 02       		.byte	0x2
 5330 3fba 0703     		.word	0x307
 5331 3fbc 17       		.byte	0x17
 5332 3fbd 6F010000 		.long	0x16f
 5333 3fc1 49       		.byte	0x49
 5334 3fc2 03       		.uleb128 0x3
 5335 3fc3 61637469 		.ascii "active\0"
 5335      766500
 5336 3fca 02       		.byte	0x2
 5337 3fcb 0803     		.word	0x308
 5338 3fcd 18       		.byte	0x18
 5339 3fce B03E0000 		.long	0x3eb0
 5340 3fd2 50       		.byte	0x50
 5341 3fd3 00       		.byte	0
 5342 3fd4 19       		.uleb128 0x19
 5343 3fd5 73676C5F 		.ascii "sgl_fbdev_t\0"
 5343      66626465 
 5343      765F7400 
 5344 3fe1 02       		.byte	0x2
 5345 3fe2 0903     		.word	0x309
 5346 3fe4 5A3F0000 		.long	0x3f5a
 5347 3fe8 41       		.uleb128 0x41
 5348 3fe9 85020000 		.secrel32	.LASF60
 5349 3fed 6828     		.word	0x2868
 5350 3fef 02       		.byte	0x2
 5351 3ff0 1103     		.word	0x311
 5352 3ff2 10       		.byte	0x10
 5353 3ff3 3E400000 		.long	0x403e
 5354 3ff7 03       		.uleb128 0x3
 5355 3ff8 6C6F6764 		.ascii "logdev\0"
 5355      657600
 5356 3fff 02       		.byte	0x2
 5357 4000 1203     		.word	0x312
 5358 4002 1A       		.byte	0x1a
 5359 4003 49400000 		.long	0x4049
 5360 4007 00       		.byte	0
 5361 4008 03       		.uleb128 0x3
 5362 4009 66626465 		.ascii "fbdev\0"
 5362      7600
 5363 400f 02       		.byte	0x2
 5364 4010 1303     		.word	0x313
 5365 4012 18       		.byte	0x18
 5366 4013 D43F0000 		.long	0x3fd4
 5367 4017 08       		.byte	0x8
 5368 4018 03       		.uleb128 0x3
 5369 4019 7469636B 		.ascii "tick_ms\0"
GAS LISTING C:\Users\lsw\AppData\Local\Temp\ccSZcLze.s 			page 155


 5369      5F6D7300 
 5370 4021 02       		.byte	0x2
 5371 4022 1403     		.word	0x314
 5372 4024 18       		.byte	0x18
 5373 4025 A7010000 		.long	0x1a7
 5374 4029 60       		.byte	0x60
 5375 402a 03       		.uleb128 0x3
 5376 402b 6D656D5F 		.ascii "mem_pool\0"
 5376      706F6F6C 
 5376      00
 5377 4034 02       		.byte	0x2
 5378 4035 1803     		.word	0x318
 5379 4037 18       		.byte	0x18
 5380 4038 4E400000 		.long	0x404e
 5381 403c 64       		.byte	0x64
 5382 403d 00       		.byte	0
 5383 403e 2C       		.uleb128 0x2c
 5384 403f 49400000 		.long	0x4049
 5385 4043 04       		.uleb128 0x4
 5386 4044 45020000 		.long	0x245
 5387 4048 00       		.byte	0
 5388 4049 09       		.uleb128 0x9
 5389 404a 3E400000 		.long	0x403e
 5390 404e 14       		.uleb128 0x14
 5391 404f 5F010000 		.long	0x15f
 5392 4053 5F400000 		.long	0x405f
 5393 4057 31       		.uleb128 0x31
 5394 4058 AF000000 		.long	0xaf
 5395 405c FF27     		.word	0x27ff
 5396 405e 00       		.byte	0
 5397 405f 19       		.uleb128 0x19
 5398 4060 73676C5F 		.ascii "sgl_system_t\0"
 5398      73797374 
 5398      656D5F74 
 5398      00
 5399 406d 02       		.byte	0x2
 5400 406e 1903     		.word	0x319
 5401 4070 E83F0000 		.long	0x3fe8
 5402 4074 42       		.uleb128 0x42
 5403 4075 85020000 		.secrel32	.LASF60
 5404 4079 02       		.byte	0x2
 5405 407a BB03     		.word	0x3bb
 5406 407c 15       		.byte	0x15
 5407 407d 5F400000 		.long	0x405f
 5408 4081 2A       		.uleb128 0x2a
 5409 4082 73676C5F 		.ascii "sgl_mm_monitor\0"
 5409      6D6D5F6D 
 5409      6F6E6974 
 5409      6F7200
 5410 4091 20       		.byte	0x20
 5411 4092 16       		.byte	0x16
 5412 4093 23       		.byte	0x23
 5413 4094 10       		.byte	0x10
 5414 4095 E7400000 		.long	0x40e7
 5415 4099 07       		.uleb128 0x7
 5416 409a 746F7461 		.ascii "total_size\0"
 5416      6C5F7369 
GAS LISTING C:\Users\lsw\AppData\Local\Temp\ccSZcLze.s 			page 156


 5416      7A6500
 5417 40a5 16       		.byte	0x16
 5418 40a6 24       		.byte	0x24
 5419 40a7 0D       		.byte	0xd
 5420 40a8 A0000000 		.long	0xa0
 5421 40ac 00       		.byte	0
 5422 40ad 07       		.uleb128 0x7
 5423 40ae 66726565 		.ascii "free_size\0"
 5423      5F73697A 
 5423      6500
 5424 40b8 16       		.byte	0x16
 5425 40b9 25       		.byte	0x25
 5426 40ba 0D       		.byte	0xd
 5427 40bb A0000000 		.long	0xa0
 5428 40bf 08       		.byte	0x8
 5429 40c0 07       		.uleb128 0x7
 5430 40c1 75736564 		.ascii "used_size\0"
 5430      5F73697A 
 5430      6500
 5431 40cb 16       		.byte	0x16
 5432 40cc 26       		.byte	0x26
 5433 40cd 0D       		.byte	0xd
 5434 40ce A0000000 		.long	0xa0
 5435 40d2 10       		.byte	0x10
 5436 40d3 07       		.uleb128 0x7
 5437 40d4 75736564 		.ascii "used_rate\0"
 5437      5F726174 
 5437      6500
 5438 40de 16       		.byte	0x16
 5439 40df 27       		.byte	0x27
 5440 40e0 0D       		.byte	0xd
 5441 40e1 A0000000 		.long	0xa0
 5442 40e5 18       		.byte	0x18
 5443 40e6 00       		.byte	0
 5444 40e7 0E       		.uleb128 0xe
 5445 40e8 73676C5F 		.ascii "sgl_mm_monitor_t\0"
 5445      6D6D5F6D 
 5445      6F6E6974 
 5445      6F725F74 
 5445      00
 5446 40f9 16       		.byte	0x16
 5447 40fa 29       		.byte	0x29
 5448 40fb 03       		.byte	0x3
 5449 40fc 81400000 		.long	0x4081
 5450 4100 43       		.uleb128 0x43
 5451 4101 37000000 		.secrel32	.LASF63
 5452 4105 01       		.byte	0x1
 5453 4106 26       		.byte	0x26
 5454 4107 17       		.byte	0x17
 5455 4108 16410000 		.long	0x4116
 5456 410c 09       		.uleb128 0x9
 5457 410d 03       		.byte	0x3
 5458 410e 00000000 		.quad	m_renderer
 5458      00000000 
 5459 4116 09       		.uleb128 0x9
 5460 4117 7F3B0000 		.long	0x3b7f
 5461 411b 2A       		.uleb128 0x2a
GAS LISTING C:\Users\lsw\AppData\Local\Temp\ccSZcLze.s 			page 157


 5462 411c 73676C5F 		.ascii "sgl_port_sdl2\0"
 5462      706F7274 
 5462      5F73646C 
 5462      3200
 5463 412a 18       		.byte	0x18
 5464 412b 01       		.byte	0x1
 5465 412c 28       		.byte	0x28
 5466 412d 10       		.byte	0x10
 5467 412e 73410000 		.long	0x4173
 5468 4132 0A       		.uleb128 0xa
 5469 4133 D9020000 		.secrel32	.LASF61
 5470 4137 01       		.byte	0x1
 5471 4138 29       		.byte	0x29
 5472 4139 14       		.byte	0x14
 5473 413a 1C140000 		.long	0x141c
 5474 413e 00       		.byte	0
 5475 413f 07       		.uleb128 0x7
 5476 4140 73797374 		.ascii "systick\0"
 5476      69636B00 
 5477 4148 01       		.byte	0x1
 5478 4149 2A       		.byte	0x2a
 5479 414a 13       		.byte	0x13
 5480 414b D43B0000 		.long	0x3bd4
 5481 414f 08       		.byte	0x8
 5482 4150 0A       		.uleb128 0xa
 5483 4151 58010000 		.secrel32	.LASF62
 5484 4155 01       		.byte	0x1
 5485 4156 2B       		.byte	0x2b
 5486 4157 13       		.byte	0x13
 5487 4158 D43B0000 		.long	0x3bd4
 5488 415c 0C       		.byte	0xc
 5489 415d 07       		.uleb128 0x7
 5490 415e 6672616D 		.ascii "frame_count\0"
 5490      655F636F 
 5490      756E7400 
 5491 416a 01       		.byte	0x1
 5492 416b 2C       		.byte	0x2c
 5493 416c 13       		.byte	0x13
 5494 416d A0000000 		.long	0xa0
 5495 4171 10       		.byte	0x10
 5496 4172 00       		.byte	0
 5497 4173 0E       		.uleb128 0xe
 5498 4174 73676C5F 		.ascii "sgl_port_sdl2_t\0"
 5498      706F7274 
 5498      5F73646C 
 5498      325F7400 
 5499 4184 01       		.byte	0x1
 5500 4185 2D       		.byte	0x2d
 5501 4186 03       		.byte	0x3
 5502 4187 1B410000 		.long	0x411b
 5503 418b 14       		.uleb128 0x14
 5504 418c 6F3C0000 		.long	0x3c6f
 5505 4190 9E410000 		.long	0x419e
 5506 4194 44       		.uleb128 0x44
 5507 4195 AF000000 		.long	0xaf
 5508 4199 3F0A0100 		.long	0x10a3f
 5509 419d 00       		.byte	0
GAS LISTING C:\Users\lsw\AppData\Local\Temp\ccSZcLze.s 			page 158


 5510 419e 45       		.uleb128 0x45
 5511 419f 73646C32 		.ascii "sdl2_frame_buffer\0"
 5511      5F667261 
 5511      6D655F62 
 5511      75666665 
 5511      7200
 5512 41b1 01       		.byte	0x1
 5513 41b2 3B       		.byte	0x3b
 5514 41b3 0D       		.byte	0xd
 5515 41b4 8B410000 		.long	0x418b
 5516 41b8 09       		.uleb128 0x9
 5517 41b9 03       		.byte	0x3
 5518 41ba 00000000 		.quad	sdl2_frame_buffer
 5518      00000000 
 5519 41c2 14       		.uleb128 0x14
 5520 41c3 6F3C0000 		.long	0x3c6f
 5521 41c7 D3410000 		.long	0x41d3
 5522 41cb 31       		.uleb128 0x31
 5523 41cc AF000000 		.long	0xaf
 5524 41d0 BF03     		.word	0x3bf
 5525 41d2 00       		.byte	0
 5526 41d3 24       		.uleb128 0x24
 5527 41d4 70616E65 		.ascii "panel_buffer0\0"
 5527      6C5F6275 
 5527      66666572 
 5527      3000
 5528 41e2 90       		.byte	0x90
 5529 41e3 14       		.byte	0x14
 5530 41e4 C2410000 		.long	0x41c2
 5531 41e8 09       		.uleb128 0x9
 5532 41e9 03       		.byte	0x3
 5533 41ea 00000000 		.quad	panel_buffer0
 5533      00000000 
 5534 41f2 24       		.uleb128 0x24
 5535 41f3 70616E65 		.ascii "panel_buffer1\0"
 5535      6C5F6275 
 5535      66666572 
 5535      3100
 5536 4201 91       		.byte	0x91
 5537 4202 14       		.byte	0x14
 5538 4203 C2410000 		.long	0x41c2
 5539 4207 09       		.uleb128 0x9
 5540 4208 03       		.byte	0x3
 5541 4209 00000000 		.quad	panel_buffer1
 5541      00000000 
 5542 4211 16       		.uleb128 0x16
 5543 4212 53444C5F 		.ascii "SDL_DestroyRenderer\0"
 5543      44657374 
 5543      726F7952 
 5543      656E6465 
 5543      72657200 
 5544 4226 13       		.byte	0x13
 5545 4227 E606     		.word	0x6e6
 5546 4229 1E       		.byte	0x1e
 5547 422a 34420000 		.long	0x4234
 5548 422e 04       		.uleb128 0x4
 5549 422f 16410000 		.long	0x4116
GAS LISTING C:\Users\lsw\AppData\Local\Temp\ccSZcLze.s 			page 159


 5550 4233 00       		.byte	0
 5551 4234 16       		.uleb128 0x16
 5552 4235 53444C5F 		.ascii "SDL_DestroyWindow\0"
 5552      44657374 
 5552      726F7957 
 5552      696E646F 
 5552      7700
 5553 4247 0A       		.byte	0xa
 5554 4248 B206     		.word	0x6b2
 5555 424a 1E       		.byte	0x1e
 5556 424b 55420000 		.long	0x4255
 5557 424f 04       		.uleb128 0x4
 5558 4250 1C140000 		.long	0x141c
 5559 4254 00       		.byte	0
 5560 4255 17       		.uleb128 0x17
 5561 4256 53444C5F 		.ascii "SDL_RemoveTimer\0"
 5561      52656D6F 
 5561      76655469 
 5561      6D657200 
 5562 4266 14       		.byte	0x14
 5563 4267 D3       		.byte	0xd3
 5564 4268 22       		.byte	0x22
 5565 4269 CF010000 		.long	0x1cf
 5566 426d 77420000 		.long	0x4277
 5567 4271 04       		.uleb128 0x4
 5568 4272 D43B0000 		.long	0x3bd4
 5569 4276 00       		.byte	0
 5570 4277 15       		.uleb128 0x15
 5571 4278 53444C5F 		.ascii "SDL_RenderClear\0"
 5571      52656E64 
 5571      6572436C 
 5571      65617200 
 5572 4288 13       		.byte	0x13
 5573 4289 8004     		.word	0x480
 5574 428b 1D       		.byte	0x1d
 5575 428c F0000000 		.long	0xf0
 5576 4290 9A420000 		.long	0x429a
 5577 4294 04       		.uleb128 0x4
 5578 4295 16410000 		.long	0x4116
 5579 4299 00       		.byte	0
 5580 429a 15       		.uleb128 0x15
 5581 429b 53444C5F 		.ascii "SDL_SetRenderDrawColor\0"
 5581      53657452 
 5581      656E6465 
 5581      72447261 
 5581      77436F6C 
 5582 42b2 13       		.byte	0x13
 5583 42b3 2F04     		.word	0x42f
 5584 42b5 1D       		.byte	0x1d
 5585 42b6 F0000000 		.long	0xf0
 5586 42ba D8420000 		.long	0x42d8
 5587 42be 04       		.uleb128 0x4
 5588 42bf 16410000 		.long	0x4116
 5589 42c3 04       		.uleb128 0x4
 5590 42c4 E0010000 		.long	0x1e0
 5591 42c8 04       		.uleb128 0x4
 5592 42c9 E0010000 		.long	0x1e0
GAS LISTING C:\Users\lsw\AppData\Local\Temp\ccSZcLze.s 			page 160


 5593 42cd 04       		.uleb128 0x4
 5594 42ce E0010000 		.long	0x1e0
 5595 42d2 04       		.uleb128 0x4
 5596 42d3 E0010000 		.long	0x1e0
 5597 42d7 00       		.byte	0
 5598 42d8 16       		.uleb128 0x16
 5599 42d9 53444C5F 		.ascii "SDL_FreeSurface\0"
 5599      46726565 
 5599      53757266 
 5599      61636500 
 5600 42e9 09       		.byte	0x9
 5601 42ea 1001     		.word	0x110
 5602 42ec 1E       		.byte	0x1e
 5603 42ed F7420000 		.long	0x42f7
 5604 42f1 04       		.uleb128 0x4
 5605 42f2 F7420000 		.long	0x42f7
 5606 42f6 00       		.byte	0
 5607 42f7 09       		.uleb128 0x9
 5608 42f8 96110000 		.long	0x1196
 5609 42fc 16       		.uleb128 0x16
 5610 42fd 53444C5F 		.ascii "SDL_SetWindowIcon\0"
 5610      53657457 
 5610      696E646F 
 5610      7749636F 
 5610      6E00
 5611 430f 0A       		.byte	0xa
 5612 4310 4F03     		.word	0x34f
 5613 4312 1E       		.byte	0x1e
 5614 4313 22430000 		.long	0x4322
 5615 4317 04       		.uleb128 0x4
 5616 4318 1C140000 		.long	0x141c
 5617 431c 04       		.uleb128 0x4
 5618 431d F7420000 		.long	0x42f7
 5619 4321 00       		.byte	0
 5620 4322 15       		.uleb128 0x15
 5621 4323 53444C5F 		.ascii "SDL_LoadBMP_RW\0"
 5621      4C6F6164 
 5621      424D505F 
 5621      525700
 5622 4332 09       		.byte	0x9
 5623 4333 5901     		.word	0x159
 5624 4335 26       		.byte	0x26
 5625 4336 F7420000 		.long	0x42f7
 5626 433a 49430000 		.long	0x4349
 5627 433e 04       		.uleb128 0x4
 5628 433f 49430000 		.long	0x4349
 5629 4343 04       		.uleb128 0x4
 5630 4344 F0000000 		.long	0xf0
 5631 4348 00       		.byte	0
 5632 4349 09       		.uleb128 0x9
 5633 434a 6F040000 		.long	0x46f
 5634 434e 17       		.uleb128 0x17
 5635 434f 53444C5F 		.ascii "SDL_RWFromFile\0"
 5635      52574672 
 5635      6F6D4669 
 5635      6C6500
 5636 435e 06       		.byte	0x6
GAS LISTING C:\Users\lsw\AppData\Local\Temp\ccSZcLze.s 			page 161


 5637 435f DC       		.byte	0xdc
 5638 4360 24       		.byte	0x24
 5639 4361 49430000 		.long	0x4349
 5640 4365 74430000 		.long	0x4374
 5641 4369 04       		.uleb128 0x4
 5642 436a 45020000 		.long	0x245
 5643 436e 04       		.uleb128 0x4
 5644 436f 45020000 		.long	0x245
 5645 4373 00       		.byte	0
 5646 4374 16       		.uleb128 0x16
 5647 4375 53444C5F 		.ascii "SDL_SetWindowTitle\0"
 5647      53657457 
 5647      696E646F 
 5647      77546974 
 5647      6C6500
 5648 4388 0A       		.byte	0xa
 5649 4389 3703     		.word	0x337
 5650 438b 1E       		.byte	0x1e
 5651 438c 9B430000 		.long	0x439b
 5652 4390 04       		.uleb128 0x4
 5653 4391 1C140000 		.long	0x141c
 5654 4395 04       		.uleb128 0x4
 5655 4396 45020000 		.long	0x245
 5656 439a 00       		.byte	0
 5657 439b 17       		.uleb128 0x17
 5658 439c 53444C5F 		.ascii "SDL_CreateWindowAndRenderer\0"
 5658      43726561 
 5658      74655769 
 5658      6E646F77 
 5658      416E6452 
 5659 43b8 13       		.byte	0x13
 5660 43b9 CD       		.byte	0xcd
 5661 43ba 1D       		.byte	0x1d
 5662 43bb F0000000 		.long	0xf0
 5663 43bf DD430000 		.long	0x43dd
 5664 43c3 04       		.uleb128 0x4
 5665 43c4 F0000000 		.long	0xf0
 5666 43c8 04       		.uleb128 0x4
 5667 43c9 F0000000 		.long	0xf0
 5668 43cd 04       		.uleb128 0x4
 5669 43ce 1B020000 		.long	0x21b
 5670 43d2 04       		.uleb128 0x4
 5671 43d3 DD430000 		.long	0x43dd
 5672 43d7 04       		.uleb128 0x4
 5673 43d8 E2430000 		.long	0x43e2
 5674 43dc 00       		.byte	0
 5675 43dd 09       		.uleb128 0x9
 5676 43de 1C140000 		.long	0x141c
 5677 43e2 09       		.uleb128 0x9
 5678 43e3 16410000 		.long	0x4116
 5679 43e7 17       		.uleb128 0x17
 5680 43e8 6D656D63 		.ascii "memcpy\0"
 5680      707900
 5681 43ef 17       		.byte	0x17
 5682 43f0 32       		.byte	0x32
 5683 43f1 12       		.byte	0x12
 5684 43f2 39020000 		.long	0x239
GAS LISTING C:\Users\lsw\AppData\Local\Temp\ccSZcLze.s 			page 162


 5685 43f6 0A440000 		.long	0x440a
 5686 43fa 04       		.uleb128 0x4
 5687 43fb 3B020000 		.long	0x23b
 5688 43ff 04       		.uleb128 0x4
 5689 4400 50040000 		.long	0x450
 5690 4404 04       		.uleb128 0x4
 5691 4405 A0000000 		.long	0xa0
 5692 4409 00       		.byte	0
 5693 440a 46       		.uleb128 0x46
 5694 440b 73676C5F 		.ascii "sgl_mm_get_monitor\0"
 5694      6D6D5F67 
 5694      65745F6D 
 5694      6F6E6974 
 5694      6F7200
 5695 441e 16       		.byte	0x16
 5696 441f 60       		.byte	0x60
 5697 4420 12       		.byte	0x12
 5698 4421 E7400000 		.long	0x40e7
 5699 4425 17       		.uleb128 0x17
 5700 4426 53444C5F 		.ascii "SDL_AddTimer\0"
 5700      41646454 
 5700      696D6572 
 5700      00
 5701 4433 14       		.byte	0x14
 5702 4434 C4       		.byte	0xc4
 5703 4435 25       		.byte	0x25
 5704 4436 D43B0000 		.long	0x3bd4
 5705 443a 4E440000 		.long	0x444e
 5706 443e 04       		.uleb128 0x4
 5707 443f 1B020000 		.long	0x21b
 5708 4443 04       		.uleb128 0x4
 5709 4444 A13B0000 		.long	0x3ba1
 5710 4448 04       		.uleb128 0x4
 5711 4449 39020000 		.long	0x239
 5712 444d 00       		.byte	0
 5713 444e 47       		.uleb128 0x47
 5714 444f 73676C5F 		.ascii "sgl_free\0"
 5714      66726565 
 5714      00
 5715 4458 16       		.byte	0x16
 5716 4459 57       		.byte	0x57
 5717 445a 06       		.byte	0x6
 5718 445b 65440000 		.long	0x4465
 5719 445f 04       		.uleb128 0x4
 5720 4460 39020000 		.long	0x239
 5721 4464 00       		.byte	0
 5722 4465 17       		.uleb128 0x17
 5723 4466 53444C5F 		.ascii "SDL_Init\0"
 5723      496E6974 
 5723      00
 5724 446f 18       		.byte	0x18
 5725 4470 8F       		.byte	0x8f
 5726 4471 1D       		.byte	0x1d
 5727 4472 F0000000 		.long	0xf0
 5728 4476 80440000 		.long	0x4480
 5729 447a 04       		.uleb128 0x4
 5730 447b 1B020000 		.long	0x21b
GAS LISTING C:\Users\lsw\AppData\Local\Temp\ccSZcLze.s 			page 163


 5731 447f 00       		.byte	0
 5732 4480 16       		.uleb128 0x16
 5733 4481 73676C5F 		.ascii "sgl_log\0"
 5733      6C6F6700 
 5734 4489 02       		.byte	0x2
 5735 448a 2703     		.word	0x327
 5736 448c 06       		.byte	0x6
 5737 448d 9D440000 		.long	0x449d
 5738 4491 04       		.uleb128 0x4
 5739 4492 45020000 		.long	0x245
 5740 4496 04       		.uleb128 0x4
 5741 4497 45020000 		.long	0x245
 5742 449b 32       		.uleb128 0x32
 5743 449c 00       		.byte	0
 5744 449d 17       		.uleb128 0x17
 5745 449e 73676C5F 		.ascii "sgl_malloc\0"
 5745      6D616C6C 
 5745      6F6300
 5746 44a9 16       		.byte	0x16
 5747 44aa 44       		.byte	0x44
 5748 44ab 07       		.byte	0x7
 5749 44ac 39020000 		.long	0x239
 5750 44b0 BA440000 		.long	0x44ba
 5751 44b4 04       		.uleb128 0x4
 5752 44b5 A0000000 		.long	0xa0
 5753 44b9 00       		.byte	0
 5754 44ba 48       		.uleb128 0x48
 5755 44bb 73676C5F 		.ascii "sgl_init\0"
 5755      696E6974 
 5755      00
 5756 44c4 02       		.byte	0x2
 5757 44c5 9108     		.word	0x891
 5758 44c7 05       		.byte	0x5
 5759 44c8 F0000000 		.long	0xf0
 5760 44cc 15       		.uleb128 0x15
 5761 44cd 73676C5F 		.ascii "sgl_fbdev_register\0"
 5761      66626465 
 5761      765F7265 
 5761      67697374 
 5761      657200
 5762 44e0 02       		.byte	0x2
 5763 44e1 C403     		.word	0x3c4
 5764 44e3 05       		.byte	0x5
 5765 44e4 F0000000 		.long	0xf0
 5766 44e8 F2440000 		.long	0x44f2
 5767 44ec 04       		.uleb128 0x4
 5768 44ed F2440000 		.long	0x44f2
 5769 44f1 00       		.byte	0
 5770 44f2 09       		.uleb128 0x9
 5771 44f3 453F0000 		.long	0x3f45
 5772 44f7 15       		.uleb128 0x15
 5773 44f8 66666C75 		.ascii "fflush\0"
 5773      736800
 5774 44ff 15       		.byte	0x15
 5775 4500 7302     		.word	0x273
 5776 4502 0F       		.byte	0xf
 5777 4503 F0000000 		.long	0xf0
GAS LISTING C:\Users\lsw\AppData\Local\Temp\ccSZcLze.s 			page 164


 5778 4507 11450000 		.long	0x4511
 5779 450b 04       		.uleb128 0x4
 5780 450c 11450000 		.long	0x4511
 5781 4510 00       		.byte	0
 5782 4511 09       		.uleb128 0x9
 5783 4512 0F3C0000 		.long	0x3c0f
 5784 4516 17       		.uleb128 0x17
 5785 4517 5F5F6163 		.ascii "__acrt_iob_func\0"
 5785      72745F69 
 5785      6F625F66 
 5785      756E6300 
 5786 4527 15       		.byte	0x15
 5787 4528 5D       		.byte	0x5d
 5788 4529 17       		.byte	0x17
 5789 452a 11450000 		.long	0x4511
 5790 452e 38450000 		.long	0x4538
 5791 4532 04       		.uleb128 0x4
 5792 4533 03010000 		.long	0x103
 5793 4537 00       		.byte	0
 5794 4538 15       		.uleb128 0x15
 5795 4539 7072696E 		.ascii "printf\0"
 5795      746600
 5796 4540 15       		.byte	0x15
 5797 4541 F901     		.word	0x1f9
 5798 4543 0F       		.byte	0xf
 5799 4544 F0000000 		.long	0xf0
 5800 4548 53450000 		.long	0x4553
 5801 454c 04       		.uleb128 0x4
 5802 454d 4A020000 		.long	0x24a
 5803 4551 32       		.uleb128 0x32
 5804 4552 00       		.byte	0
 5805 4553 16       		.uleb128 0x16
 5806 4554 53444C5F 		.ascii "SDL_DestroyTexture\0"
 5806      44657374 
 5806      726F7954 
 5806      65787475 
 5806      726500
 5807 4567 13       		.byte	0x13
 5808 4568 DB06     		.word	0x6db
 5809 456a 1E       		.byte	0x1e
 5810 456b 75450000 		.long	0x4575
 5811 456f 04       		.uleb128 0x4
 5812 4570 75450000 		.long	0x4575
 5813 4574 00       		.byte	0
 5814 4575 09       		.uleb128 0x9
 5815 4576 903B0000 		.long	0x3b90
 5816 457a 16       		.uleb128 0x16
 5817 457b 53444C5F 		.ascii "SDL_RenderPresent\0"
 5817      52656E64 
 5817      65725072 
 5817      6573656E 
 5817      7400
 5818 458d 13       		.byte	0x13
 5819 458e CC06     		.word	0x6cc
 5820 4590 1E       		.byte	0x1e
 5821 4591 9B450000 		.long	0x459b
 5822 4595 04       		.uleb128 0x4
GAS LISTING C:\Users\lsw\AppData\Local\Temp\ccSZcLze.s 			page 165


 5823 4596 16410000 		.long	0x4116
 5824 459a 00       		.byte	0
 5825 459b 15       		.uleb128 0x15
 5826 459c 53444C5F 		.ascii "SDL_RenderCopy\0"
 5826      52656E64 
 5826      6572436F 
 5826      707900
 5827 45ab 13       		.byte	0x13
 5828 45ac 7905     		.word	0x579
 5829 45ae 1D       		.byte	0x1d
 5830 45af F0000000 		.long	0xf0
 5831 45b3 CC450000 		.long	0x45cc
 5832 45b7 04       		.uleb128 0x4
 5833 45b8 16410000 		.long	0x4116
 5834 45bc 04       		.uleb128 0x4
 5835 45bd 75450000 		.long	0x4575
 5836 45c1 04       		.uleb128 0x4
 5837 45c2 CC450000 		.long	0x45cc
 5838 45c6 04       		.uleb128 0x4
 5839 45c7 CC450000 		.long	0x45cc
 5840 45cb 00       		.byte	0
 5841 45cc 09       		.uleb128 0x9
 5842 45cd B4100000 		.long	0x10b4
 5843 45d1 15       		.uleb128 0x15
 5844 45d2 53444C5F 		.ascii "SDL_UpdateTexture\0"
 5844      55706461 
 5844      74655465 
 5844      78747572 
 5844      6500
 5845 45e4 13       		.byte	0x13
 5846 45e5 5502     		.word	0x255
 5847 45e7 1D       		.byte	0x1d
 5848 45e8 F0000000 		.long	0xf0
 5849 45ec 05460000 		.long	0x4605
 5850 45f0 04       		.uleb128 0x4
 5851 45f1 75450000 		.long	0x4575
 5852 45f5 04       		.uleb128 0x4
 5853 45f6 CC450000 		.long	0x45cc
 5854 45fa 04       		.uleb128 0x4
 5855 45fb 4B040000 		.long	0x44b
 5856 45ff 04       		.uleb128 0x4
 5857 4600 F0000000 		.long	0xf0
 5858 4604 00       		.byte	0
 5859 4605 15       		.uleb128 0x15
 5860 4606 53444C5F 		.ascii "SDL_CreateTexture\0"
 5860      43726561 
 5860      74655465 
 5860      78747572 
 5860      6500
 5861 4618 13       		.byte	0x13
 5862 4619 4D01     		.word	0x14d
 5863 461b 27       		.byte	0x27
 5864 461c 75450000 		.long	0x4575
 5865 4620 3E460000 		.long	0x463e
 5866 4624 04       		.uleb128 0x4
 5867 4625 16410000 		.long	0x4116
 5868 4629 04       		.uleb128 0x4
GAS LISTING C:\Users\lsw\AppData\Local\Temp\ccSZcLze.s 			page 166


 5869 462a 1B020000 		.long	0x21b
 5870 462e 04       		.uleb128 0x4
 5871 462f F0000000 		.long	0xf0
 5872 4633 04       		.uleb128 0x4
 5873 4634 F0000000 		.long	0xf0
 5874 4638 04       		.uleb128 0x4
 5875 4639 F0000000 		.long	0xf0
 5876 463d 00       		.byte	0
 5877 463e 25       		.uleb128 0x25
 5878 463f 73676C5F 		.ascii "sgl_port_sdl2_deinit\0"
 5878      706F7274 
 5878      5F73646C 
 5878      325F6465 
 5878      696E6974 
 5879 4654 D4       		.byte	0xd4
 5880 4655 00000000 		.quad	.LFB6958
 5880      00000000 
 5881 465d 31000000 		.quad	.LFE6958-.LFB6958
 5881      00000000 
 5882 4665 01       		.uleb128 0x1
 5883 4666 9C       		.byte	0x9c
 5884 4667 B3460000 		.long	0x46b3
 5885 466b 26       		.uleb128 0x26
 5886 466c C2000000 		.secrel32	.LASF64
 5887 4670 D4       		.byte	0xd4
 5888 4671 2C       		.byte	0x2c
 5889 4672 B3460000 		.long	0x46b3
 5890 4676 12000000 		.secrel32	.LLST27
 5891 467a 0C000000 		.secrel32	.LVUS27
 5892 467e 18       		.uleb128 0x18
 5893 467f 10000000 		.quad	.LVL83
 5893      00000000 
 5894 4687 55420000 		.long	0x4255
 5895 468b 18       		.uleb128 0x18
 5896 468c 18000000 		.quad	.LVL84
 5896      00000000 
 5897 4694 55420000 		.long	0x4255
 5898 4698 18       		.uleb128 0x18
 5899 4699 20000000 		.quad	.LVL85
 5899      00000000 
 5900 46a1 34420000 		.long	0x4234
 5901 46a5 27       		.uleb128 0x27
 5902 46a6 31000000 		.quad	.LVL87
 5902      00000000 
 5903 46ae 11420000 		.long	0x4211
 5904 46b2 00       		.byte	0
 5905 46b3 09       		.uleb128 0x9
 5906 46b4 73410000 		.long	0x4173
 5907 46b8 25       		.uleb128 0x25
 5908 46b9 73676C5F 		.ascii "sgl_port_sdl2_increase_frame_count\0"
 5908      706F7274 
 5908      5F73646C 
 5908      325F696E 
 5908      63726561 
 5909 46dc CE       		.byte	0xce
 5910 46dd 00000000 		.quad	.LFB6957
 5910      00000000 
GAS LISTING C:\Users\lsw\AppData\Local\Temp\ccSZcLze.s 			page 167


 5911 46e5 06000000 		.quad	.LFE6957-.LFB6957
 5911      00000000 
 5912 46ed 01       		.uleb128 0x1
 5913 46ee 9C       		.byte	0x9c
 5914 46ef 01470000 		.long	0x4701
 5915 46f3 33       		.uleb128 0x33
 5916 46f4 C2000000 		.secrel32	.LASF64
 5917 46f8 CE       		.byte	0xce
 5918 46f9 3A       		.byte	0x3a
 5919 46fa B3460000 		.long	0x46b3
 5920 46fe 01       		.uleb128 0x1
 5921 46ff 52       		.byte	0x52
 5922 4700 00       		.byte	0
 5923 4701 34       		.uleb128 0x34
 5924 4702 73676C5F 		.ascii "sgl_port_sdl2_get_frame_count\0"
 5924      706F7274 
 5924      5F73646C 
 5924      325F6765 
 5924      745F6672 
 5925 4720 C8       		.byte	0xc8
 5926 4721 08       		.byte	0x8
 5927 4722 A0000000 		.long	0xa0
 5928 4726 00000000 		.quad	.LFB6956
 5928      00000000 
 5929 472e 05000000 		.quad	.LFE6956-.LFB6956
 5929      00000000 
 5930 4736 01       		.uleb128 0x1
 5931 4737 9C       		.byte	0x9c
 5932 4738 4A470000 		.long	0x474a
 5933 473c 33       		.uleb128 0x33
 5934 473d C2000000 		.secrel32	.LASF64
 5935 4741 C8       		.byte	0xc8
 5936 4742 37       		.byte	0x37
 5937 4743 B3460000 		.long	0x46b3
 5938 4747 01       		.uleb128 0x1
 5939 4748 52       		.byte	0x52
 5940 4749 00       		.byte	0
 5941 474a 34       		.uleb128 0x34
 5942 474b 73676C5F 		.ascii "sgl_port_sdl2_init\0"
 5942      706F7274 
 5942      5F73646C 
 5942      325F696E 
 5942      697400
 5943 475e 9B       		.byte	0x9b
 5944 475f 12       		.byte	0x12
 5945 4760 B3460000 		.long	0x46b3
 5946 4764 00000000 		.quad	.LFB6955
 5946      00000000 
 5947 476c ED010000 		.quad	.LFE6955-.LFB6955
 5947      00000000 
 5948 4774 01       		.uleb128 0x1
 5949 4775 9C       		.byte	0x9c
 5950 4776 894A0000 		.long	0x4a89
 5951 477a 35       		.uleb128 0x35
 5952 477b C2000000 		.secrel32	.LASF64
 5953 477f 9D       		.byte	0x9d
 5954 4780 B3460000 		.long	0x46b3
GAS LISTING C:\Users\lsw\AppData\Local\Temp\ccSZcLze.s 			page 168


 5955 4784 40000000 		.secrel32	.LLST19
 5956 4788 2E000000 		.secrel32	.LVUS19
 5957 478c 24       		.uleb128 0x24
 5958 478d 66625F64 		.ascii "fb_dev\0"
 5958      657600
 5959 4794 9F       		.byte	0x9f
 5960 4795 12       		.byte	0x12
 5961 4796 453F0000 		.long	0x3f45
 5962 479a 02       		.uleb128 0x2
 5963 479b 91       		.byte	0x91
 5964 479c 40       		.sleb128 -64
 5965 479d 49       		.uleb128 0x49
 5966 479e FE4E0000 		.long	0x4efe
 5967 47a2 44000000 		.quad	.LBI25
 5967      00000000 
 5968 47aa 01       		.byte	.LVU123
 5969 47ab 2C000000 		.secrel32	.LLRL20
 5970 47af 01       		.byte	0x1
 5971 47b0 A8       		.byte	0xa8
 5972 47b1 05       		.byte	0x5
 5973 47b2 C4470000 		.long	0x47c4
 5974 47b6 21       		.uleb128 0x21
 5975 47b7 194F0000 		.long	0x4f19
 5976 47bb 87000000 		.secrel32	.LLST21
 5977 47bf 85000000 		.secrel32	.LVUS21
 5978 47c3 00       		.byte	0
 5979 47c4 4A       		.uleb128 0x4a
 5980 47c5 844E0000 		.long	0x4e84
 5981 47c9 8A000000 		.quad	.LBI31
 5981      00000000 
 5982 47d1 01       		.byte	.LVU142
 5983 47d2 8A000000 		.quad	.LBB31
 5983      00000000 
 5984 47da C6000000 		.quad	.LBE31-.LBB31
 5984      00000000 
 5985 47e2 01       		.byte	0x1
 5986 47e3 BA       		.byte	0xba
 5987 47e4 08       		.byte	0x8
 5988 47e5 44490000 		.long	0x4944
 5989 47e9 21       		.uleb128 0x21
 5990 47ea AE4E0000 		.long	0x4eae
 5991 47ee 9F000000 		.secrel32	.LLST22
 5992 47f2 9D000000 		.secrel32	.LVUS22
 5993 47f6 21       		.uleb128 0x21
 5994 47f7 B84E0000 		.long	0x4eb8
 5995 47fb B8000000 		.secrel32	.LLST23
 5996 47ff B6000000 		.secrel32	.LVUS23
 5997 4803 21       		.uleb128 0x21
 5998 4804 A44E0000 		.long	0x4ea4
 5999 4808 D1000000 		.secrel32	.LLST24
 6000 480c CF000000 		.secrel32	.LVUS24
 6001 4810 36       		.uleb128 0x36
 6002 4811 C64E0000 		.long	0x4ec6
 6003 4815 E3000000 		.secrel32	.LLST25
 6004 4819 DF000000 		.secrel32	.LVUS25
 6005 481d 4B       		.uleb128 0x4b
 6006 481e D24E0000 		.long	0x4ed2
GAS LISTING C:\Users\lsw\AppData\Local\Temp\ccSZcLze.s 			page 169


 6007 4822 00010000 		.quad	.LBB33
 6007      00000000 
 6008 482a 28000000 		.quad	.LBE33-.LBB33
 6008      00000000 
 6009 4832 44480000 		.long	0x4844
 6010 4836 36       		.uleb128 0x36
 6011 4837 D34E0000 		.long	0x4ed3
 6012 483b 03010000 		.secrel32	.LLST26
 6013 483f F7000000 		.secrel32	.LVUS26
 6014 4843 00       		.byte	0
 6015 4844 0F       		.uleb128 0xf
 6016 4845 AE000000 		.quad	.LVL52
 6016      00000000 
 6017 484d 9B430000 		.long	0x439b
 6018 4851 7C480000 		.long	0x487c
 6019 4855 06       		.uleb128 0x6
 6020 4856 01       		.uleb128 0x1
 6021 4857 52       		.byte	0x52
 6022 4858 02       		.uleb128 0x2
 6023 4859 08       		.byte	0x8
 6024 485a F0       		.byte	0xf0
 6025 485b 06       		.uleb128 0x6
 6026 485c 01       		.uleb128 0x1
 6027 485d 51       		.byte	0x51
 6028 485e 03       		.uleb128 0x3
 6029 485f 0A       		.byte	0xa
 6030 4860 1C01     		.word	0x11c
 6031 4862 06       		.uleb128 0x6
 6032 4863 01       		.uleb128 0x1
 6033 4864 58       		.byte	0x58
 6034 4865 01       		.uleb128 0x1
 6035 4866 34       		.byte	0x34
 6036 4867 06       		.uleb128 0x6
 6037 4868 01       		.uleb128 0x1
 6038 4869 59       		.byte	0x59
 6039 486a 02       		.uleb128 0x2
 6040 486b 73       		.byte	0x73
 6041 486c 00       		.sleb128 0
 6042 486d 06       		.uleb128 0x6
 6043 486e 02       		.uleb128 0x2
 6044 486f 77       		.byte	0x77
 6045 4870 20       		.sleb128 32
 6046 4871 09       		.uleb128 0x9
 6047 4872 03       		.byte	0x3
 6048 4873 00000000 		.quad	m_renderer
 6048      00000000 
 6049 487b 00       		.byte	0
 6050 487c 0F       		.uleb128 0xf
 6051 487d C5000000 		.quad	.LVL53
 6051      00000000 
 6052 4885 74430000 		.long	0x4374
 6053 4889 9B480000 		.long	0x489b
 6054 488d 06       		.uleb128 0x6
 6055 488e 01       		.uleb128 0x1
 6056 488f 51       		.byte	0x51
 6057 4890 09       		.uleb128 0x9
 6058 4891 03       		.byte	0x3
GAS LISTING C:\Users\lsw\AppData\Local\Temp\ccSZcLze.s 			page 170


 6059 4892 B2000000 		.quad	.LC7
 6059      00000000 
 6060 489a 00       		.byte	0
 6061 489b 0F       		.uleb128 0xf
 6062 489c D8000000 		.quad	.LVL54
 6062      00000000 
 6063 48a4 4E430000 		.long	0x434e
 6064 48a8 C7480000 		.long	0x48c7
 6065 48ac 06       		.uleb128 0x6
 6066 48ad 01       		.uleb128 0x1
 6067 48ae 52       		.byte	0x52
 6068 48af 09       		.uleb128 0x9
 6069 48b0 03       		.byte	0x3
 6070 48b1 C3000000 		.quad	.LC9
 6070      00000000 
 6071 48b9 06       		.uleb128 0x6
 6072 48ba 01       		.uleb128 0x1
 6073 48bb 51       		.byte	0x51
 6074 48bc 09       		.uleb128 0x9
 6075 48bd 03       		.byte	0x3
 6076 48be C0000000 		.quad	.LC8
 6076      00000000 
 6077 48c6 00       		.byte	0
 6078 48c7 0F       		.uleb128 0xf
 6079 48c8 E5000000 		.quad	.LVL55
 6079      00000000 
 6080 48d0 22430000 		.long	0x4322
 6081 48d4 DE480000 		.long	0x48de
 6082 48d8 06       		.uleb128 0x6
 6083 48d9 01       		.uleb128 0x1
 6084 48da 51       		.byte	0x51
 6085 48db 01       		.uleb128 0x1
 6086 48dc 31       		.byte	0x31
 6087 48dd 00       		.byte	0
 6088 48de 0F       		.uleb128 0xf
 6089 48df F8000000 		.quad	.LVL57
 6089      00000000 
 6090 48e7 FC420000 		.long	0x42fc
 6091 48eb F6480000 		.long	0x48f6
 6092 48ef 06       		.uleb128 0x6
 6093 48f0 01       		.uleb128 0x1
 6094 48f1 51       		.byte	0x51
 6095 48f2 02       		.uleb128 0x2
 6096 48f3 74       		.byte	0x74
 6097 48f4 00       		.sleb128 0
 6098 48f5 00       		.byte	0
 6099 48f6 0F       		.uleb128 0xf
 6100 48f7 00010000 		.quad	.LVL58
 6100      00000000 
 6101 48ff D8420000 		.long	0x42d8
 6102 4903 0E490000 		.long	0x490e
 6103 4907 06       		.uleb128 0x6
 6104 4908 01       		.uleb128 0x1
 6105 4909 52       		.byte	0x52
 6106 490a 02       		.uleb128 0x2
 6107 490b 74       		.byte	0x74
 6108 490c 00       		.sleb128 0
GAS LISTING C:\Users\lsw\AppData\Local\Temp\ccSZcLze.s 			page 171


 6109 490d 00       		.byte	0
 6110 490e 0F       		.uleb128 0xf
 6111 490f 44010000 		.quad	.LVL64
 6111      00000000 
 6112 4917 9A420000 		.long	0x429a
 6113 491b 36490000 		.long	0x4936
 6114 491f 06       		.uleb128 0x6
 6115 4920 01       		.uleb128 0x1
 6116 4921 51       		.byte	0x51
 6117 4922 01       		.uleb128 0x1
 6118 4923 30       		.byte	0x30
 6119 4924 06       		.uleb128 0x6
 6120 4925 01       		.uleb128 0x1
 6121 4926 58       		.byte	0x58
 6122 4927 01       		.uleb128 0x1
 6123 4928 30       		.byte	0x30
 6124 4929 06       		.uleb128 0x6
 6125 492a 01       		.uleb128 0x1
 6126 492b 59       		.byte	0x59
 6127 492c 01       		.uleb128 0x1
 6128 492d 30       		.byte	0x30
 6129 492e 06       		.uleb128 0x6
 6130 492f 02       		.uleb128 0x2
 6131 4930 77       		.byte	0x77
 6132 4931 20       		.sleb128 32
 6133 4932 02       		.uleb128 0x2
 6134 4933 08       		.byte	0x8
 6135 4934 FF       		.byte	0xff
 6136 4935 00       		.byte	0
 6137 4936 18       		.uleb128 0x18
 6138 4937 50010000 		.quad	.LVL65
 6138      00000000 
 6139 493f 77420000 		.long	0x4277
 6140 4943 00       		.byte	0
 6141 4944 0F       		.uleb128 0xf
 6142 4945 5D000000 		.quad	.LVL46
 6142      00000000 
 6143 494d CC440000 		.long	0x44cc
 6144 4951 5C490000 		.long	0x495c
 6145 4955 06       		.uleb128 0x6
 6146 4956 01       		.uleb128 0x1
 6147 4957 52       		.byte	0x52
 6148 4958 02       		.uleb128 0x2
 6149 4959 91       		.byte	0x91
 6150 495a 40       		.sleb128 -64
 6151 495b 00       		.byte	0
 6152 495c 18       		.uleb128 0x18
 6153 495d 62000000 		.quad	.LVL47
 6153      00000000 
 6154 4965 BA440000 		.long	0x44ba
 6155 4969 0F       		.uleb128 0xf
 6156 496a 6C000000 		.quad	.LVL48
 6156      00000000 
 6157 4972 9D440000 		.long	0x449d
 6158 4976 80490000 		.long	0x4980
 6159 497a 06       		.uleb128 0x6
 6160 497b 01       		.uleb128 0x1
GAS LISTING C:\Users\lsw\AppData\Local\Temp\ccSZcLze.s 			page 172


 6161 497c 52       		.byte	0x52
 6162 497d 01       		.uleb128 0x1
 6163 497e 48       		.byte	0x48
 6164 497f 00       		.byte	0
 6165 4980 0F       		.uleb128 0xf
 6166 4981 82000000 		.quad	.LVL50
 6166      00000000 
 6167 4989 65440000 		.long	0x4465
 6168 498d 98490000 		.long	0x4998
 6169 4991 06       		.uleb128 0x6
 6170 4992 01       		.uleb128 0x1
 6171 4993 52       		.byte	0x52
 6172 4994 02       		.uleb128 0x2
 6173 4995 08       		.byte	0x8
 6174 4996 21       		.byte	0x21
 6175 4997 00       		.byte	0
 6176 4998 0F       		.uleb128 0xf
 6177 4999 64010000 		.quad	.LVL66
 6177      00000000 
 6178 49a1 25440000 		.long	0x4425
 6179 49a5 C4490000 		.long	0x49c4
 6180 49a9 06       		.uleb128 0x6
 6181 49aa 01       		.uleb128 0x1
 6182 49ab 52       		.byte	0x52
 6183 49ac 03       		.uleb128 0x3
 6184 49ad 0A       		.byte	0xa
 6185 49ae E803     		.word	0x3e8
 6186 49b0 06       		.uleb128 0x6
 6187 49b1 01       		.uleb128 0x1
 6188 49b2 51       		.byte	0x51
 6189 49b3 09       		.uleb128 0x9
 6190 49b4 03       		.byte	0x3
 6191 49b5 00000000 		.quad	system_tick
 6191      00000000 
 6192 49bd 06       		.uleb128 0x6
 6193 49be 01       		.uleb128 0x1
 6194 49bf 58       		.byte	0x58
 6195 49c0 02       		.uleb128 0x2
 6196 49c1 73       		.byte	0x73
 6197 49c2 00       		.sleb128 0
 6198 49c3 00       		.byte	0
 6199 49c4 0F       		.uleb128 0xf
 6200 49c5 7B010000 		.quad	.LVL67
 6200      00000000 
 6201 49cd 25440000 		.long	0x4425
 6202 49d1 EE490000 		.long	0x49ee
 6203 49d5 06       		.uleb128 0x6
 6204 49d6 01       		.uleb128 0x1
 6205 49d7 52       		.byte	0x52
 6206 49d8 01       		.uleb128 0x1
 6207 49d9 31       		.byte	0x31
 6208 49da 06       		.uleb128 0x6
 6209 49db 01       		.uleb128 0x1
 6210 49dc 51       		.byte	0x51
 6211 49dd 09       		.uleb128 0x9
 6212 49de 03       		.byte	0x3
 6213 49df 00000000 		.quad	anim_systick
GAS LISTING C:\Users\lsw\AppData\Local\Temp\ccSZcLze.s 			page 173


 6213      00000000 
 6214 49e7 06       		.uleb128 0x6
 6215 49e8 01       		.uleb128 0x1
 6216 49e9 58       		.byte	0x58
 6217 49ea 02       		.uleb128 0x2
 6218 49eb 73       		.byte	0x73
 6219 49ec 00       		.sleb128 0
 6220 49ed 00       		.byte	0
 6221 49ee 0F       		.uleb128 0xf
 6222 49ef A3010000 		.quad	.LVL70
 6222      00000000 
 6223 49f7 80440000 		.long	0x4480
 6224 49fb 1A4A0000 		.long	0x4a1a
 6225 49ff 06       		.uleb128 0x6
 6226 4a00 01       		.uleb128 0x1
 6227 4a01 52       		.byte	0x52
 6228 4a02 09       		.uleb128 0x9
 6229 4a03 03       		.byte	0x3
 6230 4a04 70000000 		.quad	.LC4
 6230      00000000 
 6231 4a0c 06       		.uleb128 0x6
 6232 4a0d 01       		.uleb128 0x1
 6233 4a0e 51       		.byte	0x51
 6234 4a0f 09       		.uleb128 0x9
 6235 4a10 03       		.byte	0x3
 6236 4a11 79000000 		.quad	.LC5
 6236      00000000 
 6237 4a19 00       		.byte	0
 6238 4a1a 18       		.uleb128 0x18
 6239 4a1b AD010000 		.quad	.LVL72
 6239      00000000 
 6240 4a23 4E440000 		.long	0x444e
 6241 4a27 0F       		.uleb128 0xf
 6242 4a28 CA010000 		.quad	.LVL74
 6242      00000000 
 6243 4a30 80440000 		.long	0x4480
 6244 4a34 534A0000 		.long	0x4a53
 6245 4a38 06       		.uleb128 0x6
 6246 4a39 01       		.uleb128 0x1
 6247 4a3a 52       		.byte	0x52
 6248 4a3b 09       		.uleb128 0x9
 6249 4a3c 03       		.byte	0x3
 6250 4a3d 70000000 		.quad	.LC4
 6250      00000000 
 6251 4a45 06       		.uleb128 0x6
 6252 4a46 01       		.uleb128 0x1
 6253 4a47 51       		.byte	0x51
 6254 4a48 09       		.uleb128 0x9
 6255 4a49 03       		.byte	0x3
 6256 4a4a 94000000 		.quad	.LC6
 6256      00000000 
 6257 4a52 00       		.byte	0
 6258 4a53 18       		.uleb128 0x18
 6259 4a54 D4010000 		.quad	.LVL76
 6259      00000000 
 6260 4a5c 4E440000 		.long	0x444e
 6261 4a60 2D       		.uleb128 0x2d
GAS LISTING C:\Users\lsw\AppData\Local\Temp\ccSZcLze.s 			page 174


 6262 4a61 EB010000 		.quad	.LVL78
 6262      00000000 
 6263 4a69 80440000 		.long	0x4480
 6264 4a6d 06       		.uleb128 0x6
 6265 4a6e 01       		.uleb128 0x1
 6266 4a6f 52       		.byte	0x52
 6267 4a70 09       		.uleb128 0x9
 6268 4a71 03       		.byte	0x3
 6269 4a72 70000000 		.quad	.LC4
 6269      00000000 
 6270 4a7a 06       		.uleb128 0x6
 6271 4a7b 01       		.uleb128 0x1
 6272 4a7c 51       		.byte	0x51
 6273 4a7d 09       		.uleb128 0x9
 6274 4a7e 03       		.byte	0x3
 6275 4a7f 48000000 		.quad	.LC3
 6275      00000000 
 6276 4a87 00       		.byte	0
 6277 4a88 00       		.byte	0
 6278 4a89 25       		.uleb128 0x25
 6279 4a8a 6C6F675F 		.ascii "log_stdout\0"
 6279      7374646F 
 6279      757400
 6280 4a95 94       		.byte	0x94
 6281 4a96 00000000 		.quad	.LFB6954
 6281      00000000 
 6282 4a9e 20000000 		.quad	.LFE6954-.LFB6954
 6282      00000000 
 6283 4aa6 01       		.uleb128 0x1
 6284 4aa7 9C       		.byte	0x9c
 6285 4aa8 FD4A0000 		.long	0x4afd
 6286 4aac 22       		.uleb128 0x22
 6287 4aad 73747200 		.ascii "str\0"
 6288 4ab1 94       		.byte	0x94
 6289 4ab2 1D       		.byte	0x1d
 6290 4ab3 45020000 		.long	0x245
 6291 4ab7 7A010000 		.secrel32	.LLST6
 6292 4abb 76010000 		.secrel32	.LVUS6
 6293 4abf 0F       		.uleb128 0xf
 6294 4ac0 09000000 		.quad	.LVL15
 6294      00000000 
 6295 4ac8 38450000 		.long	0x4538
 6296 4acc D84A0000 		.long	0x4ad8
 6297 4ad0 06       		.uleb128 0x6
 6298 4ad1 01       		.uleb128 0x1
 6299 4ad2 52       		.byte	0x52
 6300 4ad3 03       		.uleb128 0x3
 6301 4ad4 A3       		.byte	0xa3
 6302 4ad5 01       		.uleb128 0x1
 6303 4ad6 52       		.byte	0x52
 6304 4ad7 00       		.byte	0
 6305 4ad8 0F       		.uleb128 0xf
 6306 4ad9 14000000 		.quad	.LVL16
 6306      00000000 
 6307 4ae1 16450000 		.long	0x4516
 6308 4ae5 EF4A0000 		.long	0x4aef
 6309 4ae9 06       		.uleb128 0x6
GAS LISTING C:\Users\lsw\AppData\Local\Temp\ccSZcLze.s 			page 175


 6310 4aea 01       		.uleb128 0x1
 6311 4aeb 52       		.byte	0x52
 6312 4aec 01       		.uleb128 0x1
 6313 4aed 31       		.byte	0x31
 6314 4aee 00       		.byte	0
 6315 4aef 27       		.uleb128 0x27
 6316 4af0 20000000 		.quad	.LVL17
 6316      00000000 
 6317 4af8 F7440000 		.long	0x44f7
 6318 4afc 00       		.byte	0
 6319 4afd 37       		.uleb128 0x37
 6320 4afe 70616E65 		.ascii "panel_flush_area\0"
 6320      6C5F666C 
 6320      7573685F 
 6320      61726561 
 6320      00
 6321 4b0f 7B       		.byte	0x7b
 6322 4b10 00000000 		.quad	.LFB6953
 6322      00000000 
 6323 4b18 BE000000 		.quad	.LFE6953-.LFB6953
 6323      00000000 
 6324 4b20 01       		.uleb128 0x1
 6325 4b21 9C       		.byte	0x9c
 6326 4b22 0A4C0000 		.long	0x4c0a
 6327 4b26 22       		.uleb128 0x22
 6328 4b27 61726561 		.ascii "area\0"
 6328      00
 6329 4b2c 7B       		.byte	0x7b
 6330 4b2d 2A       		.byte	0x2a
 6331 4b2e 6E3D0000 		.long	0x3d6e
 6332 4b32 95010000 		.secrel32	.LLST10
 6333 4b36 91010000 		.secrel32	.LVUS10
 6334 4b3a 22       		.uleb128 0x22
 6335 4b3b 73726300 		.ascii "src\0"
 6336 4b3f 7B       		.byte	0x7b
 6337 4b40 3D       		.byte	0x3d
 6338 4b41 693D0000 		.long	0x3d69
 6339 4b45 B5010000 		.secrel32	.LLST11
 6340 4b49 AD010000 		.secrel32	.LVUS11
 6341 4b4d 1A       		.uleb128 0x1a
 6342 4b4e 7800     		.ascii "x\0"
 6343 4b50 7D       		.byte	0x7d
 6344 4b51 09       		.byte	0x9
 6345 4b52 F0000000 		.long	0xf0
 6346 4b56 D6010000 		.secrel32	.LLST12
 6347 4b5a D4010000 		.secrel32	.LVUS12
 6348 4b5e 1A       		.uleb128 0x1a
 6349 4b5f 7900     		.ascii "y\0"
 6350 4b61 7E       		.byte	0x7e
 6351 4b62 09       		.byte	0x9
 6352 4b63 F0000000 		.long	0xf0
 6353 4b67 E5010000 		.secrel32	.LLST13
 6354 4b6b E3010000 		.secrel32	.LVUS13
 6355 4b6f 1A       		.uleb128 0x1a
 6356 4b70 7700     		.ascii "w\0"
 6357 4b72 7F       		.byte	0x7f
 6358 4b73 09       		.byte	0x9
GAS LISTING C:\Users\lsw\AppData\Local\Temp\ccSZcLze.s 			page 176


 6359 4b74 F0000000 		.long	0xf0
 6360 4b78 F4010000 		.secrel32	.LLST14
 6361 4b7c F2010000 		.secrel32	.LVUS14
 6362 4b80 1A       		.uleb128 0x1a
 6363 4b81 6800     		.ascii "h\0"
 6364 4b83 80       		.byte	0x80
 6365 4b84 09       		.byte	0x9
 6366 4b85 F0000000 		.long	0xf0
 6367 4b89 05020000 		.secrel32	.LLST15
 6368 4b8d 01020000 		.secrel32	.LVUS15
 6369 4b91 1A       		.uleb128 0x1a
 6370 4b92 64657374 		.ascii "dest\0"
 6370      00
 6371 4b97 82       		.byte	0x82
 6372 4b98 12       		.byte	0x12
 6373 4b99 693D0000 		.long	0x3d69
 6374 4b9d 2D020000 		.secrel32	.LLST16
 6375 4ba1 23020000 		.secrel32	.LVUS16
 6376 4ba5 4C       		.uleb128 0x4c
 6377 4ba6 1C000000 		.secrel32	.LLRL17
 6378 4baa DB4B0000 		.long	0x4bdb
 6379 4bae 1A       		.uleb128 0x1a
 6380 4baf 6900     		.ascii "i\0"
 6381 4bb1 85       		.byte	0x85
 6382 4bb2 0D       		.byte	0xd
 6383 4bb3 F0000000 		.long	0xf0
 6384 4bb7 65020000 		.secrel32	.LLST18
 6385 4bbb 5D020000 		.secrel32	.LVUS18
 6386 4bbf 2D       		.uleb128 0x2d
 6387 4bc0 6B000000 		.quad	.LVL36
 6387      00000000 
 6388 4bc8 E7430000 		.long	0x43e7
 6389 4bcc 06       		.uleb128 0x6
 6390 4bcd 01       		.uleb128 0x1
 6391 4bce 52       		.byte	0x52
 6392 4bcf 03       		.uleb128 0x3
 6393 4bd0 74       		.byte	0x74
 6394 4bd1 A07C     		.sleb128 -480
 6395 4bd3 06       		.uleb128 0x6
 6396 4bd4 01       		.uleb128 0x1
 6397 4bd5 58       		.byte	0x58
 6398 4bd6 02       		.uleb128 0x2
 6399 4bd7 76       		.byte	0x76
 6400 4bd8 00       		.sleb128 0
 6401 4bd9 00       		.byte	0
 6402 4bda 00       		.byte	0
 6403 4bdb 4D       		.uleb128 0x4d
 6404 4bdc 274F0000 		.long	0x4f27
 6405 4be0 7C000000 		.quad	.LBI15
 6405      00000000 
 6406 4be8 01       		.byte	.LVU92
 6407 4be9 7C000000 		.quad	.LBB15
 6407      00000000 
 6408 4bf1 37000000 		.quad	.LBE15-.LBB15
 6408      00000000 
 6409 4bf9 01       		.byte	0x1
 6410 4bfa 8C       		.byte	0x8c
GAS LISTING C:\Users\lsw\AppData\Local\Temp\ccSZcLze.s 			page 177


 6411 4bfb 05       		.byte	0x5
 6412 4bfc 18       		.uleb128 0x18
 6413 4bfd 7C000000 		.quad	.LVL38
 6413      00000000 
 6414 4c05 824D0000 		.long	0x4d82
 6415 4c09 00       		.byte	0
 6416 4c0a 25       		.uleb128 0x25
 6417 4c0b 74657374 		.ascii "test_flush\0"
 6417      5F666C75 
 6417      736800
 6418 4c16 76       		.byte	0x76
 6419 4c17 00000000 		.quad	.LFB6952
 6419      00000000 
 6420 4c1f 0C000000 		.quad	.LFE6952-.LFB6952
 6420      00000000 
 6421 4c27 01       		.uleb128 0x1
 6422 4c28 9C       		.byte	0x9c
 6423 4c29 3B4C0000 		.long	0x4c3b
 6424 4c2d 27       		.uleb128 0x27
 6425 4c2e 0C000000 		.quad	.LVL42
 6425      00000000 
 6426 4c36 824D0000 		.long	0x4d82
 6427 4c3a 00       		.byte	0
 6428 4c3b 4E       		.uleb128 0x4e
 6429 4c3c 58010000 		.secrel32	.LASF62
 6430 4c40 01       		.byte	0x1
 6431 4c41 6E       		.byte	0x6e
 6432 4c42 11       		.byte	0x11
 6433 4c43 96010000 		.long	0x196
 6434 4c47 00000000 		.quad	.LFB6951
 6434      00000000 
 6435 4c4f 13000000 		.quad	.LFE6951-.LFB6951
 6435      00000000 
 6436 4c57 01       		.uleb128 0x1
 6437 4c58 9C       		.byte	0x9c
 6438 4c59 A94C0000 		.long	0x4ca9
 6439 4c5d 26       		.uleb128 0x26
 6440 4c5e C7020000 		.secrel32	.LASF65
 6441 4c62 6E       		.byte	0x6e
 6442 4c63 27       		.byte	0x27
 6443 4c64 96010000 		.long	0x196
 6444 4c68 8A020000 		.secrel32	.LLST0
 6445 4c6c 86020000 		.secrel32	.LVUS0
 6446 4c70 22       		.uleb128 0x22
 6447 4c71 70617261 		.ascii "param\0"
 6447      6D00
 6448 4c77 6E       		.byte	0x6e
 6449 4c78 37       		.byte	0x37
 6450 4c79 39020000 		.long	0x239
 6451 4c7d A2020000 		.secrel32	.LLST1
 6452 4c81 9E020000 		.secrel32	.LVUS1
 6453 4c85 4F       		.uleb128 0x4f
 6454 4c86 DE4E0000 		.long	0x4ede
 6455 4c8a 00000000 		.quad	.LBI6
 6455      00000000 
 6456 4c92 04       		.byte	.LVU4
 6457 4c93 0C000000 		.secrel32	.LLRL2
GAS LISTING C:\Users\lsw\AppData\Local\Temp\ccSZcLze.s 			page 178


 6458 4c97 01       		.byte	0x1
 6459 4c98 71       		.byte	0x71
 6460 4c99 05       		.byte	0x5
 6461 4c9a 21       		.uleb128 0x21
 6462 4c9b F24E0000 		.long	0x4ef2
 6463 4c9f BB020000 		.secrel32	.LLST3
 6464 4ca3 B9020000 		.secrel32	.LVUS3
 6465 4ca7 00       		.byte	0
 6466 4ca8 00       		.byte	0
 6467 4ca9 50       		.uleb128 0x50
 6468 4caa 73797374 		.ascii "system_tick\0"
 6468      656D5F74 
 6468      69636B00 
 6469 4cb6 01       		.byte	0x1
 6470 4cb7 62       		.byte	0x62
 6471 4cb8 11       		.byte	0x11
 6472 4cb9 96010000 		.long	0x196
 6473 4cbd 00000000 		.quad	.LFB6950
 6473      00000000 
 6474 4cc5 51000000 		.quad	.LFE6950-.LFB6950
 6474      00000000 
 6475 4ccd 01       		.uleb128 0x1
 6476 4cce 9C       		.byte	0x9c
 6477 4ccf 824D0000 		.long	0x4d82
 6478 4cd3 26       		.uleb128 0x26
 6479 4cd4 C7020000 		.secrel32	.LASF65
 6480 4cd8 62       		.byte	0x62
 6481 4cd9 26       		.byte	0x26
 6482 4cda 96010000 		.long	0x196
 6483 4cde CF020000 		.secrel32	.LLST7
 6484 4ce2 C9020000 		.secrel32	.LVUS7
 6485 4ce6 22       		.uleb128 0x22
 6486 4ce7 70617261 		.ascii "param\0"
 6486      6D00
 6487 4ced 62       		.byte	0x62
 6488 4cee 36       		.byte	0x36
 6489 4cef 39020000 		.long	0x239
 6490 4cf3 EE020000 		.secrel32	.LLST8
 6491 4cf7 E8020000 		.secrel32	.LVUS8
 6492 4cfb 24       		.uleb128 0x24
 6493 4cfc 6D6D00   		.ascii "mm\0"
 6494 4cff 64       		.byte	0x64
 6495 4d00 16       		.byte	0x16
 6496 4d01 E7400000 		.long	0x40e7
 6497 4d05 02       		.uleb128 0x2
 6498 4d06 91       		.byte	0x91
 6499 4d07 40       		.sleb128 -64
 6500 4d08 35       		.uleb128 0x35
 6501 4d09 C2000000 		.secrel32	.LASF64
 6502 4d0d 65       		.byte	0x65
 6503 4d0e B3460000 		.long	0x46b3
 6504 4d12 0E030000 		.secrel32	.LLST9
 6505 4d16 0A030000 		.secrel32	.LVUS9
 6506 4d1a 0F       		.uleb128 0xf
 6507 4d1b 15000000 		.quad	.LVL20
 6507      00000000 
 6508 4d23 0A440000 		.long	0x440a
GAS LISTING C:\Users\lsw\AppData\Local\Temp\ccSZcLze.s 			page 179


 6509 4d27 324D0000 		.long	0x4d32
 6510 4d2b 06       		.uleb128 0x6
 6511 4d2c 01       		.uleb128 0x1
 6512 4d2d 52       		.byte	0x52
 6513 4d2e 02       		.uleb128 0x2
 6514 4d2f 91       		.byte	0x91
 6515 4d30 40       		.sleb128 -64
 6516 4d31 00       		.byte	0
 6517 4d32 0F       		.uleb128 0xf
 6518 4d33 25000000 		.quad	.LVL21
 6518      00000000 
 6519 4d3b 38450000 		.long	0x4538
 6520 4d3f 514D0000 		.long	0x4d51
 6521 4d43 06       		.uleb128 0x6
 6522 4d44 01       		.uleb128 0x1
 6523 4d45 52       		.byte	0x52
 6524 4d46 09       		.uleb128 0x9
 6525 4d47 03       		.byte	0x3
 6526 4d48 00000000 		.quad	.LC1
 6526      00000000 
 6527 4d50 00       		.byte	0
 6528 4d51 2D       		.uleb128 0x2d
 6529 4d52 40000000 		.quad	.LVL22
 6529      00000000 
 6530 4d5a 38450000 		.long	0x4538
 6531 4d5e 06       		.uleb128 0x6
 6532 4d5f 01       		.uleb128 0x1
 6533 4d60 52       		.byte	0x52
 6534 4d61 09       		.uleb128 0x9
 6535 4d62 03       		.byte	0x3
 6536 4d63 18000000 		.quad	.LC2
 6536      00000000 
 6537 4d6b 06       		.uleb128 0x6
 6538 4d6c 01       		.uleb128 0x1
 6539 4d6d 51       		.byte	0x51
 6540 4d6e 03       		.uleb128 0x3
 6541 4d6f 91       		.byte	0x91
 6542 4d70 40       		.sleb128 -64
 6543 4d71 06       		.byte	0x6
 6544 4d72 06       		.uleb128 0x6
 6545 4d73 01       		.uleb128 0x1
 6546 4d74 58       		.byte	0x58
 6547 4d75 03       		.uleb128 0x3
 6548 4d76 91       		.byte	0x91
 6549 4d77 50       		.sleb128 -48
 6550 4d78 06       		.byte	0x6
 6551 4d79 06       		.uleb128 0x6
 6552 4d7a 01       		.uleb128 0x1
 6553 4d7b 59       		.byte	0x59
 6554 4d7c 03       		.uleb128 0x3
 6555 4d7d 91       		.byte	0x91
 6556 4d7e 48       		.sleb128 -56
 6557 4d7f 06       		.byte	0x6
 6558 4d80 00       		.byte	0
 6559 4d81 00       		.byte	0
 6560 4d82 37       		.uleb128 0x37
 6561 4d83 666C7573 		.ascii "flush_window\0"
GAS LISTING C:\Users\lsw\AppData\Local\Temp\ccSZcLze.s 			page 180


 6561      685F7769 
 6561      6E646F77 
 6561      00
 6562 4d90 58       		.byte	0x58
 6563 4d91 00000000 		.quad	.LFB6949
 6563      00000000 
 6564 4d99 68000000 		.quad	.LFE6949-.LFB6949
 6564      00000000 
 6565 4da1 01       		.uleb128 0x1
 6566 4da2 9C       		.byte	0x9c
 6567 4da3 844E0000 		.long	0x4e84
 6568 4da7 26       		.uleb128 0x26
 6569 4da8 37000000 		.secrel32	.LASF63
 6570 4dac 58       		.byte	0x58
 6571 4dad 29       		.byte	0x29
 6572 4dae 16410000 		.long	0x4116
 6573 4db2 2B030000 		.secrel32	.LLST4
 6574 4db6 25030000 		.secrel32	.LVUS4
 6575 4dba 1A       		.uleb128 0x1a
 6576 4dbb 74657874 		.ascii "texture\0"
 6576      75726500 
 6577 4dc3 5A       		.byte	0x5a
 6578 4dc4 12       		.byte	0x12
 6579 4dc5 75450000 		.long	0x4575
 6580 4dc9 4D030000 		.secrel32	.LLST5
 6581 4dcd 47030000 		.secrel32	.LVUS5
 6582 4dd1 0F       		.uleb128 0xf
 6583 4dd2 27000000 		.quad	.LVL6
 6583      00000000 
 6584 4dda 05460000 		.long	0x4605
 6585 4dde 054E0000 		.long	0x4e05
 6586 4de2 06       		.uleb128 0x6
 6587 4de3 01       		.uleb128 0x1
 6588 4de4 52       		.byte	0x52
 6589 4de5 02       		.uleb128 0x2
 6590 4de6 74       		.byte	0x74
 6591 4de7 00       		.sleb128 0
 6592 4de8 06       		.uleb128 0x6
 6593 4de9 01       		.uleb128 0x1
 6594 4dea 51       		.byte	0x51
 6595 4deb 05       		.uleb128 0x5
 6596 4dec 0C       		.byte	0xc
 6597 4ded 02101515 		.long	0x15151002
 6598 4df1 06       		.uleb128 0x6
 6599 4df2 01       		.uleb128 0x1
 6600 4df3 58       		.byte	0x58
 6601 4df4 01       		.uleb128 0x1
 6602 4df5 31       		.byte	0x31
 6603 4df6 06       		.uleb128 0x6
 6604 4df7 01       		.uleb128 0x1
 6605 4df8 59       		.byte	0x59
 6606 4df9 02       		.uleb128 0x2
 6607 4dfa 08       		.byte	0x8
 6608 4dfb F0       		.byte	0xf0
 6609 4dfc 06       		.uleb128 0x6
 6610 4dfd 02       		.uleb128 0x2
 6611 4dfe 77       		.byte	0x77
GAS LISTING C:\Users\lsw\AppData\Local\Temp\ccSZcLze.s 			page 181


 6612 4dff 20       		.sleb128 32
 6613 4e00 03       		.uleb128 0x3
 6614 4e01 0A       		.byte	0xa
 6615 4e02 1C01     		.word	0x11c
 6616 4e04 00       		.byte	0
 6617 4e05 0F       		.uleb128 0xf
 6618 4e06 41000000 		.quad	.LVL8
 6618      00000000 
 6619 4e0e D1450000 		.long	0x45d1
 6620 4e12 364E0000 		.long	0x4e36
 6621 4e16 06       		.uleb128 0x6
 6622 4e17 01       		.uleb128 0x1
 6623 4e18 52       		.byte	0x52
 6624 4e19 02       		.uleb128 0x2
 6625 4e1a 73       		.byte	0x73
 6626 4e1b 00       		.sleb128 0
 6627 4e1c 06       		.uleb128 0x6
 6628 4e1d 01       		.uleb128 0x1
 6629 4e1e 51       		.byte	0x51
 6630 4e1f 01       		.uleb128 0x1
 6631 4e20 30       		.byte	0x30
 6632 4e21 06       		.uleb128 0x6
 6633 4e22 01       		.uleb128 0x1
 6634 4e23 58       		.byte	0x58
 6635 4e24 09       		.uleb128 0x9
 6636 4e25 03       		.byte	0x3
 6637 4e26 00000000 		.quad	sdl2_frame_buffer
 6637      00000000 
 6638 4e2e 06       		.uleb128 0x6
 6639 4e2f 01       		.uleb128 0x1
 6640 4e30 59       		.byte	0x59
 6641 4e31 03       		.uleb128 0x3
 6642 4e32 0A       		.byte	0xa
 6643 4e33 E001     		.word	0x1e0
 6644 4e35 00       		.byte	0
 6645 4e36 0F       		.uleb128 0xf
 6646 4e37 52000000 		.quad	.LVL9
 6646      00000000 
 6647 4e3f 9B450000 		.long	0x459b
 6648 4e43 5E4E0000 		.long	0x4e5e
 6649 4e47 06       		.uleb128 0x6
 6650 4e48 01       		.uleb128 0x1
 6651 4e49 52       		.byte	0x52
 6652 4e4a 02       		.uleb128 0x2
 6653 4e4b 74       		.byte	0x74
 6654 4e4c 00       		.sleb128 0
 6655 4e4d 06       		.uleb128 0x6
 6656 4e4e 01       		.uleb128 0x1
 6657 4e4f 51       		.byte	0x51
 6658 4e50 02       		.uleb128 0x2
 6659 4e51 73       		.byte	0x73
 6660 4e52 00       		.sleb128 0
 6661 4e53 06       		.uleb128 0x6
 6662 4e54 01       		.uleb128 0x1
 6663 4e55 58       		.byte	0x58
 6664 4e56 01       		.uleb128 0x1
 6665 4e57 30       		.byte	0x30
GAS LISTING C:\Users\lsw\AppData\Local\Temp\ccSZcLze.s 			page 182


 6666 4e58 06       		.uleb128 0x6
 6667 4e59 01       		.uleb128 0x1
 6668 4e5a 59       		.byte	0x59
 6669 4e5b 01       		.uleb128 0x1
 6670 4e5c 30       		.byte	0x30
 6671 4e5d 00       		.byte	0
 6672 4e5e 0F       		.uleb128 0xf
 6673 4e5f 5A000000 		.quad	.LVL10
 6673      00000000 
 6674 4e67 7A450000 		.long	0x457a
 6675 4e6b 764E0000 		.long	0x4e76
 6676 4e6f 06       		.uleb128 0x6
 6677 4e70 01       		.uleb128 0x1
 6678 4e71 52       		.byte	0x52
 6679 4e72 02       		.uleb128 0x2
 6680 4e73 74       		.byte	0x74
 6681 4e74 00       		.sleb128 0
 6682 4e75 00       		.byte	0
 6683 4e76 27       		.uleb128 0x27
 6684 4e77 68000000 		.quad	.LVL13
 6684      00000000 
 6685 4e7f 53450000 		.long	0x4553
 6686 4e83 00       		.byte	0
 6687 4e84 51       		.uleb128 0x51
 6688 4e85 73646C5F 		.ascii "sdl_create_windows\0"
 6688      63726561 
 6688      74655F77 
 6688      696E646F 
 6688      777300
 6689 4e98 01       		.byte	0x1
 6690 4e99 3E       		.byte	0x3e
 6691 4e9a 0C       		.byte	0xc
 6692 4e9b F0000000 		.long	0xf0
 6693 4e9f 01       		.byte	0x1
 6694 4ea0 DE4E0000 		.long	0x4ede
 6695 4ea4 38       		.uleb128 0x38
 6696 4ea5 D9020000 		.secrel32	.LASF61
 6697 4ea9 2C       		.byte	0x2c
 6698 4eaa DD430000 		.long	0x43dd
 6699 4eae 38       		.uleb128 0x38
 6700 4eaf 37000000 		.secrel32	.LASF63
 6701 4eb3 45       		.byte	0x45
 6702 4eb4 E2430000 		.long	0x43e2
 6703 4eb8 52       		.uleb128 0x52
 6704 4eb9 7469746C 		.ascii "title\0"
 6704      6500
 6705 4ebf 01       		.byte	0x1
 6706 4ec0 3E       		.byte	0x3e
 6707 4ec1 5D       		.byte	0x5d
 6708 4ec2 45020000 		.long	0x245
 6709 4ec6 39       		.uleb128 0x39
 6710 4ec7 69636F6E 		.ascii "icon\0"
 6710      00
 6711 4ecc 47       		.byte	0x47
 6712 4ecd 12       		.byte	0x12
 6713 4ece F7420000 		.long	0x42f7
 6714 4ed2 53       		.uleb128 0x53
GAS LISTING C:\Users\lsw\AppData\Local\Temp\ccSZcLze.s 			page 183


 6715 4ed3 39       		.uleb128 0x39
 6716 4ed4 6900     		.ascii "i\0"
 6717 4ed6 4E       		.byte	0x4e
 6718 4ed7 0D       		.byte	0xd
 6719 4ed8 F0000000 		.long	0xf0
 6720 4edc 00       		.byte	0
 6721 4edd 00       		.byte	0
 6722 4ede 3A       		.uleb128 0x3a
 6723 4edf 73676C5F 		.ascii "sgl_tick_inc\0"
 6723      7469636B 
 6723      5F696E63 
 6723      00
 6724 4eec 9004     		.word	0x490
 6725 4eee FE4E0000 		.long	0x4efe
 6726 4ef2 3B       		.uleb128 0x3b
 6727 4ef3 6D7300   		.ascii "ms\0"
 6728 4ef6 9004     		.word	0x490
 6729 4ef8 29       		.byte	0x29
 6730 4ef9 5F010000 		.long	0x15f
 6731 4efd 00       		.byte	0
 6732 4efe 3A       		.uleb128 0x3a
 6733 4eff 73676C5F 		.ascii "sgl_logdev_register\0"
 6733      6C6F6764 
 6733      65765F72 
 6733      65676973 
 6733      74657200 
 6734 4f13 6204     		.word	0x462
 6735 4f15 274F0000 		.long	0x4f27
 6736 4f19 3B       		.uleb128 0x3b
 6737 4f1a 70757473 		.ascii "puts\0"
 6737      00
 6738 4f1f 6204     		.word	0x462
 6739 4f21 2F       		.byte	0x2f
 6740 4f22 49400000 		.long	0x4049
 6741 4f26 00       		.byte	0
 6742 4f27 54       		.uleb128 0x54
 6743 4f28 73676C5F 		.ascii "sgl_fbdev_flush_ready\0"
 6743      66626465 
 6743      765F666C 
 6743      7573685F 
 6743      72656164 
 6744 4f3e 02       		.byte	0x2
 6745 4f3f CD03     		.word	0x3cd
 6746 4f41 14       		.byte	0x14
 6747 4f42 03       		.byte	0x3
 6748 4f43 00       		.byte	0
 6749              		.section	.debug_abbrev,"dr"
 6750              	.Ldebug_abbrev0:
 6751 0000 01       		.uleb128 0x1
 6752 0001 28       		.uleb128 0x28
 6753 0002 00       		.byte	0
 6754 0003 03       		.uleb128 0x3
 6755 0004 08       		.uleb128 0x8
 6756 0005 1C       		.uleb128 0x1c
 6757 0006 0B       		.uleb128 0xb
 6758 0007 00       		.byte	0
 6759 0008 00       		.byte	0
GAS LISTING C:\Users\lsw\AppData\Local\Temp\ccSZcLze.s 			page 184


 6760 0009 02       		.uleb128 0x2
 6761 000a 0D       		.uleb128 0xd
 6762 000b 00       		.byte	0
 6763 000c 03       		.uleb128 0x3
 6764 000d 0E       		.uleb128 0xe
 6765 000e 3A       		.uleb128 0x3a
 6766 000f 0B       		.uleb128 0xb
 6767 0010 3B       		.uleb128 0x3b
 6768 0011 05       		.uleb128 0x5
 6769 0012 39       		.uleb128 0x39
 6770 0013 0B       		.uleb128 0xb
 6771 0014 49       		.uleb128 0x49
 6772 0015 13       		.uleb128 0x13
 6773 0016 38       		.uleb128 0x38
 6774 0017 0B       		.uleb128 0xb
 6775 0018 00       		.byte	0
 6776 0019 00       		.byte	0
 6777 001a 03       		.uleb128 0x3
 6778 001b 0D       		.uleb128 0xd
 6779 001c 00       		.byte	0
 6780 001d 03       		.uleb128 0x3
 6781 001e 08       		.uleb128 0x8
 6782 001f 3A       		.uleb128 0x3a
 6783 0020 0B       		.uleb128 0xb
 6784 0021 3B       		.uleb128 0x3b
 6785 0022 05       		.uleb128 0x5
 6786 0023 39       		.uleb128 0x39
 6787 0024 0B       		.uleb128 0xb
 6788 0025 49       		.uleb128 0x49
 6789 0026 13       		.uleb128 0x13
 6790 0027 38       		.uleb128 0x38
 6791 0028 0B       		.uleb128 0xb
 6792 0029 00       		.byte	0
 6793 002a 00       		.byte	0
 6794 002b 04       		.uleb128 0x4
 6795 002c 05       		.uleb128 0x5
 6796 002d 00       		.byte	0
 6797 002e 49       		.uleb128 0x49
 6798 002f 13       		.uleb128 0x13
 6799 0030 00       		.byte	0
 6800 0031 00       		.byte	0
 6801 0032 05       		.uleb128 0x5
 6802 0033 28       		.uleb128 0x28
 6803 0034 00       		.byte	0
 6804 0035 03       		.uleb128 0x3
 6805 0036 08       		.uleb128 0x8
 6806 0037 1C       		.uleb128 0x1c
 6807 0038 06       		.uleb128 0x6
 6808 0039 00       		.byte	0
 6809 003a 00       		.byte	0
 6810 003b 06       		.uleb128 0x6
 6811 003c 49       		.uleb128 0x49
 6812 003d 00       		.byte	0
 6813 003e 02       		.uleb128 0x2
 6814 003f 18       		.uleb128 0x18
 6815 0040 7E       		.uleb128 0x7e
 6816 0041 18       		.uleb128 0x18
GAS LISTING C:\Users\lsw\AppData\Local\Temp\ccSZcLze.s 			page 185


 6817 0042 00       		.byte	0
 6818 0043 00       		.byte	0
 6819 0044 07       		.uleb128 0x7
 6820 0045 0D       		.uleb128 0xd
 6821 0046 00       		.byte	0
 6822 0047 03       		.uleb128 0x3
 6823 0048 08       		.uleb128 0x8
 6824 0049 3A       		.uleb128 0x3a
 6825 004a 0B       		.uleb128 0xb
 6826 004b 3B       		.uleb128 0x3b
 6827 004c 0B       		.uleb128 0xb
 6828 004d 39       		.uleb128 0x39
 6829 004e 0B       		.uleb128 0xb
 6830 004f 49       		.uleb128 0x49
 6831 0050 13       		.uleb128 0x13
 6832 0051 38       		.uleb128 0x38
 6833 0052 0B       		.uleb128 0xb
 6834 0053 00       		.byte	0
 6835 0054 00       		.byte	0
 6836 0055 08       		.uleb128 0x8
 6837 0056 28       		.uleb128 0x28
 6838 0057 00       		.byte	0
 6839 0058 03       		.uleb128 0x3
 6840 0059 08       		.uleb128 0x8
 6841 005a 1C       		.uleb128 0x1c
 6842 005b 05       		.uleb128 0x5
 6843 005c 00       		.byte	0
 6844 005d 00       		.byte	0
 6845 005e 09       		.uleb128 0x9
 6846 005f 0F       		.uleb128 0xf
 6847 0060 00       		.byte	0
 6848 0061 0B       		.uleb128 0xb
 6849 0062 21       		.uleb128 0x21
 6850 0063 08       		.sleb128 8
 6851 0064 49       		.uleb128 0x49
 6852 0065 13       		.uleb128 0x13
 6853 0066 00       		.byte	0
 6854 0067 00       		.byte	0
 6855 0068 0A       		.uleb128 0xa
 6856 0069 0D       		.uleb128 0xd
 6857 006a 00       		.byte	0
 6858 006b 03       		.uleb128 0x3
 6859 006c 0E       		.uleb128 0xe
 6860 006d 3A       		.uleb128 0x3a
 6861 006e 0B       		.uleb128 0xb
 6862 006f 3B       		.uleb128 0x3b
 6863 0070 0B       		.uleb128 0xb
 6864 0071 39       		.uleb128 0x39
 6865 0072 0B       		.uleb128 0xb
 6866 0073 49       		.uleb128 0x49
 6867 0074 13       		.uleb128 0x13
 6868 0075 38       		.uleb128 0x38
 6869 0076 0B       		.uleb128 0xb
 6870 0077 00       		.byte	0
 6871 0078 00       		.byte	0
 6872 0079 0B       		.uleb128 0xb
 6873 007a 16       		.uleb128 0x16
GAS LISTING C:\Users\lsw\AppData\Local\Temp\ccSZcLze.s 			page 186


 6874 007b 00       		.byte	0
 6875 007c 03       		.uleb128 0x3
 6876 007d 0E       		.uleb128 0xe
 6877 007e 3A       		.uleb128 0x3a
 6878 007f 0B       		.uleb128 0xb
 6879 0080 3B       		.uleb128 0x3b
 6880 0081 05       		.uleb128 0x5
 6881 0082 39       		.uleb128 0x39
 6882 0083 0B       		.uleb128 0xb
 6883 0084 49       		.uleb128 0x49
 6884 0085 13       		.uleb128 0x13
 6885 0086 00       		.byte	0
 6886 0087 00       		.byte	0
 6887 0088 0C       		.uleb128 0xc
 6888 0089 0D       		.uleb128 0xd
 6889 008a 00       		.byte	0
 6890 008b 03       		.uleb128 0x3
 6891 008c 08       		.uleb128 0x8
 6892 008d 3A       		.uleb128 0x3a
 6893 008e 21       		.uleb128 0x21
 6894 008f 11       		.sleb128 17
 6895 0090 3B       		.uleb128 0x3b
 6896 0091 05       		.uleb128 0x5
 6897 0092 39       		.uleb128 0x39
 6898 0093 0B       		.uleb128 0xb
 6899 0094 49       		.uleb128 0x49
 6900 0095 13       		.uleb128 0x13
 6901 0096 00       		.byte	0
 6902 0097 00       		.byte	0
 6903 0098 0D       		.uleb128 0xd
 6904 0099 13       		.uleb128 0x13
 6905 009a 01       		.byte	0x1
 6906 009b 03       		.uleb128 0x3
 6907 009c 0E       		.uleb128 0xe
 6908 009d 0B       		.uleb128 0xb
 6909 009e 0B       		.uleb128 0xb
 6910 009f 3A       		.uleb128 0x3a
 6911 00a0 0B       		.uleb128 0xb
 6912 00a1 3B       		.uleb128 0x3b
 6913 00a2 05       		.uleb128 0x5
 6914 00a3 39       		.uleb128 0x39
 6915 00a4 21       		.uleb128 0x21
 6916 00a5 10       		.sleb128 16
 6917 00a6 01       		.uleb128 0x1
 6918 00a7 13       		.uleb128 0x13
 6919 00a8 00       		.byte	0
 6920 00a9 00       		.byte	0
 6921 00aa 0E       		.uleb128 0xe
 6922 00ab 16       		.uleb128 0x16
 6923 00ac 00       		.byte	0
 6924 00ad 03       		.uleb128 0x3
 6925 00ae 08       		.uleb128 0x8
 6926 00af 3A       		.uleb128 0x3a
 6927 00b0 0B       		.uleb128 0xb
 6928 00b1 3B       		.uleb128 0x3b
 6929 00b2 0B       		.uleb128 0xb
 6930 00b3 39       		.uleb128 0x39
GAS LISTING C:\Users\lsw\AppData\Local\Temp\ccSZcLze.s 			page 187


 6931 00b4 0B       		.uleb128 0xb
 6932 00b5 49       		.uleb128 0x49
 6933 00b6 13       		.uleb128 0x13
 6934 00b7 00       		.byte	0
 6935 00b8 00       		.byte	0
 6936 00b9 0F       		.uleb128 0xf
 6937 00ba 48       		.uleb128 0x48
 6938 00bb 01       		.byte	0x1
 6939 00bc 7D       		.uleb128 0x7d
 6940 00bd 01       		.uleb128 0x1
 6941 00be 7F       		.uleb128 0x7f
 6942 00bf 13       		.uleb128 0x13
 6943 00c0 01       		.uleb128 0x1
 6944 00c1 13       		.uleb128 0x13
 6945 00c2 00       		.byte	0
 6946 00c3 00       		.byte	0
 6947 00c4 10       		.uleb128 0x10
 6948 00c5 24       		.uleb128 0x24
 6949 00c6 00       		.byte	0
 6950 00c7 0B       		.uleb128 0xb
 6951 00c8 0B       		.uleb128 0xb
 6952 00c9 3E       		.uleb128 0x3e
 6953 00ca 0B       		.uleb128 0xb
 6954 00cb 03       		.uleb128 0x3
 6955 00cc 08       		.uleb128 0x8
 6956 00cd 00       		.byte	0
 6957 00ce 00       		.byte	0
 6958 00cf 11       		.uleb128 0x11
 6959 00d0 16       		.uleb128 0x16
 6960 00d1 00       		.byte	0
 6961 00d2 03       		.uleb128 0x3
 6962 00d3 0E       		.uleb128 0xe
 6963 00d4 3A       		.uleb128 0x3a
 6964 00d5 0B       		.uleb128 0xb
 6965 00d6 3B       		.uleb128 0x3b
 6966 00d7 0B       		.uleb128 0xb
 6967 00d8 39       		.uleb128 0x39
 6968 00d9 0B       		.uleb128 0xb
 6969 00da 49       		.uleb128 0x49
 6970 00db 13       		.uleb128 0x13
 6971 00dc 00       		.byte	0
 6972 00dd 00       		.byte	0
 6973 00de 12       		.uleb128 0x12
 6974 00df 04       		.uleb128 0x4
 6975 00e0 01       		.byte	0x1
 6976 00e1 3E       		.uleb128 0x3e
 6977 00e2 21       		.uleb128 0x21
 6978 00e3 07       		.sleb128 7
 6979 00e4 0B       		.uleb128 0xb
 6980 00e5 21       		.uleb128 0x21
 6981 00e6 04       		.sleb128 4
 6982 00e7 49       		.uleb128 0x49
 6983 00e8 13       		.uleb128 0x13
 6984 00e9 3A       		.uleb128 0x3a
 6985 00ea 0B       		.uleb128 0xb
 6986 00eb 3B       		.uleb128 0x3b
 6987 00ec 0B       		.uleb128 0xb
GAS LISTING C:\Users\lsw\AppData\Local\Temp\ccSZcLze.s 			page 188


 6988 00ed 39       		.uleb128 0x39
 6989 00ee 21       		.uleb128 0x21
 6990 00ef 01       		.sleb128 1
 6991 00f0 01       		.uleb128 0x1
 6992 00f1 13       		.uleb128 0x13
 6993 00f2 00       		.byte	0
 6994 00f3 00       		.byte	0
 6995 00f4 13       		.uleb128 0x13
 6996 00f5 13       		.uleb128 0x13
 6997 00f6 01       		.byte	0x1
 6998 00f7 03       		.uleb128 0x3
 6999 00f8 0E       		.uleb128 0xe
 7000 00f9 0B       		.uleb128 0xb
 7001 00fa 0B       		.uleb128 0xb
 7002 00fb 3A       		.uleb128 0x3a
 7003 00fc 0B       		.uleb128 0xb
 7004 00fd 3B       		.uleb128 0x3b
 7005 00fe 0B       		.uleb128 0xb
 7006 00ff 39       		.uleb128 0x39
 7007 0100 21       		.uleb128 0x21
 7008 0101 10       		.sleb128 16
 7009 0102 01       		.uleb128 0x1
 7010 0103 13       		.uleb128 0x13
 7011 0104 00       		.byte	0
 7012 0105 00       		.byte	0
 7013 0106 14       		.uleb128 0x14
 7014 0107 01       		.uleb128 0x1
 7015 0108 01       		.byte	0x1
 7016 0109 49       		.uleb128 0x49
 7017 010a 13       		.uleb128 0x13
 7018 010b 01       		.uleb128 0x1
 7019 010c 13       		.uleb128 0x13
 7020 010d 00       		.byte	0
 7021 010e 00       		.byte	0
 7022 010f 15       		.uleb128 0x15
 7023 0110 2E       		.uleb128 0x2e
 7024 0111 01       		.byte	0x1
 7025 0112 3F       		.uleb128 0x3f
 7026 0113 19       		.uleb128 0x19
 7027 0114 03       		.uleb128 0x3
 7028 0115 08       		.uleb128 0x8
 7029 0116 3A       		.uleb128 0x3a
 7030 0117 0B       		.uleb128 0xb
 7031 0118 3B       		.uleb128 0x3b
 7032 0119 05       		.uleb128 0x5
 7033 011a 39       		.uleb128 0x39
 7034 011b 0B       		.uleb128 0xb
 7035 011c 27       		.uleb128 0x27
 7036 011d 19       		.uleb128 0x19
 7037 011e 49       		.uleb128 0x49
 7038 011f 13       		.uleb128 0x13
 7039 0120 3C       		.uleb128 0x3c
 7040 0121 19       		.uleb128 0x19
 7041 0122 01       		.uleb128 0x1
 7042 0123 13       		.uleb128 0x13
 7043 0124 00       		.byte	0
 7044 0125 00       		.byte	0
GAS LISTING C:\Users\lsw\AppData\Local\Temp\ccSZcLze.s 			page 189


 7045 0126 16       		.uleb128 0x16
 7046 0127 2E       		.uleb128 0x2e
 7047 0128 01       		.byte	0x1
 7048 0129 3F       		.uleb128 0x3f
 7049 012a 19       		.uleb128 0x19
 7050 012b 03       		.uleb128 0x3
 7051 012c 08       		.uleb128 0x8
 7052 012d 3A       		.uleb128 0x3a
 7053 012e 0B       		.uleb128 0xb
 7054 012f 3B       		.uleb128 0x3b
 7055 0130 05       		.uleb128 0x5
 7056 0131 39       		.uleb128 0x39
 7057 0132 0B       		.uleb128 0xb
 7058 0133 27       		.uleb128 0x27
 7059 0134 19       		.uleb128 0x19
 7060 0135 3C       		.uleb128 0x3c
 7061 0136 19       		.uleb128 0x19
 7062 0137 01       		.uleb128 0x1
 7063 0138 13       		.uleb128 0x13
 7064 0139 00       		.byte	0
 7065 013a 00       		.byte	0
 7066 013b 17       		.uleb128 0x17
 7067 013c 2E       		.uleb128 0x2e
 7068 013d 01       		.byte	0x1
 7069 013e 3F       		.uleb128 0x3f
 7070 013f 19       		.uleb128 0x19
 7071 0140 03       		.uleb128 0x3
 7072 0141 08       		.uleb128 0x8
 7073 0142 3A       		.uleb128 0x3a
 7074 0143 0B       		.uleb128 0xb
 7075 0144 3B       		.uleb128 0x3b
 7076 0145 0B       		.uleb128 0xb
 7077 0146 39       		.uleb128 0x39
 7078 0147 0B       		.uleb128 0xb
 7079 0148 27       		.uleb128 0x27
 7080 0149 19       		.uleb128 0x19
 7081 014a 49       		.uleb128 0x49
 7082 014b 13       		.uleb128 0x13
 7083 014c 3C       		.uleb128 0x3c
 7084 014d 19       		.uleb128 0x19
 7085 014e 01       		.uleb128 0x1
 7086 014f 13       		.uleb128 0x13
 7087 0150 00       		.byte	0
 7088 0151 00       		.byte	0
 7089 0152 18       		.uleb128 0x18
 7090 0153 48       		.uleb128 0x48
 7091 0154 00       		.byte	0
 7092 0155 7D       		.uleb128 0x7d
 7093 0156 01       		.uleb128 0x1
 7094 0157 7F       		.uleb128 0x7f
 7095 0158 13       		.uleb128 0x13
 7096 0159 00       		.byte	0
 7097 015a 00       		.byte	0
 7098 015b 19       		.uleb128 0x19
 7099 015c 16       		.uleb128 0x16
 7100 015d 00       		.byte	0
 7101 015e 03       		.uleb128 0x3
GAS LISTING C:\Users\lsw\AppData\Local\Temp\ccSZcLze.s 			page 190


 7102 015f 08       		.uleb128 0x8
 7103 0160 3A       		.uleb128 0x3a
 7104 0161 0B       		.uleb128 0xb
 7105 0162 3B       		.uleb128 0x3b
 7106 0163 05       		.uleb128 0x5
 7107 0164 39       		.uleb128 0x39
 7108 0165 21       		.uleb128 0x21
 7109 0166 03       		.sleb128 3
 7110 0167 49       		.uleb128 0x49
 7111 0168 13       		.uleb128 0x13
 7112 0169 00       		.byte	0
 7113 016a 00       		.byte	0
 7114 016b 1A       		.uleb128 0x1a
 7115 016c 34       		.uleb128 0x34
 7116 016d 00       		.byte	0
 7117 016e 03       		.uleb128 0x3
 7118 016f 08       		.uleb128 0x8
 7119 0170 3A       		.uleb128 0x3a
 7120 0171 21       		.uleb128 0x21
 7121 0172 01       		.sleb128 1
 7122 0173 3B       		.uleb128 0x3b
 7123 0174 0B       		.uleb128 0xb
 7124 0175 39       		.uleb128 0x39
 7125 0176 0B       		.uleb128 0xb
 7126 0177 49       		.uleb128 0x49
 7127 0178 13       		.uleb128 0x13
 7128 0179 02       		.uleb128 0x2
 7129 017a 17       		.uleb128 0x17
 7130 017b B742     		.uleb128 0x2137
 7131 017d 17       		.uleb128 0x17
 7132 017e 00       		.byte	0
 7133 017f 00       		.byte	0
 7134 0180 1B       		.uleb128 0x1b
 7135 0181 15       		.uleb128 0x15
 7136 0182 01       		.byte	0x1
 7137 0183 27       		.uleb128 0x27
 7138 0184 19       		.uleb128 0x19
 7139 0185 49       		.uleb128 0x49
 7140 0186 13       		.uleb128 0x13
 7141 0187 01       		.uleb128 0x1
 7142 0188 13       		.uleb128 0x13
 7143 0189 00       		.byte	0
 7144 018a 00       		.byte	0
 7145 018b 1C       		.uleb128 0x1c
 7146 018c 21       		.uleb128 0x21
 7147 018d 00       		.byte	0
 7148 018e 49       		.uleb128 0x49
 7149 018f 13       		.uleb128 0x13
 7150 0190 2F       		.uleb128 0x2f
 7151 0191 0B       		.uleb128 0xb
 7152 0192 00       		.byte	0
 7153 0193 00       		.byte	0
 7154 0194 1D       		.uleb128 0x1d
 7155 0195 0D       		.uleb128 0xd
 7156 0196 00       		.byte	0
 7157 0197 03       		.uleb128 0x3
 7158 0198 08       		.uleb128 0x8
GAS LISTING C:\Users\lsw\AppData\Local\Temp\ccSZcLze.s 			page 191


 7159 0199 3A       		.uleb128 0x3a
 7160 019a 21       		.uleb128 0x21
 7161 019b 02       		.sleb128 2
 7162 019c 3B       		.uleb128 0x3b
 7163 019d 05       		.uleb128 0x5
 7164 019e 39       		.uleb128 0x39
 7165 019f 21       		.uleb128 0x21
 7166 01a0 15       		.sleb128 21
 7167 01a1 49       		.uleb128 0x49
 7168 01a2 13       		.uleb128 0x13
 7169 01a3 0D       		.uleb128 0xd
 7170 01a4 0B       		.uleb128 0xb
 7171 01a5 6B       		.uleb128 0x6b
 7172 01a6 05       		.uleb128 0x5
 7173 01a7 00       		.byte	0
 7174 01a8 00       		.byte	0
 7175 01a9 1E       		.uleb128 0x1e
 7176 01aa 13       		.uleb128 0x13
 7177 01ab 01       		.byte	0x1
 7178 01ac 0B       		.uleb128 0xb
 7179 01ad 0B       		.uleb128 0xb
 7180 01ae 3A       		.uleb128 0x3a
 7181 01af 0B       		.uleb128 0xb
 7182 01b0 3B       		.uleb128 0x3b
 7183 01b1 0B       		.uleb128 0xb
 7184 01b2 39       		.uleb128 0x39
 7185 01b3 0B       		.uleb128 0xb
 7186 01b4 01       		.uleb128 0x1
 7187 01b5 13       		.uleb128 0x13
 7188 01b6 00       		.byte	0
 7189 01b7 00       		.byte	0
 7190 01b8 1F       		.uleb128 0x1f
 7191 01b9 0D       		.uleb128 0xd
 7192 01ba 00       		.byte	0
 7193 01bb 03       		.uleb128 0x3
 7194 01bc 08       		.uleb128 0x8
 7195 01bd 3A       		.uleb128 0x3a
 7196 01be 0B       		.uleb128 0xb
 7197 01bf 3B       		.uleb128 0x3b
 7198 01c0 0B       		.uleb128 0xb
 7199 01c1 39       		.uleb128 0x39
 7200 01c2 0B       		.uleb128 0xb
 7201 01c3 49       		.uleb128 0x49
 7202 01c4 13       		.uleb128 0x13
 7203 01c5 00       		.byte	0
 7204 01c6 00       		.byte	0
 7205 01c7 20       		.uleb128 0x20
 7206 01c8 13       		.uleb128 0x13
 7207 01c9 01       		.byte	0x1
 7208 01ca 03       		.uleb128 0x3
 7209 01cb 08       		.uleb128 0x8
 7210 01cc 0B       		.uleb128 0xb
 7211 01cd 0B       		.uleb128 0xb
 7212 01ce 3A       		.uleb128 0x3a
 7213 01cf 21       		.uleb128 0x21
 7214 01d0 02       		.sleb128 2
 7215 01d1 3B       		.uleb128 0x3b
GAS LISTING C:\Users\lsw\AppData\Local\Temp\ccSZcLze.s 			page 192


 7216 01d2 05       		.uleb128 0x5
 7217 01d3 39       		.uleb128 0x39
 7218 01d4 21       		.uleb128 0x21
 7219 01d5 10       		.sleb128 16
 7220 01d6 01       		.uleb128 0x1
 7221 01d7 13       		.uleb128 0x13
 7222 01d8 00       		.byte	0
 7223 01d9 00       		.byte	0
 7224 01da 21       		.uleb128 0x21
 7225 01db 05       		.uleb128 0x5
 7226 01dc 00       		.byte	0
 7227 01dd 31       		.uleb128 0x31
 7228 01de 13       		.uleb128 0x13
 7229 01df 02       		.uleb128 0x2
 7230 01e0 17       		.uleb128 0x17
 7231 01e1 B742     		.uleb128 0x2137
 7232 01e3 17       		.uleb128 0x17
 7233 01e4 00       		.byte	0
 7234 01e5 00       		.byte	0
 7235 01e6 22       		.uleb128 0x22
 7236 01e7 05       		.uleb128 0x5
 7237 01e8 00       		.byte	0
 7238 01e9 03       		.uleb128 0x3
 7239 01ea 08       		.uleb128 0x8
 7240 01eb 3A       		.uleb128 0x3a
 7241 01ec 21       		.uleb128 0x21
 7242 01ed 01       		.sleb128 1
 7243 01ee 3B       		.uleb128 0x3b
 7244 01ef 0B       		.uleb128 0xb
 7245 01f0 39       		.uleb128 0x39
 7246 01f1 0B       		.uleb128 0xb
 7247 01f2 49       		.uleb128 0x49
 7248 01f3 13       		.uleb128 0x13
 7249 01f4 02       		.uleb128 0x2
 7250 01f5 17       		.uleb128 0x17
 7251 01f6 B742     		.uleb128 0x2137
 7252 01f8 17       		.uleb128 0x17
 7253 01f9 00       		.byte	0
 7254 01fa 00       		.byte	0
 7255 01fb 23       		.uleb128 0x23
 7256 01fc 13       		.uleb128 0x13
 7257 01fd 00       		.byte	0
 7258 01fe 03       		.uleb128 0x3
 7259 01ff 0E       		.uleb128 0xe
 7260 0200 3C       		.uleb128 0x3c
 7261 0201 19       		.uleb128 0x19
 7262 0202 00       		.byte	0
 7263 0203 00       		.byte	0
 7264 0204 24       		.uleb128 0x24
 7265 0205 34       		.uleb128 0x34
 7266 0206 00       		.byte	0
 7267 0207 03       		.uleb128 0x3
 7268 0208 08       		.uleb128 0x8
 7269 0209 3A       		.uleb128 0x3a
 7270 020a 21       		.uleb128 0x21
 7271 020b 01       		.sleb128 1
 7272 020c 3B       		.uleb128 0x3b
GAS LISTING C:\Users\lsw\AppData\Local\Temp\ccSZcLze.s 			page 193


 7273 020d 0B       		.uleb128 0xb
 7274 020e 39       		.uleb128 0x39
 7275 020f 0B       		.uleb128 0xb
 7276 0210 49       		.uleb128 0x49
 7277 0211 13       		.uleb128 0x13
 7278 0212 02       		.uleb128 0x2
 7279 0213 18       		.uleb128 0x18
 7280 0214 00       		.byte	0
 7281 0215 00       		.byte	0
 7282 0216 25       		.uleb128 0x25
 7283 0217 2E       		.uleb128 0x2e
 7284 0218 01       		.byte	0x1
 7285 0219 3F       		.uleb128 0x3f
 7286 021a 19       		.uleb128 0x19
 7287 021b 03       		.uleb128 0x3
 7288 021c 08       		.uleb128 0x8
 7289 021d 3A       		.uleb128 0x3a
 7290 021e 21       		.uleb128 0x21
 7291 021f 01       		.sleb128 1
 7292 0220 3B       		.uleb128 0x3b
 7293 0221 0B       		.uleb128 0xb
 7294 0222 39       		.uleb128 0x39
 7295 0223 21       		.uleb128 0x21
 7296 0224 06       		.sleb128 6
 7297 0225 27       		.uleb128 0x27
 7298 0226 19       		.uleb128 0x19
 7299 0227 11       		.uleb128 0x11
 7300 0228 01       		.uleb128 0x1
 7301 0229 12       		.uleb128 0x12
 7302 022a 07       		.uleb128 0x7
 7303 022b 40       		.uleb128 0x40
 7304 022c 18       		.uleb128 0x18
 7305 022d 7A       		.uleb128 0x7a
 7306 022e 19       		.uleb128 0x19
 7307 022f 01       		.uleb128 0x1
 7308 0230 13       		.uleb128 0x13
 7309 0231 00       		.byte	0
 7310 0232 00       		.byte	0
 7311 0233 26       		.uleb128 0x26
 7312 0234 05       		.uleb128 0x5
 7313 0235 00       		.byte	0
 7314 0236 03       		.uleb128 0x3
 7315 0237 0E       		.uleb128 0xe
 7316 0238 3A       		.uleb128 0x3a
 7317 0239 21       		.uleb128 0x21
 7318 023a 01       		.sleb128 1
 7319 023b 3B       		.uleb128 0x3b
 7320 023c 0B       		.uleb128 0xb
 7321 023d 39       		.uleb128 0x39
 7322 023e 0B       		.uleb128 0xb
 7323 023f 49       		.uleb128 0x49
 7324 0240 13       		.uleb128 0x13
 7325 0241 02       		.uleb128 0x2
 7326 0242 17       		.uleb128 0x17
 7327 0243 B742     		.uleb128 0x2137
 7328 0245 17       		.uleb128 0x17
 7329 0246 00       		.byte	0
GAS LISTING C:\Users\lsw\AppData\Local\Temp\ccSZcLze.s 			page 194


 7330 0247 00       		.byte	0
 7331 0248 27       		.uleb128 0x27
 7332 0249 48       		.uleb128 0x48
 7333 024a 00       		.byte	0
 7334 024b 7D       		.uleb128 0x7d
 7335 024c 01       		.uleb128 0x1
 7336 024d 8201     		.uleb128 0x82
 7337 024f 19       		.uleb128 0x19
 7338 0250 7F       		.uleb128 0x7f
 7339 0251 13       		.uleb128 0x13
 7340 0252 00       		.byte	0
 7341 0253 00       		.byte	0
 7342 0254 28       		.uleb128 0x28
 7343 0255 37       		.uleb128 0x37
 7344 0256 00       		.byte	0
 7345 0257 49       		.uleb128 0x49
 7346 0258 13       		.uleb128 0x13
 7347 0259 00       		.byte	0
 7348 025a 00       		.byte	0
 7349 025b 29       		.uleb128 0x29
 7350 025c 0D       		.uleb128 0xd
 7351 025d 00       		.byte	0
 7352 025e 03       		.uleb128 0x3
 7353 025f 0E       		.uleb128 0xe
 7354 0260 3A       		.uleb128 0x3a
 7355 0261 21       		.uleb128 0x21
 7356 0262 11       		.sleb128 17
 7357 0263 3B       		.uleb128 0x3b
 7358 0264 05       		.uleb128 0x5
 7359 0265 39       		.uleb128 0x39
 7360 0266 0B       		.uleb128 0xb
 7361 0267 49       		.uleb128 0x49
 7362 0268 13       		.uleb128 0x13
 7363 0269 00       		.byte	0
 7364 026a 00       		.byte	0
 7365 026b 2A       		.uleb128 0x2a
 7366 026c 13       		.uleb128 0x13
 7367 026d 01       		.byte	0x1
 7368 026e 03       		.uleb128 0x3
 7369 026f 08       		.uleb128 0x8
 7370 0270 0B       		.uleb128 0xb
 7371 0271 0B       		.uleb128 0xb
 7372 0272 3A       		.uleb128 0x3a
 7373 0273 0B       		.uleb128 0xb
 7374 0274 3B       		.uleb128 0x3b
 7375 0275 0B       		.uleb128 0xb
 7376 0276 39       		.uleb128 0x39
 7377 0277 0B       		.uleb128 0xb
 7378 0278 01       		.uleb128 0x1
 7379 0279 13       		.uleb128 0x13
 7380 027a 00       		.byte	0
 7381 027b 00       		.byte	0
 7382 027c 2B       		.uleb128 0x2b
 7383 027d 0D       		.uleb128 0xd
 7384 027e 00       		.byte	0
 7385 027f 03       		.uleb128 0x3
 7386 0280 08       		.uleb128 0x8
GAS LISTING C:\Users\lsw\AppData\Local\Temp\ccSZcLze.s 			page 195


 7387 0281 3A       		.uleb128 0x3a
 7388 0282 21       		.uleb128 0x21
 7389 0283 02       		.sleb128 2
 7390 0284 3B       		.uleb128 0x3b
 7391 0285 0B       		.uleb128 0xb
 7392 0286 39       		.uleb128 0x39
 7393 0287 21       		.uleb128 0x21
 7394 0288 12       		.sleb128 18
 7395 0289 49       		.uleb128 0x49
 7396 028a 13       		.uleb128 0x13
 7397 028b 0D       		.uleb128 0xd
 7398 028c 0B       		.uleb128 0xb
 7399 028d 6B       		.uleb128 0x6b
 7400 028e 0B       		.uleb128 0xb
 7401 028f 00       		.byte	0
 7402 0290 00       		.byte	0
 7403 0291 2C       		.uleb128 0x2c
 7404 0292 15       		.uleb128 0x15
 7405 0293 01       		.byte	0x1
 7406 0294 27       		.uleb128 0x27
 7407 0295 19       		.uleb128 0x19
 7408 0296 01       		.uleb128 0x1
 7409 0297 13       		.uleb128 0x13
 7410 0298 00       		.byte	0
 7411 0299 00       		.byte	0
 7412 029a 2D       		.uleb128 0x2d
 7413 029b 48       		.uleb128 0x48
 7414 029c 01       		.byte	0x1
 7415 029d 7D       		.uleb128 0x7d
 7416 029e 01       		.uleb128 0x1
 7417 029f 7F       		.uleb128 0x7f
 7418 02a0 13       		.uleb128 0x13
 7419 02a1 00       		.byte	0
 7420 02a2 00       		.byte	0
 7421 02a3 2E       		.uleb128 0x2e
 7422 02a4 26       		.uleb128 0x26
 7423 02a5 00       		.byte	0
 7424 02a6 49       		.uleb128 0x49
 7425 02a7 13       		.uleb128 0x13
 7426 02a8 00       		.byte	0
 7427 02a9 00       		.byte	0
 7428 02aa 2F       		.uleb128 0x2f
 7429 02ab 35       		.uleb128 0x35
 7430 02ac 00       		.byte	0
 7431 02ad 49       		.uleb128 0x49
 7432 02ae 13       		.uleb128 0x13
 7433 02af 00       		.byte	0
 7434 02b0 00       		.byte	0
 7435 02b1 30       		.uleb128 0x30
 7436 02b2 17       		.uleb128 0x17
 7437 02b3 01       		.byte	0x1
 7438 02b4 0B       		.uleb128 0xb
 7439 02b5 0B       		.uleb128 0xb
 7440 02b6 3A       		.uleb128 0x3a
 7441 02b7 0B       		.uleb128 0xb
 7442 02b8 3B       		.uleb128 0x3b
 7443 02b9 0B       		.uleb128 0xb
GAS LISTING C:\Users\lsw\AppData\Local\Temp\ccSZcLze.s 			page 196


 7444 02ba 39       		.uleb128 0x39
 7445 02bb 0B       		.uleb128 0xb
 7446 02bc 01       		.uleb128 0x1
 7447 02bd 13       		.uleb128 0x13
 7448 02be 00       		.byte	0
 7449 02bf 00       		.byte	0
 7450 02c0 31       		.uleb128 0x31
 7451 02c1 21       		.uleb128 0x21
 7452 02c2 00       		.byte	0
 7453 02c3 49       		.uleb128 0x49
 7454 02c4 13       		.uleb128 0x13
 7455 02c5 2F       		.uleb128 0x2f
 7456 02c6 05       		.uleb128 0x5
 7457 02c7 00       		.byte	0
 7458 02c8 00       		.byte	0
 7459 02c9 32       		.uleb128 0x32
 7460 02ca 18       		.uleb128 0x18
 7461 02cb 00       		.byte	0
 7462 02cc 00       		.byte	0
 7463 02cd 00       		.byte	0
 7464 02ce 33       		.uleb128 0x33
 7465 02cf 05       		.uleb128 0x5
 7466 02d0 00       		.byte	0
 7467 02d1 03       		.uleb128 0x3
 7468 02d2 0E       		.uleb128 0xe
 7469 02d3 3A       		.uleb128 0x3a
 7470 02d4 21       		.uleb128 0x21
 7471 02d5 01       		.sleb128 1
 7472 02d6 3B       		.uleb128 0x3b
 7473 02d7 0B       		.uleb128 0xb
 7474 02d8 39       		.uleb128 0x39
 7475 02d9 0B       		.uleb128 0xb
 7476 02da 49       		.uleb128 0x49
 7477 02db 13       		.uleb128 0x13
 7478 02dc 02       		.uleb128 0x2
 7479 02dd 18       		.uleb128 0x18
 7480 02de 00       		.byte	0
 7481 02df 00       		.byte	0
 7482 02e0 34       		.uleb128 0x34
 7483 02e1 2E       		.uleb128 0x2e
 7484 02e2 01       		.byte	0x1
 7485 02e3 3F       		.uleb128 0x3f
 7486 02e4 19       		.uleb128 0x19
 7487 02e5 03       		.uleb128 0x3
 7488 02e6 08       		.uleb128 0x8
 7489 02e7 3A       		.uleb128 0x3a
 7490 02e8 21       		.uleb128 0x21
 7491 02e9 01       		.sleb128 1
 7492 02ea 3B       		.uleb128 0x3b
 7493 02eb 0B       		.uleb128 0xb
 7494 02ec 39       		.uleb128 0x39
 7495 02ed 0B       		.uleb128 0xb
 7496 02ee 27       		.uleb128 0x27
 7497 02ef 19       		.uleb128 0x19
 7498 02f0 49       		.uleb128 0x49
 7499 02f1 13       		.uleb128 0x13
 7500 02f2 11       		.uleb128 0x11
GAS LISTING C:\Users\lsw\AppData\Local\Temp\ccSZcLze.s 			page 197


 7501 02f3 01       		.uleb128 0x1
 7502 02f4 12       		.uleb128 0x12
 7503 02f5 07       		.uleb128 0x7
 7504 02f6 40       		.uleb128 0x40
 7505 02f7 18       		.uleb128 0x18
 7506 02f8 7A       		.uleb128 0x7a
 7507 02f9 19       		.uleb128 0x19
 7508 02fa 01       		.uleb128 0x1
 7509 02fb 13       		.uleb128 0x13
 7510 02fc 00       		.byte	0
 7511 02fd 00       		.byte	0
 7512 02fe 35       		.uleb128 0x35
 7513 02ff 34       		.uleb128 0x34
 7514 0300 00       		.byte	0
 7515 0301 03       		.uleb128 0x3
 7516 0302 0E       		.uleb128 0xe
 7517 0303 3A       		.uleb128 0x3a
 7518 0304 21       		.uleb128 0x21
 7519 0305 01       		.sleb128 1
 7520 0306 3B       		.uleb128 0x3b
 7521 0307 0B       		.uleb128 0xb
 7522 0308 39       		.uleb128 0x39
 7523 0309 21       		.uleb128 0x21
 7524 030a 16       		.sleb128 22
 7525 030b 49       		.uleb128 0x49
 7526 030c 13       		.uleb128 0x13
 7527 030d 02       		.uleb128 0x2
 7528 030e 17       		.uleb128 0x17
 7529 030f B742     		.uleb128 0x2137
 7530 0311 17       		.uleb128 0x17
 7531 0312 00       		.byte	0
 7532 0313 00       		.byte	0
 7533 0314 36       		.uleb128 0x36
 7534 0315 34       		.uleb128 0x34
 7535 0316 00       		.byte	0
 7536 0317 31       		.uleb128 0x31
 7537 0318 13       		.uleb128 0x13
 7538 0319 02       		.uleb128 0x2
 7539 031a 17       		.uleb128 0x17
 7540 031b B742     		.uleb128 0x2137
 7541 031d 17       		.uleb128 0x17
 7542 031e 00       		.byte	0
 7543 031f 00       		.byte	0
 7544 0320 37       		.uleb128 0x37
 7545 0321 2E       		.uleb128 0x2e
 7546 0322 01       		.byte	0x1
 7547 0323 03       		.uleb128 0x3
 7548 0324 08       		.uleb128 0x8
 7549 0325 3A       		.uleb128 0x3a
 7550 0326 21       		.uleb128 0x21
 7551 0327 01       		.sleb128 1
 7552 0328 3B       		.uleb128 0x3b
 7553 0329 0B       		.uleb128 0xb
 7554 032a 39       		.uleb128 0x39
 7555 032b 21       		.uleb128 0x21
 7556 032c 0D       		.sleb128 13
 7557 032d 27       		.uleb128 0x27
GAS LISTING C:\Users\lsw\AppData\Local\Temp\ccSZcLze.s 			page 198


 7558 032e 19       		.uleb128 0x19
 7559 032f 11       		.uleb128 0x11
 7560 0330 01       		.uleb128 0x1
 7561 0331 12       		.uleb128 0x12
 7562 0332 07       		.uleb128 0x7
 7563 0333 40       		.uleb128 0x40
 7564 0334 18       		.uleb128 0x18
 7565 0335 7A       		.uleb128 0x7a
 7566 0336 19       		.uleb128 0x19
 7567 0337 01       		.uleb128 0x1
 7568 0338 13       		.uleb128 0x13
 7569 0339 00       		.byte	0
 7570 033a 00       		.byte	0
 7571 033b 38       		.uleb128 0x38
 7572 033c 05       		.uleb128 0x5
 7573 033d 00       		.byte	0
 7574 033e 03       		.uleb128 0x3
 7575 033f 0E       		.uleb128 0xe
 7576 0340 3A       		.uleb128 0x3a
 7577 0341 21       		.uleb128 0x21
 7578 0342 01       		.sleb128 1
 7579 0343 3B       		.uleb128 0x3b
 7580 0344 21       		.uleb128 0x21
 7581 0345 3E       		.sleb128 62
 7582 0346 39       		.uleb128 0x39
 7583 0347 0B       		.uleb128 0xb
 7584 0348 49       		.uleb128 0x49
 7585 0349 13       		.uleb128 0x13
 7586 034a 00       		.byte	0
 7587 034b 00       		.byte	0
 7588 034c 39       		.uleb128 0x39
 7589 034d 34       		.uleb128 0x34
 7590 034e 00       		.byte	0
 7591 034f 03       		.uleb128 0x3
 7592 0350 08       		.uleb128 0x8
 7593 0351 3A       		.uleb128 0x3a
 7594 0352 21       		.uleb128 0x21
 7595 0353 01       		.sleb128 1
 7596 0354 3B       		.uleb128 0x3b
 7597 0355 0B       		.uleb128 0xb
 7598 0356 39       		.uleb128 0x39
 7599 0357 0B       		.uleb128 0xb
 7600 0358 49       		.uleb128 0x49
 7601 0359 13       		.uleb128 0x13
 7602 035a 00       		.byte	0
 7603 035b 00       		.byte	0
 7604 035c 3A       		.uleb128 0x3a
 7605 035d 2E       		.uleb128 0x2e
 7606 035e 01       		.byte	0x1
 7607 035f 03       		.uleb128 0x3
 7608 0360 08       		.uleb128 0x8
 7609 0361 3A       		.uleb128 0x3a
 7610 0362 21       		.uleb128 0x21
 7611 0363 02       		.sleb128 2
 7612 0364 3B       		.uleb128 0x3b
 7613 0365 05       		.uleb128 0x5
 7614 0366 39       		.uleb128 0x39
GAS LISTING C:\Users\lsw\AppData\Local\Temp\ccSZcLze.s 			page 199


 7615 0367 21       		.uleb128 0x21
 7616 0368 14       		.sleb128 20
 7617 0369 27       		.uleb128 0x27
 7618 036a 19       		.uleb128 0x19
 7619 036b 20       		.uleb128 0x20
 7620 036c 21       		.uleb128 0x21
 7621 036d 03       		.sleb128 3
 7622 036e 01       		.uleb128 0x1
 7623 036f 13       		.uleb128 0x13
 7624 0370 00       		.byte	0
 7625 0371 00       		.byte	0
 7626 0372 3B       		.uleb128 0x3b
 7627 0373 05       		.uleb128 0x5
 7628 0374 00       		.byte	0
 7629 0375 03       		.uleb128 0x3
 7630 0376 08       		.uleb128 0x8
 7631 0377 3A       		.uleb128 0x3a
 7632 0378 21       		.uleb128 0x21
 7633 0379 02       		.sleb128 2
 7634 037a 3B       		.uleb128 0x3b
 7635 037b 05       		.uleb128 0x5
 7636 037c 39       		.uleb128 0x39
 7637 037d 0B       		.uleb128 0xb
 7638 037e 49       		.uleb128 0x49
 7639 037f 13       		.uleb128 0x13
 7640 0380 00       		.byte	0
 7641 0381 00       		.byte	0
 7642 0382 3C       		.uleb128 0x3c
 7643 0383 11       		.uleb128 0x11
 7644 0384 01       		.byte	0x1
 7645 0385 25       		.uleb128 0x25
 7646 0386 08       		.uleb128 0x8
 7647 0387 13       		.uleb128 0x13
 7648 0388 0B       		.uleb128 0xb
 7649 0389 03       		.uleb128 0x3
 7650 038a 1F       		.uleb128 0x1f
 7651 038b 1B       		.uleb128 0x1b
 7652 038c 1F       		.uleb128 0x1f
 7653 038d 55       		.uleb128 0x55
 7654 038e 17       		.uleb128 0x17
 7655 038f 11       		.uleb128 0x11
 7656 0390 01       		.uleb128 0x1
 7657 0391 10       		.uleb128 0x10
 7658 0392 17       		.uleb128 0x17
 7659 0393 00       		.byte	0
 7660 0394 00       		.byte	0
 7661 0395 3D       		.uleb128 0x3d
 7662 0396 0F       		.uleb128 0xf
 7663 0397 00       		.byte	0
 7664 0398 0B       		.uleb128 0xb
 7665 0399 0B       		.uleb128 0xb
 7666 039a 00       		.byte	0
 7667 039b 00       		.byte	0
 7668 039c 3E       		.uleb128 0x3e
 7669 039d 26       		.uleb128 0x26
 7670 039e 00       		.byte	0
 7671 039f 00       		.byte	0
GAS LISTING C:\Users\lsw\AppData\Local\Temp\ccSZcLze.s 			page 200


 7672 03a0 00       		.byte	0
 7673 03a1 3F       		.uleb128 0x3f
 7674 03a2 13       		.uleb128 0x13
 7675 03a3 00       		.byte	0
 7676 03a4 03       		.uleb128 0x3
 7677 03a5 08       		.uleb128 0x8
 7678 03a6 3C       		.uleb128 0x3c
 7679 03a7 19       		.uleb128 0x19
 7680 03a8 00       		.byte	0
 7681 03a9 00       		.byte	0
 7682 03aa 40       		.uleb128 0x40
 7683 03ab 17       		.uleb128 0x17
 7684 03ac 01       		.byte	0x1
 7685 03ad 03       		.uleb128 0x3
 7686 03ae 0E       		.uleb128 0xe
 7687 03af 0B       		.uleb128 0xb
 7688 03b0 0B       		.uleb128 0xb
 7689 03b1 3A       		.uleb128 0x3a
 7690 03b2 0B       		.uleb128 0xb
 7691 03b3 3B       		.uleb128 0x3b
 7692 03b4 05       		.uleb128 0x5
 7693 03b5 39       		.uleb128 0x39
 7694 03b6 0B       		.uleb128 0xb
 7695 03b7 01       		.uleb128 0x1
 7696 03b8 13       		.uleb128 0x13
 7697 03b9 00       		.byte	0
 7698 03ba 00       		.byte	0
 7699 03bb 41       		.uleb128 0x41
 7700 03bc 13       		.uleb128 0x13
 7701 03bd 01       		.byte	0x1
 7702 03be 03       		.uleb128 0x3
 7703 03bf 0E       		.uleb128 0xe
 7704 03c0 0B       		.uleb128 0xb
 7705 03c1 05       		.uleb128 0x5
 7706 03c2 3A       		.uleb128 0x3a
 7707 03c3 0B       		.uleb128 0xb
 7708 03c4 3B       		.uleb128 0x3b
 7709 03c5 05       		.uleb128 0x5
 7710 03c6 39       		.uleb128 0x39
 7711 03c7 0B       		.uleb128 0xb
 7712 03c8 01       		.uleb128 0x1
 7713 03c9 13       		.uleb128 0x13
 7714 03ca 00       		.byte	0
 7715 03cb 00       		.byte	0
 7716 03cc 42       		.uleb128 0x42
 7717 03cd 34       		.uleb128 0x34
 7718 03ce 00       		.byte	0
 7719 03cf 03       		.uleb128 0x3
 7720 03d0 0E       		.uleb128 0xe
 7721 03d1 3A       		.uleb128 0x3a
 7722 03d2 0B       		.uleb128 0xb
 7723 03d3 3B       		.uleb128 0x3b
 7724 03d4 05       		.uleb128 0x5
 7725 03d5 39       		.uleb128 0x39
 7726 03d6 0B       		.uleb128 0xb
 7727 03d7 49       		.uleb128 0x49
 7728 03d8 13       		.uleb128 0x13
GAS LISTING C:\Users\lsw\AppData\Local\Temp\ccSZcLze.s 			page 201


 7729 03d9 3F       		.uleb128 0x3f
 7730 03da 19       		.uleb128 0x19
 7731 03db 3C       		.uleb128 0x3c
 7732 03dc 19       		.uleb128 0x19
 7733 03dd 00       		.byte	0
 7734 03de 00       		.byte	0
 7735 03df 43       		.uleb128 0x43
 7736 03e0 34       		.uleb128 0x34
 7737 03e1 00       		.byte	0
 7738 03e2 03       		.uleb128 0x3
 7739 03e3 0E       		.uleb128 0xe
 7740 03e4 3A       		.uleb128 0x3a
 7741 03e5 0B       		.uleb128 0xb
 7742 03e6 3B       		.uleb128 0x3b
 7743 03e7 0B       		.uleb128 0xb
 7744 03e8 39       		.uleb128 0x39
 7745 03e9 0B       		.uleb128 0xb
 7746 03ea 49       		.uleb128 0x49
 7747 03eb 13       		.uleb128 0x13
 7748 03ec 02       		.uleb128 0x2
 7749 03ed 18       		.uleb128 0x18
 7750 03ee 00       		.byte	0
 7751 03ef 00       		.byte	0
 7752 03f0 44       		.uleb128 0x44
 7753 03f1 21       		.uleb128 0x21
 7754 03f2 00       		.byte	0
 7755 03f3 49       		.uleb128 0x49
 7756 03f4 13       		.uleb128 0x13
 7757 03f5 2F       		.uleb128 0x2f
 7758 03f6 06       		.uleb128 0x6
 7759 03f7 00       		.byte	0
 7760 03f8 00       		.byte	0
 7761 03f9 45       		.uleb128 0x45
 7762 03fa 34       		.uleb128 0x34
 7763 03fb 00       		.byte	0
 7764 03fc 03       		.uleb128 0x3
 7765 03fd 08       		.uleb128 0x8
 7766 03fe 3A       		.uleb128 0x3a
 7767 03ff 0B       		.uleb128 0xb
 7768 0400 3B       		.uleb128 0x3b
 7769 0401 0B       		.uleb128 0xb
 7770 0402 39       		.uleb128 0x39
 7771 0403 0B       		.uleb128 0xb
 7772 0404 49       		.uleb128 0x49
 7773 0405 13       		.uleb128 0x13
 7774 0406 3F       		.uleb128 0x3f
 7775 0407 19       		.uleb128 0x19
 7776 0408 02       		.uleb128 0x2
 7777 0409 18       		.uleb128 0x18
 7778 040a 00       		.byte	0
 7779 040b 00       		.byte	0
 7780 040c 46       		.uleb128 0x46
 7781 040d 2E       		.uleb128 0x2e
 7782 040e 00       		.byte	0
 7783 040f 3F       		.uleb128 0x3f
 7784 0410 19       		.uleb128 0x19
 7785 0411 03       		.uleb128 0x3
GAS LISTING C:\Users\lsw\AppData\Local\Temp\ccSZcLze.s 			page 202


 7786 0412 08       		.uleb128 0x8
 7787 0413 3A       		.uleb128 0x3a
 7788 0414 0B       		.uleb128 0xb
 7789 0415 3B       		.uleb128 0x3b
 7790 0416 0B       		.uleb128 0xb
 7791 0417 39       		.uleb128 0x39
 7792 0418 0B       		.uleb128 0xb
 7793 0419 27       		.uleb128 0x27
 7794 041a 19       		.uleb128 0x19
 7795 041b 49       		.uleb128 0x49
 7796 041c 13       		.uleb128 0x13
 7797 041d 3C       		.uleb128 0x3c
 7798 041e 19       		.uleb128 0x19
 7799 041f 00       		.byte	0
 7800 0420 00       		.byte	0
 7801 0421 47       		.uleb128 0x47
 7802 0422 2E       		.uleb128 0x2e
 7803 0423 01       		.byte	0x1
 7804 0424 3F       		.uleb128 0x3f
 7805 0425 19       		.uleb128 0x19
 7806 0426 03       		.uleb128 0x3
 7807 0427 08       		.uleb128 0x8
 7808 0428 3A       		.uleb128 0x3a
 7809 0429 0B       		.uleb128 0xb
 7810 042a 3B       		.uleb128 0x3b
 7811 042b 0B       		.uleb128 0xb
 7812 042c 39       		.uleb128 0x39
 7813 042d 0B       		.uleb128 0xb
 7814 042e 27       		.uleb128 0x27
 7815 042f 19       		.uleb128 0x19
 7816 0430 3C       		.uleb128 0x3c
 7817 0431 19       		.uleb128 0x19
 7818 0432 01       		.uleb128 0x1
 7819 0433 13       		.uleb128 0x13
 7820 0434 00       		.byte	0
 7821 0435 00       		.byte	0
 7822 0436 48       		.uleb128 0x48
 7823 0437 2E       		.uleb128 0x2e
 7824 0438 00       		.byte	0
 7825 0439 3F       		.uleb128 0x3f
 7826 043a 19       		.uleb128 0x19
 7827 043b 03       		.uleb128 0x3
 7828 043c 08       		.uleb128 0x8
 7829 043d 3A       		.uleb128 0x3a
 7830 043e 0B       		.uleb128 0xb
 7831 043f 3B       		.uleb128 0x3b
 7832 0440 05       		.uleb128 0x5
 7833 0441 39       		.uleb128 0x39
 7834 0442 0B       		.uleb128 0xb
 7835 0443 27       		.uleb128 0x27
 7836 0444 19       		.uleb128 0x19
 7837 0445 49       		.uleb128 0x49
 7838 0446 13       		.uleb128 0x13
 7839 0447 3C       		.uleb128 0x3c
 7840 0448 19       		.uleb128 0x19
 7841 0449 00       		.byte	0
 7842 044a 00       		.byte	0
GAS LISTING C:\Users\lsw\AppData\Local\Temp\ccSZcLze.s 			page 203


 7843 044b 49       		.uleb128 0x49
 7844 044c 1D       		.uleb128 0x1d
 7845 044d 01       		.byte	0x1
 7846 044e 31       		.uleb128 0x31
 7847 044f 13       		.uleb128 0x13
 7848 0450 52       		.uleb128 0x52
 7849 0451 01       		.uleb128 0x1
 7850 0452 B842     		.uleb128 0x2138
 7851 0454 0B       		.uleb128 0xb
 7852 0455 55       		.uleb128 0x55
 7853 0456 17       		.uleb128 0x17
 7854 0457 58       		.uleb128 0x58
 7855 0458 0B       		.uleb128 0xb
 7856 0459 59       		.uleb128 0x59
 7857 045a 0B       		.uleb128 0xb
 7858 045b 57       		.uleb128 0x57
 7859 045c 0B       		.uleb128 0xb
 7860 045d 01       		.uleb128 0x1
 7861 045e 13       		.uleb128 0x13
 7862 045f 00       		.byte	0
 7863 0460 00       		.byte	0
 7864 0461 4A       		.uleb128 0x4a
 7865 0462 1D       		.uleb128 0x1d
 7866 0463 01       		.byte	0x1
 7867 0464 31       		.uleb128 0x31
 7868 0465 13       		.uleb128 0x13
 7869 0466 52       		.uleb128 0x52
 7870 0467 01       		.uleb128 0x1
 7871 0468 B842     		.uleb128 0x2138
 7872 046a 0B       		.uleb128 0xb
 7873 046b 11       		.uleb128 0x11
 7874 046c 01       		.uleb128 0x1
 7875 046d 12       		.uleb128 0x12
 7876 046e 07       		.uleb128 0x7
 7877 046f 58       		.uleb128 0x58
 7878 0470 0B       		.uleb128 0xb
 7879 0471 59       		.uleb128 0x59
 7880 0472 0B       		.uleb128 0xb
 7881 0473 57       		.uleb128 0x57
 7882 0474 0B       		.uleb128 0xb
 7883 0475 01       		.uleb128 0x1
 7884 0476 13       		.uleb128 0x13
 7885 0477 00       		.byte	0
 7886 0478 00       		.byte	0
 7887 0479 4B       		.uleb128 0x4b
 7888 047a 0B       		.uleb128 0xb
 7889 047b 01       		.byte	0x1
 7890 047c 31       		.uleb128 0x31
 7891 047d 13       		.uleb128 0x13
 7892 047e 11       		.uleb128 0x11
 7893 047f 01       		.uleb128 0x1
 7894 0480 12       		.uleb128 0x12
 7895 0481 07       		.uleb128 0x7
 7896 0482 01       		.uleb128 0x1
 7897 0483 13       		.uleb128 0x13
 7898 0484 00       		.byte	0
 7899 0485 00       		.byte	0
GAS LISTING C:\Users\lsw\AppData\Local\Temp\ccSZcLze.s 			page 204


 7900 0486 4C       		.uleb128 0x4c
 7901 0487 0B       		.uleb128 0xb
 7902 0488 01       		.byte	0x1
 7903 0489 55       		.uleb128 0x55
 7904 048a 17       		.uleb128 0x17
 7905 048b 01       		.uleb128 0x1
 7906 048c 13       		.uleb128 0x13
 7907 048d 00       		.byte	0
 7908 048e 00       		.byte	0
 7909 048f 4D       		.uleb128 0x4d
 7910 0490 1D       		.uleb128 0x1d
 7911 0491 00       		.byte	0
 7912 0492 31       		.uleb128 0x31
 7913 0493 13       		.uleb128 0x13
 7914 0494 52       		.uleb128 0x52
 7915 0495 01       		.uleb128 0x1
 7916 0496 B842     		.uleb128 0x2138
 7917 0498 0B       		.uleb128 0xb
 7918 0499 11       		.uleb128 0x11
 7919 049a 01       		.uleb128 0x1
 7920 049b 12       		.uleb128 0x12
 7921 049c 07       		.uleb128 0x7
 7922 049d 58       		.uleb128 0x58
 7923 049e 0B       		.uleb128 0xb
 7924 049f 59       		.uleb128 0x59
 7925 04a0 0B       		.uleb128 0xb
 7926 04a1 57       		.uleb128 0x57
 7927 04a2 0B       		.uleb128 0xb
 7928 04a3 00       		.byte	0
 7929 04a4 00       		.byte	0
 7930 04a5 4E       		.uleb128 0x4e
 7931 04a6 2E       		.uleb128 0x2e
 7932 04a7 01       		.byte	0x1
 7933 04a8 03       		.uleb128 0x3
 7934 04a9 0E       		.uleb128 0xe
 7935 04aa 3A       		.uleb128 0x3a
 7936 04ab 0B       		.uleb128 0xb
 7937 04ac 3B       		.uleb128 0x3b
 7938 04ad 0B       		.uleb128 0xb
 7939 04ae 39       		.uleb128 0x39
 7940 04af 0B       		.uleb128 0xb
 7941 04b0 27       		.uleb128 0x27
 7942 04b1 19       		.uleb128 0x19
 7943 04b2 49       		.uleb128 0x49
 7944 04b3 13       		.uleb128 0x13
 7945 04b4 11       		.uleb128 0x11
 7946 04b5 01       		.uleb128 0x1
 7947 04b6 12       		.uleb128 0x12
 7948 04b7 07       		.uleb128 0x7
 7949 04b8 40       		.uleb128 0x40
 7950 04b9 18       		.uleb128 0x18
 7951 04ba 7A       		.uleb128 0x7a
 7952 04bb 19       		.uleb128 0x19
 7953 04bc 01       		.uleb128 0x1
 7954 04bd 13       		.uleb128 0x13
 7955 04be 00       		.byte	0
 7956 04bf 00       		.byte	0
GAS LISTING C:\Users\lsw\AppData\Local\Temp\ccSZcLze.s 			page 205


 7957 04c0 4F       		.uleb128 0x4f
 7958 04c1 1D       		.uleb128 0x1d
 7959 04c2 01       		.byte	0x1
 7960 04c3 31       		.uleb128 0x31
 7961 04c4 13       		.uleb128 0x13
 7962 04c5 52       		.uleb128 0x52
 7963 04c6 01       		.uleb128 0x1
 7964 04c7 B842     		.uleb128 0x2138
 7965 04c9 0B       		.uleb128 0xb
 7966 04ca 55       		.uleb128 0x55
 7967 04cb 17       		.uleb128 0x17
 7968 04cc 58       		.uleb128 0x58
 7969 04cd 0B       		.uleb128 0xb
 7970 04ce 59       		.uleb128 0x59
 7971 04cf 0B       		.uleb128 0xb
 7972 04d0 57       		.uleb128 0x57
 7973 04d1 0B       		.uleb128 0xb
 7974 04d2 00       		.byte	0
 7975 04d3 00       		.byte	0
 7976 04d4 50       		.uleb128 0x50
 7977 04d5 2E       		.uleb128 0x2e
 7978 04d6 01       		.byte	0x1
 7979 04d7 03       		.uleb128 0x3
 7980 04d8 08       		.uleb128 0x8
 7981 04d9 3A       		.uleb128 0x3a
 7982 04da 0B       		.uleb128 0xb
 7983 04db 3B       		.uleb128 0x3b
 7984 04dc 0B       		.uleb128 0xb
 7985 04dd 39       		.uleb128 0x39
 7986 04de 0B       		.uleb128 0xb
 7987 04df 27       		.uleb128 0x27
 7988 04e0 19       		.uleb128 0x19
 7989 04e1 49       		.uleb128 0x49
 7990 04e2 13       		.uleb128 0x13
 7991 04e3 11       		.uleb128 0x11
 7992 04e4 01       		.uleb128 0x1
 7993 04e5 12       		.uleb128 0x12
 7994 04e6 07       		.uleb128 0x7
 7995 04e7 40       		.uleb128 0x40
 7996 04e8 18       		.uleb128 0x18
 7997 04e9 7A       		.uleb128 0x7a
 7998 04ea 19       		.uleb128 0x19
 7999 04eb 01       		.uleb128 0x1
 8000 04ec 13       		.uleb128 0x13
 8001 04ed 00       		.byte	0
 8002 04ee 00       		.byte	0
 8003 04ef 51       		.uleb128 0x51
 8004 04f0 2E       		.uleb128 0x2e
 8005 04f1 01       		.byte	0x1
 8006 04f2 03       		.uleb128 0x3
 8007 04f3 08       		.uleb128 0x8
 8008 04f4 3A       		.uleb128 0x3a
 8009 04f5 0B       		.uleb128 0xb
 8010 04f6 3B       		.uleb128 0x3b
 8011 04f7 0B       		.uleb128 0xb
 8012 04f8 39       		.uleb128 0x39
 8013 04f9 0B       		.uleb128 0xb
GAS LISTING C:\Users\lsw\AppData\Local\Temp\ccSZcLze.s 			page 206


 8014 04fa 27       		.uleb128 0x27
 8015 04fb 19       		.uleb128 0x19
 8016 04fc 49       		.uleb128 0x49
 8017 04fd 13       		.uleb128 0x13
 8018 04fe 20       		.uleb128 0x20
 8019 04ff 0B       		.uleb128 0xb
 8020 0500 01       		.uleb128 0x1
 8021 0501 13       		.uleb128 0x13
 8022 0502 00       		.byte	0
 8023 0503 00       		.byte	0
 8024 0504 52       		.uleb128 0x52
 8025 0505 05       		.uleb128 0x5
 8026 0506 00       		.byte	0
 8027 0507 03       		.uleb128 0x3
 8028 0508 08       		.uleb128 0x8
 8029 0509 3A       		.uleb128 0x3a
 8030 050a 0B       		.uleb128 0xb
 8031 050b 3B       		.uleb128 0x3b
 8032 050c 0B       		.uleb128 0xb
 8033 050d 39       		.uleb128 0x39
 8034 050e 0B       		.uleb128 0xb
 8035 050f 49       		.uleb128 0x49
 8036 0510 13       		.uleb128 0x13
 8037 0511 00       		.byte	0
 8038 0512 00       		.byte	0
 8039 0513 53       		.uleb128 0x53
 8040 0514 0B       		.uleb128 0xb
 8041 0515 01       		.byte	0x1
 8042 0516 00       		.byte	0
 8043 0517 00       		.byte	0
 8044 0518 54       		.uleb128 0x54
 8045 0519 2E       		.uleb128 0x2e
 8046 051a 00       		.byte	0
 8047 051b 03       		.uleb128 0x3
 8048 051c 08       		.uleb128 0x8
 8049 051d 3A       		.uleb128 0x3a
 8050 051e 0B       		.uleb128 0xb
 8051 051f 3B       		.uleb128 0x3b
 8052 0520 05       		.uleb128 0x5
 8053 0521 39       		.uleb128 0x39
 8054 0522 0B       		.uleb128 0xb
 8055 0523 27       		.uleb128 0x27
 8056 0524 19       		.uleb128 0x19
 8057 0525 20       		.uleb128 0x20
 8058 0526 0B       		.uleb128 0xb
 8059 0527 00       		.byte	0
 8060 0528 00       		.byte	0
 8061 0529 00       		.byte	0
 8062              		.section	.debug_loclists,"dr"
 8063 0000 62030000 		.long	.Ldebug_loc3-.Ldebug_loc2
 8064              	.Ldebug_loc2:
 8065 0004 0500     		.word	0x5
 8066 0006 08       		.byte	0x8
 8067 0007 00       		.byte	0
 8068 0008 00000000 		.long	0
 8069              	.Ldebug_loc0:
 8070              	.LVUS27:
GAS LISTING C:\Users\lsw\AppData\Local\Temp\ccSZcLze.s 			page 207


 8071 000c 00       		.uleb128 0
 8072 000d 00       		.uleb128 .LVU216
 8073 000e 00       		.uleb128 .LVU216
 8074 000f 00       		.uleb128 .LVU221
 8075 0010 00       		.uleb128 .LVU221
 8076 0011 00       		.uleb128 0
 8077              	.LLST27:
 8078 0012 06       		.byte	0x6
 8079 0013 00000000 		.quad	.LVL81
 8079      00000000 
 8080 001b 04       		.byte	0x4
 8081 001c 00       		.uleb128 .LVL81-.LVL81
 8082 001d 0B       		.uleb128 .LVL82-.LVL81
 8083 001e 01       		.uleb128 0x1
 8084 001f 52       		.byte	0x52
 8085 0020 04       		.byte	0x4
 8086 0021 0B       		.uleb128 .LVL82-.LVL81
 8087 0022 2C       		.uleb128 .LVL86-.LVL81
 8088 0023 01       		.uleb128 0x1
 8089 0024 53       		.byte	0x53
 8090 0025 04       		.byte	0x4
 8091 0026 2C       		.uleb128 .LVL86-.LVL81
 8092 0027 31       		.uleb128 .LFE6958-.LVL81
 8093 0028 04       		.uleb128 0x4
 8094 0029 A3       		.byte	0xa3
 8095 002a 01       		.uleb128 0x1
 8096 002b 52       		.byte	0x52
 8097 002c 9F       		.byte	0x9f
 8098 002d 00       		.byte	0
 8099              	.LVUS19:
 8100 002e 01       		.uleb128 .LVU118
 8101 002f 00       		.uleb128 .LVU136
 8102 0030 00       		.uleb128 .LVU136
 8103 0031 00       		.uleb128 .LVU140
 8104 0032 00       		.uleb128 .LVU140
 8105 0033 00       		.uleb128 .LVU185
 8106 0034 00       		.uleb128 .LVU185
 8107 0035 00       		.uleb128 .LVU186
 8108 0036 00       		.uleb128 .LVU186
 8109 0037 00       		.uleb128 .LVU189
 8110 0038 00       		.uleb128 .LVU189
 8111 0039 00       		.uleb128 .LVU190
 8112 003a 00       		.uleb128 .LVU192
 8113 003b 00       		.uleb128 .LVU195
 8114 003c 00       		.uleb128 .LVU195
 8115 003d 00       		.uleb128 .LVU196
 8116 003e 00       		.uleb128 .LVU197
 8117 003f 00       		.uleb128 .LVU200
 8118              	.LLST19:
 8119 0040 06       		.byte	0x6
 8120 0041 06000000 		.quad	.LVL43
 8120      00000000 
 8121 0049 04       		.byte	0x4
 8122 004a 00       		.uleb128 .LVL43-.LVL43
 8123 004b 6C       		.uleb128 .LVL49-.LVL43
 8124 004c 02       		.uleb128 0x2
 8125 004d 30       		.byte	0x30
GAS LISTING C:\Users\lsw\AppData\Local\Temp\ccSZcLze.s 			page 208


 8126 004e 9F       		.byte	0x9f
 8127 004f 04       		.byte	0x4
 8128 0050 6C       		.uleb128 .LVL49-.LVL43
 8129 0051 7B       		.uleb128 .LVL50-1-.LVL43
 8130 0052 01       		.uleb128 0x1
 8131 0053 50       		.byte	0x50
 8132 0054 04       		.byte	0x4
 8133 0055 7B       		.uleb128 .LVL50-1-.LVL43
 8134 0056 8803     		.uleb128 .LVL68-.LVL43
 8135 0058 01       		.uleb128 0x1
 8136 0059 53       		.byte	0x53
 8137 005a 04       		.byte	0x4
 8138 005b 8803     		.uleb128 .LVL68-.LVL43
 8139 005d 8A03     		.uleb128 .LVL69-.LVL43
 8140 005f 01       		.uleb128 0x1
 8141 0060 50       		.byte	0x50
 8142 0061 04       		.byte	0x4
 8143 0062 8A03     		.uleb128 .LVL69-.LVL43
 8144 0064 A203     		.uleb128 .LVL71-.LVL43
 8145 0066 01       		.uleb128 0x1
 8146 0067 53       		.byte	0x53
 8147 0068 04       		.byte	0x4
 8148 0069 A203     		.uleb128 .LVL71-.LVL43
 8149 006b A603     		.uleb128 .LVL72-1-.LVL43
 8150 006d 01       		.uleb128 0x1
 8151 006e 52       		.byte	0x52
 8152 006f 04       		.byte	0x4
 8153 0070 B103     		.uleb128 .LVL73-.LVL43
 8154 0072 C903     		.uleb128 .LVL75-.LVL43
 8155 0074 01       		.uleb128 0x1
 8156 0075 53       		.byte	0x53
 8157 0076 04       		.byte	0x4
 8158 0077 C903     		.uleb128 .LVL75-.LVL43
 8159 0079 CD03     		.uleb128 .LVL76-1-.LVL43
 8160 007b 01       		.uleb128 0x1
 8161 007c 52       		.byte	0x52
 8162 007d 04       		.byte	0x4
 8163 007e D003     		.uleb128 .LVL77-.LVL43
 8164 0080 E403     		.uleb128 .LVL78-1-.LVL43
 8165 0082 01       		.uleb128 0x1
 8166 0083 50       		.byte	0x50
 8167 0084 00       		.byte	0
 8168              	.LVUS21:
 8169 0085 01       		.uleb128 .LVU123
 8170 0086 00       		.uleb128 .LVU129
 8171              	.LLST21:
 8172 0087 08       		.byte	0x8
 8173 0088 44000000 		.quad	.LVL44
 8173      00000000 
 8174 0090 14       		.uleb128 .LVL45-.LVL44
 8175 0091 0A       		.uleb128 0xa
 8176 0092 03       		.byte	0x3
 8177 0093 00000000 		.quad	log_stdout
 8177      00000000 
 8178 009b 9F       		.byte	0x9f
 8179 009c 00       		.byte	0
 8180              	.LVUS22:
GAS LISTING C:\Users\lsw\AppData\Local\Temp\ccSZcLze.s 			page 209


 8181 009d 02       		.uleb128 .LVU143
 8182 009e 01       		.uleb128 .LVU173
 8183              	.LLST22:
 8184 009f 08       		.byte	0x8
 8185 00a0 8A000000 		.quad	.LVL51
 8185      00000000 
 8186 00a8 C601     		.uleb128 .LVL65-.LVL51
 8187 00aa 0A       		.uleb128 0xa
 8188 00ab 03       		.byte	0x3
 8189 00ac 00000000 		.quad	m_renderer
 8189      00000000 
 8190 00b4 9F       		.byte	0x9f
 8191 00b5 00       		.byte	0
 8192              	.LVUS23:
 8193 00b6 02       		.uleb128 .LVU143
 8194 00b7 01       		.uleb128 .LVU173
 8195              	.LLST23:
 8196 00b8 08       		.byte	0x8
 8197 00b9 8A000000 		.quad	.LVL51
 8197      00000000 
 8198 00c1 C601     		.uleb128 .LVL65-.LVL51
 8199 00c3 0A       		.uleb128 0xa
 8200 00c4 03       		.byte	0x3
 8201 00c5 B2000000 		.quad	.LC7
 8201      00000000 
 8202 00cd 9F       		.byte	0x9f
 8203 00ce 00       		.byte	0
 8204              	.LVUS24:
 8205 00cf 01       		.uleb128 .LVU142
 8206 00d0 01       		.uleb128 .LVU173
 8207              	.LLST24:
 8208 00d1 08       		.byte	0x8
 8209 00d2 8A000000 		.quad	.LVL51
 8209      00000000 
 8210 00da C601     		.uleb128 .LVL65-.LVL51
 8211 00dc 01       		.uleb128 0x1
 8212 00dd 53       		.byte	0x53
 8213 00de 00       		.byte	0
 8214              	.LVUS25:
 8215 00df 00       		.uleb128 .LVU154
 8216 00e0 00       		.uleb128 .LVU157
 8217 00e1 00       		.uleb128 .LVU157
 8218 00e2 01       		.uleb128 .LVU173
 8219              	.LLST25:
 8220 00e3 06       		.byte	0x6
 8221 00e4 EB000000 		.quad	.LVL56
 8221      00000000 
 8222 00ec 04       		.byte	0x4
 8223 00ed 00       		.uleb128 .LVL56-.LVL56
 8224 00ee 0C       		.uleb128 .LVL57-1-.LVL56
 8225 00ef 01       		.uleb128 0x1
 8226 00f0 50       		.byte	0x50
 8227 00f1 04       		.byte	0x4
 8228 00f2 0C       		.uleb128 .LVL57-1-.LVL56
 8229 00f3 65       		.uleb128 .LVL65-.LVL56
 8230 00f4 01       		.uleb128 0x1
 8231 00f5 54       		.byte	0x54
GAS LISTING C:\Users\lsw\AppData\Local\Temp\ccSZcLze.s 			page 210


 8232 00f6 00       		.byte	0
 8233              	.LVUS26:
 8234 00f7 00       		.uleb128 .LVU158
 8235 00f8 01       		.uleb128 .LVU159
 8236 00f9 00       		.uleb128 .LVU160
 8237 00fa 01       		.uleb128 .LVU163
 8238 00fb 01       		.uleb128 .LVU163
 8239 00fc 02       		.uleb128 .LVU164
 8240 00fd 02       		.uleb128 .LVU164
 8241 00fe 00       		.uleb128 .LVU166
 8242 00ff 00       		.uleb128 .LVU166
 8243 0100 01       		.uleb128 .LVU168
 8244 0101 01       		.uleb128 .LVU168
 8245 0102 00       		.uleb128 .LVU170
 8246              	.LLST26:
 8247 0103 06       		.byte	0x6
 8248 0104 00010000 		.quad	.LVL58
 8248      00000000 
 8249 010c 04       		.byte	0x4
 8250 010d 00       		.uleb128 .LVL58-.LVL58
 8251 010e 00       		.uleb128 .LVL58-.LVL58
 8252 010f 02       		.uleb128 0x2
 8253 0110 30       		.byte	0x30
 8254 0111 9F       		.byte	0x9f
 8255 0112 04       		.byte	0x4
 8256 0113 18       		.uleb128 .LVL59-.LVL58
 8257 0114 1B       		.uleb128 .LVL60-.LVL58
 8258 0115 0F       		.uleb128 0xf
 8259 0116 71       		.byte	0x71
 8260 0117 00       		.sleb128 0
 8261 0118 03       		.byte	0x3
 8262 0119 00000000 		.quad	sdl2_frame_buffer
 8262      00000000 
 8263 0121 1C       		.byte	0x1c
 8264 0122 31       		.byte	0x31
 8265 0123 25       		.byte	0x25
 8266 0124 9F       		.byte	0x9f
 8267 0125 04       		.byte	0x4
 8268 0126 1B       		.uleb128 .LVL60-.LVL58
 8269 0127 1B       		.uleb128 .LVL60-.LVL58
 8270 0128 11       		.uleb128 0x11
 8271 0129 71       		.byte	0x71
 8272 012a 00       		.sleb128 0
 8273 012b 03       		.byte	0x3
 8274 012c 00000000 		.quad	sdl2_frame_buffer
 8274      00000000 
 8275 0134 1C       		.byte	0x1c
 8276 0135 31       		.byte	0x31
 8277 0136 25       		.byte	0x25
 8278 0137 23       		.byte	0x23
 8279 0138 01       		.uleb128 0x1
 8280 0139 9F       		.byte	0x9f
 8281 013a 04       		.byte	0x4
 8282 013b 1B       		.uleb128 .LVL60-.LVL58
 8283 013c 1F       		.uleb128 .LVL61-.LVL58
 8284 013d 0F       		.uleb128 0xf
 8285 013e 71       		.byte	0x71
GAS LISTING C:\Users\lsw\AppData\Local\Temp\ccSZcLze.s 			page 211


 8286 013f 00       		.sleb128 0
 8287 0140 03       		.byte	0x3
 8288 0141 FEFFFFFF 		.quad	sdl2_frame_buffer-2
 8288      FFFFFFFF 
 8289 0149 1C       		.byte	0x1c
 8290 014a 31       		.byte	0x31
 8291 014b 25       		.byte	0x25
 8292 014c 9F       		.byte	0x9f
 8293 014d 04       		.byte	0x4
 8294 014e 1F       		.uleb128 .LVL61-.LVL58
 8295 014f 23       		.uleb128 .LVL62-.LVL58
 8296 0150 0F       		.uleb128 0xf
 8297 0151 71       		.byte	0x71
 8298 0152 00       		.sleb128 0
 8299 0153 03       		.byte	0x3
 8300 0154 02000000 		.quad	sdl2_frame_buffer+2
 8300      00000000 
 8301 015c 1C       		.byte	0x1c
 8302 015d 31       		.byte	0x31
 8303 015e 25       		.byte	0x25
 8304 015f 9F       		.byte	0x9f
 8305 0160 04       		.byte	0x4
 8306 0161 23       		.uleb128 .LVL62-.LVL58
 8307 0162 37       		.uleb128 .LVL63-.LVL58
 8308 0163 11       		.uleb128 0x11
 8309 0164 71       		.byte	0x71
 8310 0165 00       		.sleb128 0
 8311 0166 03       		.byte	0x3
 8312 0167 02000000 		.quad	sdl2_frame_buffer+2
 8312      00000000 
 8313 016f 1C       		.byte	0x1c
 8314 0170 31       		.byte	0x31
 8315 0171 25       		.byte	0x25
 8316 0172 23       		.byte	0x23
 8317 0173 01       		.uleb128 0x1
 8318 0174 9F       		.byte	0x9f
 8319 0175 00       		.byte	0
 8320              	.LVUS6:
 8321 0176 00       		.uleb128 0
 8322 0177 00       		.uleb128 .LVU32
 8323 0178 00       		.uleb128 .LVU32
 8324 0179 00       		.uleb128 0
 8325              	.LLST6:
 8326 017a 06       		.byte	0x6
 8327 017b 00000000 		.quad	.LVL14
 8327      00000000 
 8328 0183 04       		.byte	0x4
 8329 0184 00       		.uleb128 .LVL14-.LVL14
 8330 0185 08       		.uleb128 .LVL15-1-.LVL14
 8331 0186 01       		.uleb128 0x1
 8332 0187 52       		.byte	0x52
 8333 0188 04       		.byte	0x4
 8334 0189 08       		.uleb128 .LVL15-1-.LVL14
 8335 018a 20       		.uleb128 .LFE6954-.LVL14
 8336 018b 04       		.uleb128 0x4
 8337 018c A3       		.byte	0xa3
 8338 018d 01       		.uleb128 0x1
GAS LISTING C:\Users\lsw\AppData\Local\Temp\ccSZcLze.s 			page 212


 8339 018e 52       		.byte	0x52
 8340 018f 9F       		.byte	0x9f
 8341 0190 00       		.byte	0
 8342              	.LVUS10:
 8343 0191 00       		.uleb128 0
 8344 0192 00       		.uleb128 .LVU63
 8345 0193 00       		.uleb128 .LVU63
 8346 0194 00       		.uleb128 0
 8347              	.LLST10:
 8348 0195 06       		.byte	0x6
 8349 0196 00000000 		.quad	.LVL25
 8349      00000000 
 8350 019e 04       		.byte	0x4
 8351 019f 00       		.uleb128 .LVL25-.LVL25
 8352 01a0 25       		.uleb128 .LVL28-.LVL25
 8353 01a1 01       		.uleb128 0x1
 8354 01a2 52       		.byte	0x52
 8355 01a3 04       		.byte	0x4
 8356 01a4 25       		.uleb128 .LVL28-.LVL25
 8357 01a5 BE01     		.uleb128 .LFE6953-.LVL25
 8358 01a7 04       		.uleb128 0x4
 8359 01a8 A3       		.byte	0xa3
 8360 01a9 01       		.uleb128 0x1
 8361 01aa 52       		.byte	0x52
 8362 01ab 9F       		.byte	0x9f
 8363 01ac 00       		.byte	0
 8364              	.LVUS11:
 8365 01ad 00       		.uleb128 0
 8366 01ae 00       		.uleb128 .LVU61
 8367 01af 00       		.uleb128 .LVU61
 8368 01b0 00       		.uleb128 .LVU84
 8369 01b1 00       		.uleb128 .LVU84
 8370 01b2 00       		.uleb128 .LVU85
 8371 01b3 02       		.uleb128 .LVU87
 8372 01b4 00       		.uleb128 .LVU109
 8373              	.LLST11:
 8374 01b5 06       		.byte	0x6
 8375 01b6 00000000 		.quad	.LVL25
 8375      00000000 
 8376 01be 04       		.byte	0x4
 8377 01bf 00       		.uleb128 .LVL25-.LVL25
 8378 01c0 1E       		.uleb128 .LVL27-.LVL25
 8379 01c1 01       		.uleb128 0x1
 8380 01c2 51       		.byte	0x51
 8381 01c3 04       		.byte	0x4
 8382 01c4 1E       		.uleb128 .LVL27-.LVL25
 8383 01c5 66       		.uleb128 .LVL35-.LVL25
 8384 01c6 01       		.uleb128 0x1
 8385 01c7 53       		.byte	0x53
 8386 01c8 04       		.byte	0x4
 8387 01c9 66       		.uleb128 .LVL35-.LVL25
 8388 01ca 6A       		.uleb128 .LVL36-1-.LVL25
 8389 01cb 01       		.uleb128 0x1
 8390 01cc 51       		.byte	0x51
 8391 01cd 04       		.byte	0x4
 8392 01ce 6B       		.uleb128 .LVL36-.LVL25
 8393 01cf B801     		.uleb128 .LVL39-.LVL25
GAS LISTING C:\Users\lsw\AppData\Local\Temp\ccSZcLze.s 			page 213


 8394 01d1 01       		.uleb128 0x1
 8395 01d2 53       		.byte	0x53
 8396 01d3 00       		.byte	0
 8397              	.LVUS12:
 8398 01d4 00       		.uleb128 .LVU56
 8399 01d5 00       		.uleb128 .LVU80
 8400              	.LLST12:
 8401 01d6 08       		.byte	0x8
 8402 01d7 0E000000 		.quad	.LVL26
 8402      00000000 
 8403 01df 39       		.uleb128 .LVL32-.LVL26
 8404 01e0 01       		.uleb128 0x1
 8405 01e1 58       		.byte	0x58
 8406 01e2 00       		.byte	0
 8407              	.LVUS13:
 8408 01e3 00       		.uleb128 .LVU61
 8409 01e4 00       		.uleb128 .LVU80
 8410              	.LLST13:
 8411 01e5 08       		.byte	0x8
 8412 01e6 1E000000 		.quad	.LVL27
 8412      00000000 
 8413 01ee 29       		.uleb128 .LVL32-.LVL27
 8414 01ef 01       		.uleb128 0x1
 8415 01f0 51       		.byte	0x51
 8416 01f1 00       		.byte	0
 8417              	.LVUS14:
 8418 01f2 00       		.uleb128 .LVU65
 8419 01f3 00       		.uleb128 .LVU80
 8420              	.LLST14:
 8421 01f4 08       		.byte	0x8
 8422 01f5 2B000000 		.quad	.LVL29
 8422      00000000 
 8423 01fd 1C       		.uleb128 .LVL32-.LVL29
 8424 01fe 01       		.uleb128 0x1
 8425 01ff 56       		.byte	0x56
 8426 0200 00       		.byte	0
 8427              	.LVUS15:
 8428 0201 01       		.uleb128 .LVU66
 8429 0202 00       		.uleb128 .LVU71
 8430 0203 00       		.uleb128 .LVU71
 8431 0204 00       		.uleb128 .LVU111
 8432              	.LLST15:
 8433 0205 06       		.byte	0x6
 8434 0206 2B000000 		.quad	.LVL29
 8434      00000000 
 8435 020e 04       		.byte	0x4
 8436 020f 00       		.uleb128 .LVL29-.LVL29
 8437 0210 0C       		.uleb128 .LVL30-.LVL29
 8438 0211 08       		.uleb128 0x8
 8439 0212 7C       		.byte	0x7c
 8440 0213 00       		.sleb128 0
 8441 0214 71       		.byte	0x71
 8442 0215 00       		.sleb128 0
 8443 0216 1C       		.byte	0x1c
 8444 0217 23       		.byte	0x23
 8445 0218 01       		.uleb128 0x1
 8446 0219 9F       		.byte	0x9f
GAS LISTING C:\Users\lsw\AppData\Local\Temp\ccSZcLze.s 			page 214


 8447 021a 04       		.byte	0x4
 8448 021b 0C       		.uleb128 .LVL30-.LVL29
 8449 021c 9201     		.uleb128 .LVL41-.LVL29
 8450 021e 03       		.uleb128 0x3
 8451 021f 7C       		.byte	0x7c
 8452 0220 01       		.sleb128 1
 8453 0221 9F       		.byte	0x9f
 8454 0222 00       		.byte	0
 8455              	.LVUS16:
 8456 0223 02       		.uleb128 .LVU67
 8457 0224 00       		.uleb128 .LVU74
 8458 0225 00       		.uleb128 .LVU74
 8459 0226 00       		.uleb128 .LVU83
 8460 0227 00       		.uleb128 .LVU83
 8461 0228 00       		.uleb128 .LVU85
 8462 0229 00       		.uleb128 .LVU85
 8463 022a 01       		.uleb128 .LVU86
 8464 022b 01       		.uleb128 .LVU86
 8465 022c 00       		.uleb128 .LVU110
 8466              	.LLST16:
 8467 022d 06       		.byte	0x6
 8468 022e 2B000000 		.quad	.LVL29
 8468      00000000 
 8469 0236 04       		.byte	0x4
 8470 0237 00       		.uleb128 .LVL29-.LVL29
 8471 0238 12       		.uleb128 .LVL31-.LVL29
 8472 0239 0A       		.uleb128 0xa
 8473 023a 03       		.byte	0x3
 8474 023b 00000000 		.quad	sdl2_frame_buffer
 8474      00000000 
 8475 0243 9F       		.byte	0x9f
 8476 0244 04       		.byte	0x4
 8477 0245 12       		.uleb128 .LVL31-.LVL29
 8478 0246 38       		.uleb128 .LVL34-.LVL29
 8479 0247 01       		.uleb128 0x1
 8480 0248 54       		.byte	0x54
 8481 0249 04       		.byte	0x4
 8482 024a 38       		.uleb128 .LVL34-.LVL29
 8483 024b 3F       		.uleb128 .LVL36-1-.LVL29
 8484 024c 01       		.uleb128 0x1
 8485 024d 52       		.byte	0x52
 8486 024e 04       		.byte	0x4
 8487 024f 3F       		.uleb128 .LVL36-1-.LVL29
 8488 0250 40       		.uleb128 .LVL36-.LVL29
 8489 0251 04       		.uleb128 0x4
 8490 0252 74       		.byte	0x74
 8491 0253 A07C     		.sleb128 -480
 8492 0255 9F       		.byte	0x9f
 8493 0256 04       		.byte	0x4
 8494 0257 40       		.uleb128 .LVL36-.LVL29
 8495 0258 8E01     		.uleb128 .LVL40-.LVL29
 8496 025a 01       		.uleb128 0x1
 8497 025b 54       		.byte	0x54
 8498 025c 00       		.byte	0
 8499              	.LVUS18:
 8500 025d 02       		.uleb128 .LVU76
 8501 025e 00       		.uleb128 .LVU80
GAS LISTING C:\Users\lsw\AppData\Local\Temp\ccSZcLze.s 			page 215


 8502 025f 00       		.uleb128 .LVU80
 8503 0260 00       		.uleb128 .LVU82
 8504 0261 00       		.uleb128 .LVU82
 8505 0262 03       		.uleb128 .LVU88
 8506 0263 03       		.uleb128 .LVU88
 8507 0264 00       		.uleb128 .LVU89
 8508              	.LLST18:
 8509 0265 06       		.byte	0x6
 8510 0266 3D000000 		.quad	.LVL31
 8510      00000000 
 8511 026e 04       		.byte	0x4
 8512 026f 00       		.uleb128 .LVL31-.LVL31
 8513 0270 0A       		.uleb128 .LVL32-.LVL31
 8514 0271 02       		.uleb128 0x2
 8515 0272 30       		.byte	0x30
 8516 0273 9F       		.byte	0x9f
 8517 0274 04       		.byte	0x4
 8518 0275 0A       		.uleb128 .LVL32-.LVL31
 8519 0276 1F       		.uleb128 .LVL33-.LVL31
 8520 0277 01       		.uleb128 0x1
 8521 0278 55       		.byte	0x55
 8522 0279 04       		.byte	0x4
 8523 027a 1F       		.uleb128 .LVL33-.LVL31
 8524 027b 2E       		.uleb128 .LVL36-.LVL31
 8525 027c 03       		.uleb128 0x3
 8526 027d 75       		.byte	0x75
 8527 027e 7F       		.sleb128 -1
 8528 027f 9F       		.byte	0x9f
 8529 0280 04       		.byte	0x4
 8530 0281 2E       		.uleb128 .LVL36-.LVL31
 8531 0282 33       		.uleb128 .LVL37-.LVL31
 8532 0283 01       		.uleb128 0x1
 8533 0284 55       		.byte	0x55
 8534 0285 00       		.byte	0
 8535              	.LVUS0:
 8536 0286 00       		.uleb128 0
 8537 0287 00       		.uleb128 .LVU8
 8538 0288 00       		.uleb128 .LVU8
 8539 0289 00       		.uleb128 0
 8540              	.LLST0:
 8541 028a 06       		.byte	0x6
 8542 028b 00000000 		.quad	.LVL0
 8542      00000000 
 8543 0293 04       		.byte	0x4
 8544 0294 00       		.uleb128 .LVL0-.LVL0
 8545 0295 09       		.uleb128 .LVL2-.LVL0
 8546 0296 01       		.uleb128 0x1
 8547 0297 52       		.byte	0x52
 8548 0298 04       		.byte	0x4
 8549 0299 09       		.uleb128 .LVL2-.LVL0
 8550 029a 13       		.uleb128 .LFE6951-.LVL0
 8551 029b 01       		.uleb128 0x1
 8552 029c 50       		.byte	0x50
 8553 029d 00       		.byte	0
 8554              	.LVUS1:
 8555 029e 00       		.uleb128 0
 8556 029f 00       		.uleb128 .LVU9
GAS LISTING C:\Users\lsw\AppData\Local\Temp\ccSZcLze.s 			page 216


 8557 02a0 00       		.uleb128 .LVU9
 8558 02a1 00       		.uleb128 0
 8559              	.LLST1:
 8560 02a2 06       		.byte	0x6
 8561 02a3 00000000 		.quad	.LVL0
 8561      00000000 
 8562 02ab 04       		.byte	0x4
 8563 02ac 00       		.uleb128 .LVL0-.LVL0
 8564 02ad 0C       		.uleb128 .LVL3-.LVL0
 8565 02ae 01       		.uleb128 0x1
 8566 02af 51       		.byte	0x51
 8567 02b0 04       		.byte	0x4
 8568 02b1 0C       		.uleb128 .LVL3-.LVL0
 8569 02b2 13       		.uleb128 .LFE6951-.LVL0
 8570 02b3 04       		.uleb128 0x4
 8571 02b4 A3       		.byte	0xa3
 8572 02b5 01       		.uleb128 0x1
 8573 02b6 51       		.byte	0x51
 8574 02b7 9F       		.byte	0x9f
 8575 02b8 00       		.byte	0
 8576              	.LVUS3:
 8577 02b9 04       		.uleb128 .LVU4
 8578 02ba 00       		.uleb128 .LVU10
 8579              	.LLST3:
 8580 02bb 08       		.byte	0x8
 8581 02bc 00000000 		.quad	.LVL1
 8581      00000000 
 8582 02c4 12       		.uleb128 .LVL4-.LVL1
 8583 02c5 02       		.uleb128 0x2
 8584 02c6 31       		.byte	0x31
 8585 02c7 9F       		.byte	0x9f
 8586 02c8 00       		.byte	0
 8587              	.LVUS7:
 8588 02c9 00       		.uleb128 0
 8589 02ca 00       		.uleb128 .LVU40
 8590 02cb 00       		.uleb128 .LVU40
 8591 02cc 00       		.uleb128 .LVU51
 8592 02cd 00       		.uleb128 .LVU51
 8593 02ce 00       		.uleb128 0
 8594              	.LLST7:
 8595 02cf 06       		.byte	0x6
 8596 02d0 00000000 		.quad	.LVL18
 8596      00000000 
 8597 02d8 04       		.byte	0x4
 8598 02d9 00       		.uleb128 .LVL18-.LVL18
 8599 02da 10       		.uleb128 .LVL19-.LVL18
 8600 02db 01       		.uleb128 0x1
 8601 02dc 52       		.byte	0x52
 8602 02dd 04       		.byte	0x4
 8603 02de 10       		.uleb128 .LVL19-.LVL18
 8604 02df 50       		.uleb128 .LVL24-.LVL18
 8605 02e0 01       		.uleb128 0x1
 8606 02e1 54       		.byte	0x54
 8607 02e2 04       		.byte	0x4
 8608 02e3 50       		.uleb128 .LVL24-.LVL18
 8609 02e4 51       		.uleb128 .LFE6950-.LVL18
 8610 02e5 01       		.uleb128 0x1
GAS LISTING C:\Users\lsw\AppData\Local\Temp\ccSZcLze.s 			page 217


 8611 02e6 50       		.byte	0x50
 8612 02e7 00       		.byte	0
 8613              	.LVUS8:
 8614 02e8 00       		.uleb128 0
 8615 02e9 00       		.uleb128 .LVU41
 8616 02ea 00       		.uleb128 .LVU41
 8617 02eb 00       		.uleb128 .LVU50
 8618 02ec 00       		.uleb128 .LVU50
 8619 02ed 00       		.uleb128 0
 8620              	.LLST8:
 8621 02ee 06       		.byte	0x6
 8622 02ef 00000000 		.quad	.LVL18
 8622      00000000 
 8623 02f7 04       		.byte	0x4
 8624 02f8 00       		.uleb128 .LVL18-.LVL18
 8625 02f9 14       		.uleb128 .LVL20-1-.LVL18
 8626 02fa 01       		.uleb128 0x1
 8627 02fb 51       		.byte	0x51
 8628 02fc 04       		.byte	0x4
 8629 02fd 14       		.uleb128 .LVL20-1-.LVL18
 8630 02fe 4F       		.uleb128 .LVL23-.LVL18
 8631 02ff 01       		.uleb128 0x1
 8632 0300 53       		.byte	0x53
 8633 0301 04       		.byte	0x4
 8634 0302 4F       		.uleb128 .LVL23-.LVL18
 8635 0303 51       		.uleb128 .LFE6950-.LVL18
 8636 0304 04       		.uleb128 0x4
 8637 0305 A3       		.byte	0xa3
 8638 0306 01       		.uleb128 0x1
 8639 0307 51       		.byte	0x51
 8640 0308 9F       		.byte	0x9f
 8641 0309 00       		.byte	0
 8642              	.LVUS9:
 8643 030a 01       		.uleb128 .LVU42
 8644 030b 00       		.uleb128 .LVU50
 8645 030c 00       		.uleb128 .LVU50
 8646 030d 00       		.uleb128 0
 8647              	.LLST9:
 8648 030e 06       		.byte	0x6
 8649 030f 15000000 		.quad	.LVL20
 8649      00000000 
 8650 0317 04       		.byte	0x4
 8651 0318 00       		.uleb128 .LVL20-.LVL20
 8652 0319 3A       		.uleb128 .LVL23-.LVL20
 8653 031a 01       		.uleb128 0x1
 8654 031b 53       		.byte	0x53
 8655 031c 04       		.byte	0x4
 8656 031d 3A       		.uleb128 .LVL23-.LVL20
 8657 031e 3C       		.uleb128 .LFE6950-.LVL20
 8658 031f 04       		.uleb128 0x4
 8659 0320 A3       		.byte	0xa3
 8660 0321 01       		.uleb128 0x1
 8661 0322 51       		.byte	0x51
 8662 0323 9F       		.byte	0x9f
 8663 0324 00       		.byte	0
 8664              	.LVUS4:
 8665 0325 00       		.uleb128 0
GAS LISTING C:\Users\lsw\AppData\Local\Temp\ccSZcLze.s 			page 218


 8666 0326 00       		.uleb128 .LVU19
 8667 0327 00       		.uleb128 .LVU19
 8668 0328 00       		.uleb128 .LVU27
 8669 0329 00       		.uleb128 .LVU27
 8670 032a 00       		.uleb128 0
 8671              	.LLST4:
 8672 032b 06       		.byte	0x6
 8673 032c 00000000 		.quad	.LVL5
 8673      00000000 
 8674 0334 04       		.byte	0x4
 8675 0335 00       		.uleb128 .LVL5-.LVL5
 8676 0336 26       		.uleb128 .LVL6-1-.LVL5
 8677 0337 01       		.uleb128 0x1
 8678 0338 52       		.byte	0x52
 8679 0339 04       		.byte	0x4
 8680 033a 26       		.uleb128 .LVL6-1-.LVL5
 8681 033b 63       		.uleb128 .LVL12-.LVL5
 8682 033c 01       		.uleb128 0x1
 8683 033d 54       		.byte	0x54
 8684 033e 04       		.byte	0x4
 8685 033f 63       		.uleb128 .LVL12-.LVL5
 8686 0340 68       		.uleb128 .LFE6949-.LVL5
 8687 0341 04       		.uleb128 0x4
 8688 0342 A3       		.byte	0xa3
 8689 0343 01       		.uleb128 0x1
 8690 0344 52       		.byte	0x52
 8691 0345 9F       		.byte	0x9f
 8692 0346 00       		.byte	0
 8693              	.LVUS5:
 8694 0347 00       		.uleb128 .LVU21
 8695 0348 00       		.uleb128 .LVU22
 8696 0349 00       		.uleb128 .LVU22
 8697 034a 00       		.uleb128 .LVU26
 8698 034b 00       		.uleb128 .LVU26
 8699 034c 00       		.uleb128 .LVU28
 8700              	.LLST5:
 8701 034d 06       		.byte	0x6
 8702 034e 39000000 		.quad	.LVL7
 8702      00000000 
 8703 0356 04       		.byte	0x4
 8704 0357 00       		.uleb128 .LVL7-.LVL7
 8705 0358 07       		.uleb128 .LVL8-1-.LVL7
 8706 0359 01       		.uleb128 0x1
 8707 035a 50       		.byte	0x50
 8708 035b 04       		.byte	0x4
 8709 035c 07       		.uleb128 .LVL8-1-.LVL7
 8710 035d 29       		.uleb128 .LVL11-.LVL7
 8711 035e 01       		.uleb128 0x1
 8712 035f 53       		.byte	0x53
 8713 0360 04       		.byte	0x4
 8714 0361 29       		.uleb128 .LVL11-.LVL7
 8715 0362 2E       		.uleb128 .LVL13-1-.LVL7
 8716 0363 01       		.uleb128 0x1
 8717 0364 52       		.byte	0x52
 8718 0365 00       		.byte	0
 8719              	.Ldebug_loc3:
 8720              		.section	.debug_aranges,"dr"
GAS LISTING C:\Users\lsw\AppData\Local\Temp\ccSZcLze.s 			page 219


 8721 0000 BC000000 		.long	0xbc
 8722 0004 0200     		.word	0x2
 8723 0006 00000000 		.secrel32	.Ldebug_info0
 8724 000a 08       		.byte	0x8
 8725 000b 00       		.byte	0
 8726 000c 0000     		.word	0
 8727 000e 0000     		.word	0
 8728 0010 00000000 		.quad	.LFB6951
 8728      00000000 
 8729 0018 13000000 		.quad	.LFE6951-.LFB6951
 8729      00000000 
 8730 0020 00000000 		.quad	.LFB6949
 8730      00000000 
 8731 0028 68000000 		.quad	.LFE6949-.LFB6949
 8731      00000000 
 8732 0030 00000000 		.quad	.LFB6954
 8732      00000000 
 8733 0038 20000000 		.quad	.LFE6954-.LFB6954
 8733      00000000 
 8734 0040 00000000 		.quad	.LFB6950
 8734      00000000 
 8735 0048 51000000 		.quad	.LFE6950-.LFB6950
 8735      00000000 
 8736 0050 00000000 		.quad	.LFB6953
 8736      00000000 
 8737 0058 BE000000 		.quad	.LFE6953-.LFB6953
 8737      00000000 
 8738 0060 00000000 		.quad	.LFB6952
 8738      00000000 
 8739 0068 0C000000 		.quad	.LFE6952-.LFB6952
 8739      00000000 
 8740 0070 00000000 		.quad	.LFB6955
 8740      00000000 
 8741 0078 ED010000 		.quad	.LFE6955-.LFB6955
 8741      00000000 
 8742 0080 00000000 		.quad	.LFB6956
 8742      00000000 
 8743 0088 05000000 		.quad	.LFE6956-.LFB6956
 8743      00000000 
 8744 0090 00000000 		.quad	.LFB6957
 8744      00000000 
 8745 0098 06000000 		.quad	.LFE6957-.LFB6957
 8745      00000000 
 8746 00a0 00000000 		.quad	.LFB6958
 8746      00000000 
 8747 00a8 31000000 		.quad	.LFE6958-.LFB6958
 8747      00000000 
 8748 00b0 00000000 		.quad	0
 8748      00000000 
 8749 00b8 00000000 		.quad	0
 8749      00000000 
 8750              		.section	.debug_rnglists,"dr"
 8751              	.Ldebug_ranges0:
 8752 0000 A2000000 		.long	.Ldebug_ranges3-.Ldebug_ranges2
 8753              	.Ldebug_ranges2:
 8754 0004 0500     		.word	0x5
 8755 0006 08       		.byte	0x8
GAS LISTING C:\Users\lsw\AppData\Local\Temp\ccSZcLze.s 			page 220


 8756 0007 00       		.byte	0
 8757 0008 00000000 		.long	0
 8758              	.LLRL2:
 8759 000c 05       		.byte	0x5
 8760 000d 00000000 		.quad	.LBB6
 8760      00000000 
 8761 0015 04       		.byte	0x4
 8762 0016 00       		.uleb128 .LBB6-.LBB6
 8763 0017 00       		.uleb128 .LBE6-.LBB6
 8764 0018 04       		.byte	0x4
 8765 0019 02       		.uleb128 .LBB9-.LBB6
 8766 001a 12       		.uleb128 .LBE9-.LBB6
 8767 001b 00       		.byte	0
 8768              	.LLRL17:
 8769 001c 05       		.byte	0x5
 8770 001d 34000000 		.quad	.LBB13
 8770      00000000 
 8771 0025 04       		.byte	0x4
 8772 0026 00       		.uleb128 .LBB13-.LBB13
 8773 0027 03       		.uleb128 .LBE13-.LBB13
 8774 0028 04       		.byte	0x4
 8775 0029 09       		.uleb128 .LBB14-.LBB13
 8776 002a 3C       		.uleb128 .LBE14-.LBB13
 8777 002b 00       		.byte	0
 8778              	.LLRL20:
 8779 002c 05       		.byte	0x5
 8780 002d 28000000 		.quad	.LBB25
 8780      00000000 
 8781 0035 04       		.byte	0x4
 8782 0036 00       		.uleb128 .LBB25-.LBB25
 8783 0037 07       		.uleb128 .LBE25-.LBB25
 8784 0038 04       		.byte	0x4
 8785 0039 1C       		.uleb128 .LBB29-.LBB25
 8786 003a 23       		.uleb128 .LBE29-.LBB25
 8787 003b 04       		.byte	0x4
 8788 003c 2D       		.uleb128 .LBB30-.LBB25
 8789 003d 30       		.uleb128 .LBE30-.LBB25
 8790 003e 00       		.byte	0
 8791              	.LLRL28:
 8792 003f 07       		.byte	0x7
 8793 0040 00000000 		.quad	.LFB6951
 8793      00000000 
 8794 0048 13       		.uleb128 .LFE6951-.LFB6951
 8795 0049 07       		.byte	0x7
 8796 004a 00000000 		.quad	.LFB6949
 8796      00000000 
 8797 0052 68       		.uleb128 .LFE6949-.LFB6949
 8798 0053 07       		.byte	0x7
 8799 0054 00000000 		.quad	.LFB6954
 8799      00000000 
 8800 005c 20       		.uleb128 .LFE6954-.LFB6954
 8801 005d 07       		.byte	0x7
 8802 005e 00000000 		.quad	.LFB6950
 8802      00000000 
 8803 0066 51       		.uleb128 .LFE6950-.LFB6950
 8804 0067 07       		.byte	0x7
 8805 0068 00000000 		.quad	.LFB6953
GAS LISTING C:\Users\lsw\AppData\Local\Temp\ccSZcLze.s 			page 221


 8805      00000000 
 8806 0070 BE01     		.uleb128 .LFE6953-.LFB6953
 8807 0072 07       		.byte	0x7
 8808 0073 00000000 		.quad	.LFB6952
 8808      00000000 
 8809 007b 0C       		.uleb128 .LFE6952-.LFB6952
 8810 007c 07       		.byte	0x7
 8811 007d 00000000 		.quad	.LFB6955
 8811      00000000 
 8812 0085 ED03     		.uleb128 .LFE6955-.LFB6955
 8813 0087 07       		.byte	0x7
 8814 0088 00000000 		.quad	.LFB6956
 8814      00000000 
 8815 0090 05       		.uleb128 .LFE6956-.LFB6956
 8816 0091 07       		.byte	0x7
 8817 0092 00000000 		.quad	.LFB6957
 8817      00000000 
 8818 009a 06       		.uleb128 .LFE6957-.LFB6957
 8819 009b 07       		.byte	0x7
 8820 009c 00000000 		.quad	.LFB6958
 8820      00000000 
 8821 00a4 31       		.uleb128 .LFE6958-.LFB6958
 8822 00a5 00       		.byte	0
 8823              	.Ldebug_ranges3:
 8824              		.section	.debug_line,"dr"
 8825              	.Ldebug_line0:
 8826 0000 A5040000 		.section	.debug_str,"dr"
 8826      05000800 
 8826      AD000000 
 8826      010101FB 
 8826      0E0D0001 
 8827              	.LASF41:
 8828 0000 53444C5F 		.ascii "SDL_ControllerDeviceEvent\0"
 8828      436F6E74 
 8828      726F6C6C 
 8828      65724465 
 8828      76696365 
 8829              	.LASF12:
 8830 001a 53444C5F 		.ascii "SDL_Surface\0"
 8830      53757266 
 8830      61636500 
 8831              	.LASF35:
 8832 0026 53444C5F 		.ascii "SDL_JoyBallEvent\0"
 8832      4A6F7942 
 8832      616C6C45 
 8832      76656E74 
 8832      00
 8833              	.LASF63:
 8834 0037 6D5F7265 		.ascii "m_renderer\0"
 8834      6E646572 
 8834      657200
 8835              	.LASF42:
 8836 0042 53444C5F 		.ascii "SDL_ControllerTouchpadEvent\0"
 8836      436F6E74 
 8836      726F6C6C 
 8836      6572546F 
 8836      75636870 
GAS LISTING C:\Users\lsw\AppData\Local\Temp\ccSZcLze.s 			page 222


 8837              	.LASF53:
 8838 005e 53444C5F 		.ascii "SDL_QuitEvent\0"
 8838      51756974 
 8838      4576656E 
 8838      7400
 8839              	.LASF50:
 8840 006c 53444C5F 		.ascii "SDL_DollarGestureEvent\0"
 8840      446F6C6C 
 8840      61724765 
 8840      73747572 
 8840      65457665 
 8841              	.LASF44:
 8842 0083 53444C5F 		.ascii "SDL_ControllerSensorEvent\0"
 8842      436F6E74 
 8842      726F6C6C 
 8842      65725365 
 8842      6E736F72 
 8843              	.LASF32:
 8844 009d 53444C5F 		.ascii "SDL_MouseWheelEvent\0"
 8844      4D6F7573 
 8844      65576865 
 8844      656C4576 
 8844      656E7400 
 8845              	.LASF47:
 8846 00b1 746F7563 		.ascii "touchId\0"
 8846      68496400 
 8847              	.LASF8:
 8848 00b9 72656663 		.ascii "refcount\0"
 8848      6F756E74 
 8848      00
 8849              	.LASF64:
 8850 00c2 73646C32 		.ascii "sdl2_dev\0"
 8850      5F646576 
 8850      00
 8851              	.LASF43:
 8852 00cb 70726573 		.ascii "pressure\0"
 8852      73757265 
 8852      00
 8853              	.LASF33:
 8854 00d4 53444C5F 		.ascii "SDL_JoyAxisEvent\0"
 8854      4A6F7941 
 8854      78697345 
 8854      76656E74 
 8854      00
 8855              	.LASF49:
 8856 00e5 6E756D46 		.ascii "numFingers\0"
 8856      696E6765 
 8856      727300
 8857              	.LASF30:
 8858 00f0 53444C5F 		.ascii "SDL_MouseButtonEvent\0"
 8858      4D6F7573 
 8858      65427574 
 8858      746F6E45 
 8858      76656E74 
 8859              	.LASF36:
 8860 0105 53444C5F 		.ascii "SDL_JoyHatEvent\0"
 8860      4A6F7948 
GAS LISTING C:\Users\lsw\AppData\Local\Temp\ccSZcLze.s 			page 223


 8860      61744576 
 8860      656E7400 
 8861              	.LASF55:
 8862 0115 53444C5F 		.ascii "SDL_SysWMmsg\0"
 8862      53797357 
 8862      4D6D7367 
 8862      00
 8863              	.LASF18:
 8864 0122 70616464 		.ascii "padding1\0"
 8864      696E6731 
 8864      00
 8865              	.LASF19:
 8866 012b 70616464 		.ascii "padding2\0"
 8866      696E6732 
 8866      00
 8867              	.LASF9:
 8868 0134 53444C5F 		.ascii "SDL_PixelFormat\0"
 8868      50697865 
 8868      6C466F72 
 8868      6D617400 
 8869              	.LASF34:
 8870 0144 70616464 		.ascii "padding4\0"
 8870      696E6734 
 8870      00
 8871              	.LASF14:
 8872 014d 53444C5F 		.ascii "SDL_Keysym\0"
 8872      4B657973 
 8872      796D00
 8873              	.LASF62:
 8874 0158 616E696D 		.ascii "anim_systick\0"
 8874      5F737973 
 8874      7469636B 
 8874      00
 8875              	.LASF31:
 8876 0165 62757474 		.ascii "button\0"
 8876      6F6E00
 8877              	.LASF56:
 8878 016c 53444C5F 		.ascii "SDL_SysWMEvent\0"
 8878      53797357 
 8878      4D457665 
 8878      6E7400
 8879              	.LASF20:
 8880 017b 70616464 		.ascii "padding3\0"
 8880      696E6733 
 8880      00
 8881              	.LASF38:
 8882 0184 53444C5F 		.ascii "SDL_JoyDeviceEvent\0"
 8882      4A6F7944 
 8882      65766963 
 8882      65457665 
 8882      6E7400
 8883              	.LASF17:
 8884 0197 53444C5F 		.ascii "SDL_DisplayEvent\0"
 8884      44697370 
 8884      6C617945 
 8884      76656E74 
 8884      00
GAS LISTING C:\Users\lsw\AppData\Local\Temp\ccSZcLze.s 			page 224


 8885              	.LASF24:
 8886 01a8 73746174 		.ascii "state\0"
 8886      6500
 8887              	.LASF51:
 8888 01ae 53444C5F 		.ascii "SDL_DropEvent\0"
 8888      44726F70 
 8888      4576656E 
 8888      7400
 8889              	.LASF46:
 8890 01bc 53444C5F 		.ascii "SDL_TouchFingerEvent\0"
 8890      546F7563 
 8890      6846696E 
 8890      67657245 
 8890      76656E74 
 8891              	.LASF52:
 8892 01d1 53444C5F 		.ascii "SDL_SensorEvent\0"
 8892      53656E73 
 8892      6F724576 
 8892      656E7400 
 8893              	.LASF23:
 8894 01e1 53444C5F 		.ascii "SDL_KeyboardEvent\0"
 8894      4B657962 
 8894      6F617264 
 8894      4576656E 
 8894      7400
 8895              	.LASF16:
 8896 01f3 74696D65 		.ascii "timestamp\0"
 8896      7374616D 
 8896      7000
 8897              	.LASF7:
 8898 01fd 53444C5F 		.ascii "SDL_Palette\0"
 8898      50616C65 
 8898      74746500 
 8899              	.LASF48:
 8900 0209 53444C5F 		.ascii "SDL_MultiGestureEvent\0"
 8900      4D756C74 
 8900      69476573 
 8900      74757265 
 8900      4576656E 
 8901              	.LASF4:
 8902 021f 74797065 		.ascii "type\0"
 8902      00
 8903              	.LASF28:
 8904 0224 53444C5F 		.ascii "SDL_MouseMotionEvent\0"
 8904      4D6F7573 
 8904      654D6F74 
 8904      696F6E45 
 8904      76656E74 
 8905              	.LASF13:
 8906 0239 53444C5F 		.ascii "SDL_Window\0"
 8906      57696E64 
 8906      6F7700
 8907              	.LASF45:
 8908 0244 53444C5F 		.ascii "SDL_AudioDeviceEvent\0"
 8908      41756469 
 8908      6F446576 
 8908      69636545 
GAS LISTING C:\Users\lsw\AppData\Local\Temp\ccSZcLze.s 			page 225


 8908      76656E74 
 8909              	.LASF59:
 8910 0259 53444C5F 		.ascii "SDL_Texture\0"
 8910      54657874 
 8910      75726500 
 8911              	.LASF27:
 8912 0265 53444C5F 		.ascii "SDL_TextInputEvent\0"
 8912      54657874 
 8912      496E7075 
 8912      74457665 
 8912      6E7400
 8913              	.LASF58:
 8914 0278 53444C5F 		.ascii "SDL_Renderer\0"
 8914      52656E64 
 8914      65726572 
 8914      00
 8915              	.LASF60:
 8916 0285 73676C5F 		.ascii "sgl_system\0"
 8916      73797374 
 8916      656D00
 8917              	.LASF10:
 8918 0290 70616464 		.ascii "padding\0"
 8918      696E6700 
 8919              	.LASF2:
 8920 0298 62756666 		.ascii "buffer\0"
 8920      657200
 8921              	.LASF37:
 8922 029f 53444C5F 		.ascii "SDL_JoyButtonEvent\0"
 8922      4A6F7942 
 8922      7574746F 
 8922      6E457665 
 8922      6E7400
 8923              	.LASF25:
 8924 02b2 53444C5F 		.ascii "SDL_TextEditingEvent\0"
 8924      54657874 
 8924      45646974 
 8924      696E6745 
 8924      76656E74 
 8925              	.LASF65:
 8926 02c7 696E7465 		.ascii "interval\0"
 8926      7276616C 
 8926      00
 8927              	.LASF22:
 8928 02d0 77696E64 		.ascii "windowID\0"
 8928      6F774944 
 8928      00
 8929              	.LASF61:
 8930 02d9 6D5F7769 		.ascii "m_window\0"
 8930      6E646F77 
 8930      00
 8931              	.LASF40:
 8932 02e2 53444C5F 		.ascii "SDL_ControllerButtonEvent\0"
 8932      436F6E74 
 8932      726F6C6C 
 8932      65724275 
 8932      74746F6E 
 8933              	.LASF11:
GAS LISTING C:\Users\lsw\AppData\Local\Temp\ccSZcLze.s 			page 226


 8934 02fc 53444C5F 		.ascii "SDL_Rect\0"
 8934      52656374 
 8934      00
 8935              	.LASF5:
 8936 0305 53444C5F 		.ascii "SDL_RWops\0"
 8936      52576F70 
 8936      7300
 8937              	.LASF26:
 8938 030f 53444C5F 		.ascii "SDL_TextEditingExtEvent\0"
 8938      54657874 
 8938      45646974 
 8938      696E6745 
 8938      78744576 
 8939              	.LASF6:
 8940 0327 53444C5F 		.ascii "SDL_Color\0"
 8940      436F6C6F 
 8940      7200
 8941              	.LASF3:
 8942 0331 64617461 		.ascii "data1\0"
 8942      3100
 8943              	.LASF29:
 8944 0337 77686963 		.ascii "which\0"
 8944      6800
 8945              	.LASF15:
 8946 033d 53444C5F 		.ascii "SDL_CommonEvent\0"
 8946      436F6D6D 
 8946      6F6E4576 
 8946      656E7400 
 8947              	.LASF54:
 8948 034d 53444C5F 		.ascii "SDL_UserEvent\0"
 8948      55736572 
 8948      4576656E 
 8948      7400
 8949              	.LASF57:
 8950 035b 53444C5F 		.ascii "SDL_Event\0"
 8950      4576656E 
 8950      7400
 8951              	.LASF21:
 8952 0365 53444C5F 		.ascii "SDL_WindowEvent\0"
 8952      57696E64 
 8952      6F774576 
 8952      656E7400 
 8953              	.LASF39:
 8954 0375 53444C5F 		.ascii "SDL_ControllerAxisEvent\0"
 8954      436F6E74 
 8954      726F6C6C 
 8954      65724178 
 8954      69734576 
 8955              		.section	.debug_line_str,"dr"
 8956              	.LASF0:
 8957 0000 73676C5F 		.ascii "sgl_port_sdl2.c\0"
 8957      706F7274 
 8957      5F73646C 
 8957      322E6300 
 8958              	.LASF1:
 8959 0010 433A5C55 		.ascii "C:\\Users\\lsw\\Desktop\\sgl-lite\\demo\0"
 8959      73657273 
GAS LISTING C:\Users\lsw\AppData\Local\Temp\ccSZcLze.s 			page 227


 8959      5C6C7377 
 8959      5C446573 
 8959      6B746F70 
 8960              		.ident	"GCC: (x86_64-posix-seh-rev0, Built by MinGW-Builds project) 13.2.0"
 8988 0033 433A2F55 		.section	.rdata$.refptr.sgl_system, "dr"
 8988      73657273 
 8988      2F6C7377 
 8988      2F446573 
 8988      6B746F70 
 8989              		.globl	.refptr.sgl_system
 8990              		.linkonce	discard
 8991              	.refptr.sgl_system:
 8992 0000 00000000 		.quad	sgl_system
 8992      00000000 
 8992      00000000 
 8992      00000000 
GAS LISTING C:\Users\lsw\AppData\Local\Temp\ccSZcLze.s 			page 228


DEFINED SYMBOLS
                            *ABS*:0000000000000000 sgl_port_sdl2.c
C:\Users\lsw\AppData\Local\Temp\ccSZcLze.s:10     .text$anim_systick:0000000000000000 anim_systick
C:\Users\lsw\AppData\Local\Temp\ccSZcLze.s:8991   .rdata$.refptr.sgl_system:0000000000000000 .refptr.sgl_system
C:\Users\lsw\AppData\Local\Temp\ccSZcLze.s:56     .text$flush_window:0000000000000000 flush_window
C:\Users\lsw\AppData\Local\Temp\ccSZcLze.s:860    .data$sdl2_frame_buffer:0000000000000000 sdl2_frame_buffer
C:\Users\lsw\AppData\Local\Temp\ccSZcLze.s:133    .text$log_stdout:0000000000000000 log_stdout
C:\Users\lsw\AppData\Local\Temp\ccSZcLze.s:170    .text$system_tick:0000000000000000 system_tick
C:\Users\lsw\AppData\Local\Temp\ccSZcLze.s:239    .text$panel_flush_area:0000000000000000 panel_flush_area
C:\Users\lsw\AppData\Local\Temp\ccSZcLze.s:864    .data$m_renderer:0000000000000000 m_renderer
C:\Users\lsw\AppData\Local\Temp\ccSZcLze.s:425    .text$test_flush:0000000000000000 test_flush
C:\Users\lsw\AppData\Local\Temp\ccSZcLze.s:465    .text$sgl_port_sdl2_init:0000000000000000 sgl_port_sdl2_init
C:\Users\lsw\AppData\Local\Temp\ccSZcLze.s:851    .data$panel_buffer1:0000000000000000 panel_buffer1
C:\Users\lsw\AppData\Local\Temp\ccSZcLze.s:855    .data$panel_buffer0:0000000000000000 panel_buffer0
C:\Users\lsw\AppData\Local\Temp\ccSZcLze.s:763    .text$sgl_port_sdl2_get_frame_count:0000000000000000 sgl_port_sdl2_get_frame_count
C:\Users\lsw\AppData\Local\Temp\ccSZcLze.s:783    .text$sgl_port_sdl2_increase_frame_count:0000000000000000 sgl_port_sdl2_increase_frame_count
C:\Users\lsw\AppData\Local\Temp\ccSZcLze.s:803    .text$sgl_port_sdl2_deinit:0000000000000000 sgl_port_sdl2_deinit

UNDEFINED SYMBOLS
__imp___acrt_iob_func
SDL_CreateTexture
SDL_UpdateTexture
SDL_RenderCopy
SDL_RenderPresent
SDL_DestroyTexture
printf
fflush
sgl_mm_get_monitor
memcpy
sgl_fbdev_register
sgl_init
sgl_malloc
SDL_Init
SDL_CreateWindowAndRenderer
SDL_SetWindowTitle
SDL_RWFromFile
SDL_LoadBMP_RW
SDL_SetWindowIcon
SDL_FreeSurface
SDL_SetRenderDrawColor
SDL_RenderClear
SDL_AddTimer
sgl_log
sgl_free
SDL_RemoveTimer
SDL_DestroyWindow
SDL_DestroyRenderer
sgl_system
