GAS LISTING C:\Users\lsw\AppData\Local\Temp\ccKoRtKs.s 			page 1


   1              		.file	"sgl_mm.c"
   2              		.text
   3              	.Ltext0:
   4              		.cfi_sections	.debug_frame
   5              		.file 0 "C:/Users/lsw/Desktop/sgl-lite/demo" "../source/sgl_mm.c"
   6              		.section	.text$sgl_mm_init,"x"
   7              		.p2align 4
   8              		.globl	sgl_mm_init
  10              		.seh_proc	sgl_mm_init
  11              	sgl_mm_init:
  12              	.LVL0:
  13              	.LFB81:
  14              		.file 1 "../source/sgl_mm.c"
   1:../source/sgl_mm.c **** /* source: sgl_mm.c
   2:../source/sgl_mm.c ****  * Copyright (c) 2026-2028, Lishanwen
   3:../source/sgl_mm.c ****  *
   4:../source/sgl_mm.c ****  * Licensed under the Apache License, Version 2.0 (the "License");
   5:../source/sgl_mm.c ****  * you may not use this file except in compliance with the License.
   6:../source/sgl_mm.c ****  * You may obtain a copy of the License at
   7:../source/sgl_mm.c ****  *
   8:../source/sgl_mm.c ****  *     http://www.apache.org/licenses/LICENSE-2.0
   9:../source/sgl_mm.c ****  *
  10:../source/sgl_mm.c ****  * Unless required by applicable law or agreed to in writing, software
  11:../source/sgl_mm.c ****  * distributed under the License is distributed on an "AS IS" BASIS,
  12:../source/sgl_mm.c ****  * WITHOUT WARRANTIES OR CONDITIONS OF ANY KIND, either express or implied.
  13:../source/sgl_mm.c ****  * See the License for the specific language governing permissions and
  14:../source/sgl_mm.c ****  * limitations under the License.
  15:../source/sgl_mm.c ****  */
  16:../source/sgl_mm.c **** 
  17:../source/sgl_mm.c **** #include "sgl_mm.h"
  18:../source/sgl_mm.c **** #include <stdint.h>
  19:../source/sgl_mm.c **** #include <stdlib.h>
  20:../source/sgl_mm.c **** #include <string.h>
  21:../source/sgl_mm.c **** 
  22:../source/sgl_mm.c **** static sgl_mm_monitor_t mem = {
  23:../source/sgl_mm.c ****     .total_size = 0,
  24:../source/sgl_mm.c ****     .free_size = 0,
  25:../source/sgl_mm.c ****     .used_size = 0,
  26:../source/sgl_mm.c **** };
  27:../source/sgl_mm.c **** 
  28:../source/sgl_mm.c **** /**
  29:../source/sgl_mm.c ****  * @brief  initialize memory pool
  30:../source/sgl_mm.c ****  * @param  mem_start  start address of memory pool
  31:../source/sgl_mm.c ****  * @param  len  length of memory pool
  32:../source/sgl_mm.c ****  */
  33:../source/sgl_mm.c **** void sgl_mm_init(void *mem_start, size_t len)
  34:../source/sgl_mm.c **** {
  15              		.loc 1 34 1 view -0
  16              		.cfi_startproc
  17              		.loc 1 34 1 is_stmt 0 view .LVU1
  18              		.seh_endprologue
  35:../source/sgl_mm.c ****     SGL_UNUSED(mem_start);
  19              		.loc 1 35 5 is_stmt 1 view .LVU2
  36:../source/sgl_mm.c ****     mem.total_size += len;
  20              		.loc 1 36 5 view .LVU3
  21              		.loc 1 36 20 is_stmt 0 view .LVU4
  22 0000 48011500 		addq	%rdx, mem(%rip)
GAS LISTING C:\Users\lsw\AppData\Local\Temp\ccKoRtKs.s 			page 2


  22      000000
  37:../source/sgl_mm.c **** }
  23              		.loc 1 37 1 view .LVU5
  24 0007 C3       		ret
  25              		.cfi_endproc
  26              	.LFE81:
  27              		.seh_endproc
  28 0008 90909090 		.section	.text$sgl_mm_add_pool,"x"
  28      90909090 
  29              		.p2align 4
  30              		.globl	sgl_mm_add_pool
  32              		.seh_proc	sgl_mm_add_pool
  33              	sgl_mm_add_pool:
  34              	.LFB88:
  35              		.cfi_startproc
  38:../source/sgl_mm.c **** 
  39:../source/sgl_mm.c **** 
  40:../source/sgl_mm.c **** /**
  41:../source/sgl_mm.c ****  * @brief  add memory pool
  42:../source/sgl_mm.c ****  * @param  mem_start  start address of memory pool
  43:../source/sgl_mm.c ****  * @param  len  length of memory pool
  44:../source/sgl_mm.c ****  */
  45:../source/sgl_mm.c **** void sgl_mm_add_pool(void *mem_start, size_t len)
  36              		.loc 1 45 6 is_stmt 1 view -0
  37              		.seh_endprologue
  38 0000 48011500 		addq	%rdx, mem(%rip)
  38      000000
  39 0007 C3       		ret
  40              		.cfi_endproc
  41              	.LFE88:
  42              		.seh_endproc
  43 0008 90909090 		.section	.text$sgl_malloc,"x"
  43      90909090 
  44              		.p2align 4
  45              		.globl	sgl_malloc
  47              		.seh_proc	sgl_malloc
  48              	sgl_malloc:
  49              	.LVL1:
  50              	.LFB83:
  46:../source/sgl_mm.c **** {
  47:../source/sgl_mm.c ****     SGL_UNUSED(mem_start);
  48:../source/sgl_mm.c ****     mem.total_size += len;
  49:../source/sgl_mm.c **** }
  50:../source/sgl_mm.c **** 
  51:../source/sgl_mm.c **** 
  52:../source/sgl_mm.c **** /**
  53:../source/sgl_mm.c ****  * @brief  memory alloc, the function is unsafe, you should ensure that 
  54:../source/sgl_mm.c ****  *         the requested size is smaller than the free size of memory
  55:../source/sgl_mm.c ****  * 
  56:../source/sgl_mm.c ****  * @param  size   request size of memory
  57:../source/sgl_mm.c ****  * 
  58:../source/sgl_mm.c ****  * @return point to request memory address
  59:../source/sgl_mm.c **** */
  60:../source/sgl_mm.c **** void* sgl_malloc(size_t size)
  61:../source/sgl_mm.c **** {
  51              		.loc 1 61 1 view -0
  52              		.cfi_startproc
GAS LISTING C:\Users\lsw\AppData\Local\Temp\ccKoRtKs.s 			page 3


  53              		.loc 1 61 1 is_stmt 0 view .LVU8
  54 0000 56       		pushq	%rsi
  55              		.seh_pushreg	%rsi
  56              		.cfi_def_cfa_offset 16
  57              		.cfi_offset 4, -16
  58 0001 53       		pushq	%rbx
  59              		.seh_pushreg	%rbx
  60              		.cfi_def_cfa_offset 24
  61              		.cfi_offset 3, -24
  62 0002 4883EC28 		subq	$40, %rsp
  63              		.seh_stackalloc	40
  64              		.cfi_def_cfa_offset 64
  65              		.seh_endprologue
  62:../source/sgl_mm.c ****     void *p = malloc(size);
  66              		.loc 1 62 5 is_stmt 1 view .LVU9
  61:../source/sgl_mm.c ****     void *p = malloc(size);
  67              		.loc 1 61 1 is_stmt 0 view .LVU10
  68 0006 4889CE   		movq	%rcx, %rsi
  69              		.loc 1 62 15 view .LVU11
  70 0009 E8000000 		call	malloc
  70      00
  71              	.LVL2:
  63:../source/sgl_mm.c ****     memset(p, 0, size);
  72              		.loc 1 63 5 view .LVU12
  73 000e 4989F0   		movq	%rsi, %r8
  74 0011 31D2     		xorl	%edx, %edx
  62:../source/sgl_mm.c ****     void *p = malloc(size);
  75              		.loc 1 62 15 view .LVU13
  76 0013 4889C3   		movq	%rax, %rbx
  77              	.LVL3:
  78              		.loc 1 63 5 is_stmt 1 view .LVU14
  79 0016 4889C1   		movq	%rax, %rcx
  80 0019 E8000000 		call	memset
  80      00
  81              	.LVL4:
  64:../source/sgl_mm.c ****     return p;
  82              		.loc 1 64 5 view .LVU15
  65:../source/sgl_mm.c **** }
  83              		.loc 1 65 1 is_stmt 0 view .LVU16
  84 001e 4889D8   		movq	%rbx, %rax
  85 0021 4883C428 		addq	$40, %rsp
  86              		.cfi_def_cfa_offset 24
  87 0025 5B       		popq	%rbx
  88              		.cfi_restore 3
  89              		.cfi_def_cfa_offset 16
  90              	.LVL5:
  91              		.loc 1 65 1 view .LVU17
  92 0026 5E       		popq	%rsi
  93              		.cfi_restore 4
  94              		.cfi_def_cfa_offset 8
  95              	.LVL6:
  96              		.loc 1 65 1 view .LVU18
  97 0027 C3       		ret
  98              		.cfi_endproc
  99              	.LFE83:
 100              		.seh_endproc
 101 0028 90909090 		.section	.text$sgl_realloc,"x"
GAS LISTING C:\Users\lsw\AppData\Local\Temp\ccKoRtKs.s 			page 4


 101      90909090 
 102              		.p2align 4
 103              		.globl	sgl_realloc
 105              		.seh_proc	sgl_realloc
 106              	sgl_realloc:
 107              	.LVL7:
 108              	.LFB84:
  66:../source/sgl_mm.c **** 
  67:../source/sgl_mm.c **** 
  68:../source/sgl_mm.c **** /**
  69:../source/sgl_mm.c ****  * @brief  memory realloc, the function is unsafe, you should ensure that 
  70:../source/sgl_mm.c ****  *         the requested size is smaller than the free size of memory
  71:../source/sgl_mm.c ****  * @param  p      the pointer of request size of memory
  72:../source/sgl_mm.c ****  * @param  size   request size of memory
  73:../source/sgl_mm.c ****  */
  74:../source/sgl_mm.c **** void* sgl_realloc(void *p, size_t size)
  75:../source/sgl_mm.c **** {
 109              		.loc 1 75 1 is_stmt 1 view -0
 110              		.cfi_startproc
 111              		.loc 1 75 1 is_stmt 0 view .LVU20
 112              		.seh_endprologue
  76:../source/sgl_mm.c ****     return realloc(p, size);
 113              		.loc 1 76 5 is_stmt 1 view .LVU21
  77:../source/sgl_mm.c **** }
 114              		.loc 1 77 1 is_stmt 0 view .LVU22
  76:../source/sgl_mm.c ****     return realloc(p, size);
 115              		.loc 1 76 12 view .LVU23
 116 0000 E9000000 		jmp	realloc
 116      00
 117              	.LVL8:
  76:../source/sgl_mm.c ****     return realloc(p, size);
 118              		.loc 1 76 12 view .LVU24
 119              		.cfi_endproc
 120              	.LFE84:
 121              		.seh_endproc
 122 0005 90909090 		.section	.text$sgl_free,"x"
 122      90909090 
 122      909090
 123              		.p2align 4
 124              		.globl	sgl_free
 126              		.seh_proc	sgl_free
 127              	sgl_free:
 128              	.LVL9:
 129              	.LFB85:
  78:../source/sgl_mm.c **** 
  79:../source/sgl_mm.c **** 
  80:../source/sgl_mm.c **** /**
  81:../source/sgl_mm.c ****  * @brief  memory free
  82:../source/sgl_mm.c ****  * 
  83:../source/sgl_mm.c ****  * @param  p  the pointer of request size of memory
  84:../source/sgl_mm.c ****  * 
  85:../source/sgl_mm.c ****  * @return none
  86:../source/sgl_mm.c **** */
  87:../source/sgl_mm.c **** void sgl_free(void *p)
  88:../source/sgl_mm.c **** {
 130              		.loc 1 88 1 is_stmt 1 view -0
 131              		.cfi_startproc
GAS LISTING C:\Users\lsw\AppData\Local\Temp\ccKoRtKs.s 			page 5


 132              		.loc 1 88 1 is_stmt 0 view .LVU26
 133              		.seh_endprologue
  89:../source/sgl_mm.c ****     //mem.used_size -= ;
  90:../source/sgl_mm.c ****     free(p);
 134              		.loc 1 90 5 is_stmt 1 view .LVU27
  91:../source/sgl_mm.c **** }
 135              		.loc 1 91 1 is_stmt 0 view .LVU28
  90:../source/sgl_mm.c **** }
 136              		.loc 1 90 5 view .LVU29
 137 0000 E9000000 		jmp	free
 137      00
 138              	.LVL10:
  90:../source/sgl_mm.c **** }
 139              		.loc 1 90 5 view .LVU30
 140              		.cfi_endproc
 141              	.LFE85:
 142              		.seh_endproc
 143 0005 90909090 		.section	.text$sgl_mm_get_monitor,"x"
 143      90909090 
 143      909090
 144              		.p2align 4
 145              		.globl	sgl_mm_get_monitor
 147              		.seh_proc	sgl_mm_get_monitor
 148              	sgl_mm_get_monitor:
 149              	.LVL11:
 150              	.LFB86:
  92:../source/sgl_mm.c **** 
  93:../source/sgl_mm.c **** 
  94:../source/sgl_mm.c **** sgl_mm_monitor_t sgl_mm_get_monitor(void)
  95:../source/sgl_mm.c **** {
 151              		.loc 1 95 1 is_stmt 1 view -0
 152              		.cfi_startproc
 153              		.loc 1 95 1 is_stmt 0 view .LVU32
 154              		.seh_endprologue
  96:../source/sgl_mm.c ****     int integer = (mem.used_size * 100) / mem.total_size;
 155              		.loc 1 96 5 is_stmt 1 view .LVU33
 156              		.loc 1 96 23 is_stmt 0 view .LVU34
 157 0000 4C8B1510 		movq	16+mem(%rip), %r10
 157      000000
 158              		.loc 1 96 41 view .LVU35
 159 0007 31D2     		xorl	%edx, %edx
 160              		.loc 1 96 46 view .LVU36
 161 0009 4C8B0D00 		movq	mem(%rip), %r9
 161      000000
 162              		.loc 1 96 34 view .LVU37
 163 0010 496BC264 		imulq	$100, %r10, %rax
  97:../source/sgl_mm.c ****     int decimal = (mem.used_size * 10000) / mem.total_size - (integer * 100);
  98:../source/sgl_mm.c ****     mem.used_rate = integer << 8 | decimal;
  99:../source/sgl_mm.c ****     mem.free_size = mem.total_size - mem.used_size;
 100:../source/sgl_mm.c **** 
 101:../source/sgl_mm.c ****     return mem;
 164              		.loc 1 101 12 view .LVU38
 165 0014 4C8909   		movq	%r9, (%rcx)
 166 0017 4C895110 		movq	%r10, 16(%rcx)
  96:../source/sgl_mm.c ****     int integer = (mem.used_size * 100) / mem.total_size;
 167              		.loc 1 96 41 view .LVU39
 168 001b 49F7F1   		divq	%r9
GAS LISTING C:\Users\lsw\AppData\Local\Temp\ccKoRtKs.s 			page 6


 169 001e 4989C0   		movq	%rax, %r8
 170              	.LVL12:
  97:../source/sgl_mm.c ****     int decimal = (mem.used_size * 10000) / mem.total_size - (integer * 100);
 171              		.loc 1 97 5 is_stmt 1 view .LVU40
  98:../source/sgl_mm.c ****     mem.free_size = mem.total_size - mem.used_size;
 172              		.loc 1 98 5 view .LVU41
  97:../source/sgl_mm.c ****     int decimal = (mem.used_size * 10000) / mem.total_size - (integer * 100);
 173              		.loc 1 97 43 is_stmt 0 view .LVU42
 174 0021 31D2     		xorl	%edx, %edx
  97:../source/sgl_mm.c ****     int decimal = (mem.used_size * 10000) / mem.total_size - (integer * 100);
 175              		.loc 1 97 34 view .LVU43
 176 0023 4969C210 		imulq	$10000, %r10, %rax
 176      270000
  97:../source/sgl_mm.c ****     int decimal = (mem.used_size * 10000) / mem.total_size - (integer * 100);
 177              		.loc 1 97 43 view .LVU44
 178 002a 49F7F1   		divq	%r9
  97:../source/sgl_mm.c ****     int decimal = (mem.used_size * 10000) / mem.total_size - (integer * 100);
 179              		.loc 1 97 71 view .LVU45
 180 002d 416BD064 		imull	$100, %r8d, %edx
  98:../source/sgl_mm.c ****     mem.free_size = mem.total_size - mem.used_size;
 181              		.loc 1 98 29 view .LVU46
 182 0031 41C1E008 		sall	$8, %r8d
 183              	.LVL13:
  97:../source/sgl_mm.c ****     int decimal = (mem.used_size * 10000) / mem.total_size - (integer * 100);
 184              		.loc 1 97 60 view .LVU47
 185 0035 29D0     		subl	%edx, %eax
  99:../source/sgl_mm.c **** 
 186              		.loc 1 99 36 view .LVU48
 187 0037 4C89CA   		movq	%r9, %rdx
  98:../source/sgl_mm.c ****     mem.free_size = mem.total_size - mem.used_size;
 188              		.loc 1 98 34 view .LVU49
 189 003a 4409C0   		orl	%r8d, %eax
  99:../source/sgl_mm.c **** 
 190              		.loc 1 99 36 view .LVU50
 191 003d 4C29D2   		subq	%r10, %rdx
  98:../source/sgl_mm.c ****     mem.free_size = mem.total_size - mem.used_size;
 192              		.loc 1 98 34 view .LVU51
 193 0040 4898     		cltq
  99:../source/sgl_mm.c **** 
 194              		.loc 1 99 36 view .LVU52
 195 0042 48891508 		movq	%rdx, 8+mem(%rip)
 195      000000
  98:../source/sgl_mm.c ****     mem.free_size = mem.total_size - mem.used_size;
 196              		.loc 1 98 34 view .LVU53
 197 0049 48890518 		movq	%rax, 24+mem(%rip)
 197      000000
  99:../source/sgl_mm.c **** 
 198              		.loc 1 99 5 is_stmt 1 view .LVU54
 199              		.loc 1 101 5 view .LVU55
 200              		.loc 1 101 12 is_stmt 0 view .LVU56
 201 0050 48894118 		movq	%rax, 24(%rcx)
 102:../source/sgl_mm.c **** }
 202              		.loc 1 102 1 view .LVU57
 203 0054 4889C8   		movq	%rcx, %rax
 101:../source/sgl_mm.c **** }
 204              		.loc 1 101 12 view .LVU58
 205 0057 48895108 		movq	%rdx, 8(%rcx)
GAS LISTING C:\Users\lsw\AppData\Local\Temp\ccKoRtKs.s 			page 7


 206              		.loc 1 102 1 view .LVU59
 207 005b C3       		ret
 208              		.cfi_endproc
 209              	.LFE86:
 210              		.seh_endproc
 211 005c 90909090 		.section	.data$mem,"w"
 212              		.align 32
 213              	mem:
 214 0000 00000000 		.space 32
 214      00000000 
 214      00000000 
 214      00000000 
 214      00000000 
 215              		.text
 216              	.Letext0:
 217              		.file 2 "../source/sgl_mm.h"
 218              		.file 3 "C:/mingw64/x86_64-w64-mingw32/include/corecrt.h"
 219              		.file 4 "C:/mingw64/x86_64-w64-mingw32/include/stdlib.h"
 220              		.file 5 "C:/mingw64/x86_64-w64-mingw32/include/string.h"