GAS LISTING C:\Users\lsw\AppData\Local\Temp\ccdBfdv6.s 			page 1


   1              		.file	"sgl_core.c"
   2              		.text
   3              	.Ltext0:
   4              		.cfi_sections	.debug_frame
   5              		.file 0 "C:/Users/lsw/Desktop/sgl-lite/demo" "../source/sgl_core.c"
   6              		.section	.text$sgl_page_construct_cb,"x"
   7              		.p2align 4
   9              		.seh_proc	sgl_page_construct_cb
  10              	sgl_page_construct_cb:
  11              	.LVL0:
  12              	.LFB111:
  13              		.file 1 "../source/sgl_core.c"
   1:../source/sgl_core.c **** /* source: sgl_core.c
   2:../source/sgl_core.c ****  * Copyright (c) 2026-2028, Lishanwen
   3:../source/sgl_core.c ****  *
   4:../source/sgl_core.c ****  * Licensed under the Apache License, Version 2.0 (the "License");
   5:../source/sgl_core.c ****  * you may not use this file except in compliance with the License.
   6:../source/sgl_core.c ****  * You may obtain a copy of the License at
   7:../source/sgl_core.c ****  *
   8:../source/sgl_core.c ****  *     http://www.apache.org/licenses/LICENSE-2.0
   9:../source/sgl_core.c ****  *
  10:../source/sgl_core.c ****  * Unless required by applicable law or agreed to in writing, software
  11:../source/sgl_core.c ****  * distributed under the License is distributed on an "AS IS" BASIS,
  12:../source/sgl_core.c ****  * WITHOUT WARRANTIES OR CONDITIONS OF ANY KIND, either express or implied.
  13:../source/sgl_core.c ****  * See the License for the specific language governing permissions and
  14:../source/sgl_core.c ****  * limitations under the License.
  15:../source/sgl_core.c ****  */
  16:../source/sgl_core.c **** 
  17:../source/sgl_core.c **** #include "sgl_core.h"
  18:../source/sgl_core.c **** #include "sgl_mm.h"
  19:../source/sgl_core.c **** #include "sgl_draw.h"
  20:../source/sgl_core.c **** 
  21:../source/sgl_core.c **** /* current sgl system variable */
  22:../source/sgl_core.c **** sgl_system_t sgl_system;
  23:../source/sgl_core.c **** 
  24:../source/sgl_core.c **** 
  25:../source/sgl_core.c **** #if CONFIG_SGL_DEBUG
  26:../source/sgl_core.c **** /**
  27:../source/sgl_core.c ****  * @brief sgl log printing function, used to print debugging information. Note that this function 
  28:../source/sgl_core.c ****  *        should only be called in debugging mode, otherwise it may affect system real-time 
  29:../source/sgl_core.c ****  *        performance due to long execution time
  30:../source/sgl_core.c ****  * @param level:  log level, such as, INFO, USER...
  31:../source/sgl_core.c ****  * @param format:  log content
  32:../source/sgl_core.c ****  * @return none
  33:../source/sgl_core.c **** */
  34:../source/sgl_core.c **** void sgl_log(const char *level, const char * format, ...)
  35:../source/sgl_core.c **** {
  36:../source/sgl_core.c ****     char buffer[200];
  37:../source/sgl_core.c ****     int  tail = 0;
  38:../source/sgl_core.c ****     int  pref_size = strlen(level);
  39:../source/sgl_core.c **** 
  40:../source/sgl_core.c ****     strcpy(buffer, level);
  41:../source/sgl_core.c **** 
  42:../source/sgl_core.c ****     va_list va;
  43:../source/sgl_core.c ****     va_start(va, format);
  44:../source/sgl_core.c ****     sgl_vsnprintf(buffer + pref_size, sizeof(buffer), format, va);
  45:../source/sgl_core.c ****     va_end(va);
GAS LISTING C:\Users\lsw\AppData\Local\Temp\ccdBfdv6.s 			page 2


  46:../source/sgl_core.c **** 
  47:../source/sgl_core.c ****     tail = strlen(buffer);
  48:../source/sgl_core.c ****     memcpy(&buffer[tail], &"\r\n"SGL_LOG_NONE, strlen("\r\n"SGL_LOG_NONE));
  49:../source/sgl_core.c ****     buffer[tail + strlen("\r\n"SGL_LOG_NONE)] = 0;
  50:../source/sgl_core.c **** 
  51:../source/sgl_core.c ****     sgl_log_stdout(buffer);
  52:../source/sgl_core.c **** }
  53:../source/sgl_core.c **** 
  54:../source/sgl_core.c **** 
  55:../source/sgl_core.c **** /**
  56:../source/sgl_core.c ****  * @brief sgl assert handler, used to handle assertions
  57:../source/sgl_core.c ****  * @param file:  file name
  58:../source/sgl_core.c ****  * @param func:  function name
  59:../source/sgl_core.c ****  * @param line:  line number
  60:../source/sgl_core.c ****  * @return none
  61:../source/sgl_core.c **** */
  62:../source/sgl_core.c **** void sgl_assert_handler(const char *file, const char *func, int line)
  63:../source/sgl_core.c **** {
  64:../source/sgl_core.c ****     sgl_log(SGL_ASSERT_FLAG, "file: %s, function: %s, line: %d", file, func, line);
  65:../source/sgl_core.c ****     while (1) {
  66:../source/sgl_core.c **** 
  67:../source/sgl_core.c ****     };
  68:../source/sgl_core.c **** }
  69:../source/sgl_core.c **** #endif // !CONFIG_SGL_DEBUG
  70:../source/sgl_core.c **** 
  71:../source/sgl_core.c **** 
  72:../source/sgl_core.c **** /**
  73:../source/sgl_core.c ****  * @brief sine table
  74:../source/sgl_core.c ****  * @note the table is used to calculate the sine of an angle
  75:../source/sgl_core.c ****  */
  76:../source/sgl_core.c **** static const int16_t sin0_90_table[] = {
  77:../source/sgl_core.c ****     0,     572,   1144,  1715,  2286,  2856,  3425,  3993,  4560,  5126,  5690,  6252,  6813,  7371
  78:../source/sgl_core.c ****     9032,  9580,  10126, 10668, 11207, 11743, 12275, 12803, 13328, 13848, 14364, 14876, 15383, 1588
  79:../source/sgl_core.c ****     17364, 17846, 18323, 18794, 19260, 19720, 20173, 20621, 21062, 21497, 21925, 22347, 22762, 2317
  80:../source/sgl_core.c ****     24351, 24730, 25101, 25465, 25821, 26169, 26509, 26841, 27165, 27481, 27788, 28087, 28377, 2865
  81:../source/sgl_core.c ****     29451, 29697, 29934, 30162, 30381, 30591, 30791, 30982, 31163, 31335, 31498, 31650, 31794, 3192
  82:../source/sgl_core.c ****     32269, 32364, 32448, 32523, 32587, 32642, 32687, 32722, 32747, 32762, 32767
  83:../source/sgl_core.c **** };
  84:../source/sgl_core.c **** 
  85:../source/sgl_core.c **** 
  86:../source/sgl_core.c **** /**
  87:../source/sgl_core.c ****  * @brief sqrt table, if the number less than 1024, the sqrt root will get by the table
  88:../source/sgl_core.c ****  */
  89:../source/sgl_core.c **** static const uint8_t sqrt_error_table[] = {
  90:../source/sgl_core.c ****     0x00,0x00,0x6a,0xbb,0x00,0x3c,0x73,0xa5,0xd4,0x00,0x29,0x51,0x76,0x9b,0xbd,0xdf,
  91:../source/sgl_core.c ****     0x00,0x1f,0x3e,0x5b,0x78,0x95,0xb0,0xcb,0xe6,0x00,0x19,0x32,0x4a,0x62,0x7a,0x91,
  92:../source/sgl_core.c ****     0xa8,0xbe,0xd4,0xea,0x00,0x15,0x2a,0x3e,0x53,0x67,0x7b,0x8e,0xa2,0xb5,0xc8,0xdb,
  93:../source/sgl_core.c ****     0xed,0x00,0x12,0x24,0x36,0x47,0x59,0x6a,0x7b,0x8c,0x9d,0xae,0xbe,0xcf,0xdf,0xef,
  94:../source/sgl_core.c ****     0x00,0x0f,0x1f,0x2f,0x3f,0x4e,0x5d,0x6d,0x7c,0x8b,0x9a,0xa9,0xb7,0xc6,0xd4,0xe3,
  95:../source/sgl_core.c ****     0xf1,0x00,0x0e,0x1c,0x2a,0x38,0x46,0x53,0x61,0x6f,0x7c,0x8a,0x97,0xa4,0xb2,0xbf,
  96:../source/sgl_core.c ****     0xcc,0xd9,0xe6,0xf3,0x00,0x0c,0x19,0x26,0x32,0x3f,0x4b,0x58,0x64,0x70,0x7c,0x89,
  97:../source/sgl_core.c ****     0x95,0xa1,0xad,0xb9,0xc5,0xd1,0xdc,0xe8,0xf4,0x00,0x0b,0x17,0x22,0x2e,0x39,0x44,
  98:../source/sgl_core.c ****     0x50,0x5b,0x66,0x72,0x7d,0x88,0x93,0x9e,0xa9,0xb4,0xbf,0xca,0xd5,0xdf,0xea,0xf5,
  99:../source/sgl_core.c ****     0x00,0x0a,0x15,0x1f,0x2a,0x34,0x3f,0x49,0x54,0x5e,0x68,0x73,0x7d,0x87,0x91,0x9c,
 100:../source/sgl_core.c ****     0xa6,0xb0,0xba,0xc4,0xce,0xd8,0xe2,0xec,0xf6,0x00,0x09,0x13,0x1d,0x27,0x30,0x3a,
 101:../source/sgl_core.c ****     0x44,0x4d,0x57,0x61,0x6a,0x74,0x7d,0x87,0x90,0x99,0xa3,0xac,0xb6,0xbf,0xc8,0xd1,
 102:../source/sgl_core.c ****     0xdb,0xe4,0xed,0xf6,0x00,0x09,0x12,0x1b,0x24,0x2d,0x36,0x3f,0x48,0x51,0x5a,0x63,
GAS LISTING C:\Users\lsw\AppData\Local\Temp\ccdBfdv6.s 			page 3


 103:../source/sgl_core.c ****     0x6c,0x74,0x7d,0x86,0x8f,0x98,0xa0,0xa9,0xb2,0xbb,0xc3,0xcc,0xd5,0xdd,0xe6,0xee,
 104:../source/sgl_core.c ****     0xf7,0x00,0x08,0x11,0x19,0x21,0x2a,0x32,0x3b,0x43,0x4c,0x54,0x5c,0x65,0x6d,0x75,
 105:../source/sgl_core.c ****     0x7d,0x86,0x8e,0x96,0x9e,0xa7,0xaf,0xb7,0xbf,0xc7,0xcf,0xd7,0xdf,0xe7,0xef,0xf7,
 106:../source/sgl_core.c ****     0x00,0x07,0x0f,0x17,0x1f,0x27,0x2f,0x37,0x3f,0x47,0x4f,0x57,0x5e,0x66,0x6e,0x76,
 107:../source/sgl_core.c ****     0x7e,0x85,0x8d,0x95,0x9c,0xa4,0xac,0xb4,0xbb,0xc3,0xca,0xd2,0xda,0xe1,0xe9,0xf0,
 108:../source/sgl_core.c ****     0xf8,0x00,0x07,0x0f,0x16,0x1e,0x25,0x2c,0x34,0x3b,0x43,0x4a,0x52,0x59,0x60,0x68,
 109:../source/sgl_core.c ****     0x6f,0x76,0x7e,0x85,0x8c,0x94,0x9b,0xa2,0xa9,0xb1,0xb8,0xbf,0xc6,0xcd,0xd5,0xdc,
 110:../source/sgl_core.c ****     0xe3,0xea,0xf1,0xf8,0x00,0x07,0x0e,0x15,0x1c,0x23,0x2a,0x31,0x38,0x3f,0x46,0x4d,
 111:../source/sgl_core.c ****     0x54,0x5b,0x62,0x69,0x70,0x77,0x7e,0x85,0x8c,0x92,0x99,0xa0,0xa7,0xae,0xb5,0xbc,
 112:../source/sgl_core.c ****     0xc2,0xc9,0xd0,0xd7,0xde,0xe4,0xeb,0xf2,0xf9,0x00,0x06,0x0d,0x14,0x1a,0x21,0x28,
 113:../source/sgl_core.c ****     0x2e,0x35,0x3c,0x42,0x49,0x50,0x56,0x5d,0x64,0x6a,0x71,0x77,0x7e,0x84,0x8b,0x92,
 114:../source/sgl_core.c ****     0x98,0x9f,0xa5,0xac,0xb2,0xb9,0xbf,0xc6,0xcc,0xd3,0xd9,0xdf,0xe6,0xec,0xf3,0xf9,
 115:../source/sgl_core.c ****     0x00,0x06,0x0c,0x13,0x19,0x1f,0x26,0x2c,0x32,0x39,0x3f,0x45,0x4c,0x52,0x58,0x5f,
 116:../source/sgl_core.c ****     0x65,0x6b,0x71,0x78,0x7e,0x84,0x8a,0x91,0x97,0x9d,0xa3,0xa9,0xb0,0xb6,0xbc,0xc2,
 117:../source/sgl_core.c ****     0xc8,0xcf,0xd5,0xdb,0xe1,0xe7,0xed,0xf3,0xf9,0x00,0x06,0x0c,0x12,0x18,0x1e,0x24,
 118:../source/sgl_core.c ****     0x2a,0x30,0x36,0x3c,0x42,0x48,0x4e,0x54,0x5a,0x60,0x66,0x6c,0x72,0x78,0x7e,0x84,
 119:../source/sgl_core.c ****     0x8a,0x90,0x96,0x9c,0xa2,0xa8,0xad,0xb3,0xb9,0xbf,0xc5,0xcb,0xd1,0xd7,0xdc,0xe2,
 120:../source/sgl_core.c ****     0xe8,0xee,0xf4,0xfa,0x00,0x05,0x0b,0x11,0x17,0x1d,0x22,0x28,0x2e,0x34,0x39,0x3f,
 121:../source/sgl_core.c ****     0x45,0x4b,0x50,0x56,0x5c,0x62,0x67,0x6d,0x73,0x78,0x7e,0x84,0x89,0x8f,0x95,0x9a,
 122:../source/sgl_core.c ****     0xa0,0xa6,0xab,0xb1,0xb7,0xbc,0xc2,0xc8,0xcd,0xd3,0xd8,0xde,0xe4,0xe9,0xef,0xf4,
 123:../source/sgl_core.c ****     0xfa,0x00,0x05,0x0b,0x10,0x16,0x1b,0x21,0x26,0x2c,0x31,0x37,0x3c,0x42,0x47,0x4d,
 124:../source/sgl_core.c ****     0x52,0x58,0x5d,0x63,0x68,0x6e,0x73,0x79,0x7e,0x84,0x89,0x8e,0x94,0x99,0x9f,0xa4,
 125:../source/sgl_core.c ****     0xaa,0xaf,0xb4,0xba,0xbf,0xc5,0xca,0xcf,0xd5,0xda,0xdf,0xe5,0xea,0xef,0xf5,0xfa,
 126:../source/sgl_core.c ****     0x00,0x05,0x0a,0x0f,0x15,0x1a,0x1f,0x25,0x2a,0x2f,0x35,0x3a,0x3f,0x44,0x4a,0x4f,
 127:../source/sgl_core.c ****     0x54,0x5a,0x5f,0x64,0x69,0x6e,0x74,0x79,0x7e,0x83,0x89,0x8e,0x93,0x98,0x9d,0xa3,
 128:../source/sgl_core.c ****     0xa8,0xad,0xb2,0xb7,0xbd,0xc2,0xc7,0xcc,0xd1,0xd6,0xdc,0xe1,0xe6,0xeb,0xf0,0xf5,
 129:../source/sgl_core.c ****     0xfa,0x00,0x05,0x0a,0x0f,0x14,0x19,0x1e,0x23,0x28,0x2d,0x32,0x38,0x3d,0x42,0x47,
 130:../source/sgl_core.c ****     0x4c,0x51,0x56,0x5b,0x60,0x65,0x6a,0x6f,0x74,0x79,0x7e,0x83,0x88,0x8d,0x92,0x97,
 131:../source/sgl_core.c ****     0x9c,0xa1,0xa6,0xab,0xb0,0xb5,0xba,0xbf,0xc4,0xc9,0xce,0xd3,0xd8,0xdd,0xe2,0xe7,
 132:../source/sgl_core.c ****     0xec,0xf1,0xf6,0xfb,0x00,0x04,0x09,0x0e,0x13,0x18,0x1d,0x22,0x27,0x2c,0x31,0x35,
 133:../source/sgl_core.c ****     0x3a,0x3f,0x44,0x49,0x4e,0x53,0x58,0x5c,0x61,0x66,0x6b,0x70,0x75,0x79,0x7e,0x83,
 134:../source/sgl_core.c ****     0x88,0x8d,0x92,0x96,0x9b,0xa0,0xa5,0xaa,0xae,0xb3,0xb8,0xbd,0xc2,0xc6,0xcb,0xd0,
 135:../source/sgl_core.c ****     0xd5,0xd9,0xde,0xe3,0xe8,0xed,0xf1,0xf6,0xfb,0x00,0x04,0x09,0x0e,0x12,0x17,0x1c,
 136:../source/sgl_core.c ****     0x21,0x25,0x2a,0x2f,0x33,0x38,0x3d,0x42,0x46,0x4b,0x50,0x54,0x59,0x5e,0x62,0x67,
 137:../source/sgl_core.c ****     0x6c,0x70,0x75,0x7a,0x7e,0x83,0x88,0x8c,0x91,0x96,0x9a,0x9f,0xa3,0xa8,0xad,0xb1,
 138:../source/sgl_core.c ****     0xb6,0xbb,0xbf,0xc4,0xc8,0xcd,0xd2,0xd6,0xdb,0xdf,0xe4,0xe9,0xed,0xf2,0xf6,0xfb,
 139:../source/sgl_core.c ****     0x00,0x04,0x09,0x0d,0x12,0x16,0x1b,0x1f,0x24,0x29,0x2d,0x32,0x36,0x3b,0x3f,0x44,
 140:../source/sgl_core.c ****     0x48,0x4d,0x51,0x56,0x5a,0x5f,0x63,0x68,0x6c,0x71,0x75,0x7a,0x7e,0x83,0x87,0x8c,
 141:../source/sgl_core.c ****     0x90,0x95,0x99,0x9e,0xa2,0xa7,0xab,0xb0,0xb4,0xb9,0xbd,0xc1,0xc6,0xca,0xcf,0xd3,
 142:../source/sgl_core.c ****     0xd8,0xdc,0xe1,0xe5,0xe9,0xee,0xf2,0xf7,0xfb,0x00,0x04,0x08,0x0d,0x11,0x16,0x1a,
 143:../source/sgl_core.c ****     0x1e,0x23,0x27,0x2c,0x30,0x34,0x39,0x3d,0x41,0x46,0x4a,0x4f,0x53,0x57,0x5c,0x60,
 144:../source/sgl_core.c ****     0x64,0x69,0x6d,0x71,0x76,0x7a,0x7e,0x83,0x87,0x8b,0x90,0x94,0x98,0x9d,0xa1,0xa5,
 145:../source/sgl_core.c ****     0xaa,0xae,0xb2,0xb7,0xbb,0xbf,0xc4,0xc8,0xcc,0xd0,0xd5,0xd9,0xdd,0xe2,0xe6,0xea,
 146:../source/sgl_core.c ****     0xee,0xf3,0xf7,0xfb,0x00,0x04,0x08,0x0c,0x11,0x15,0x19,0x1d,0x22,0x26,0x2a,0x2e,
 147:../source/sgl_core.c ****     0x33,0x37,0x3b,0x3f,0x43,0x48,0x4c,0x50,0x54,0x59,0x5d,0x61,0x65,0x69,0x6e,0x72,
 148:../source/sgl_core.c ****     0x76,0x7a,0x7e,0x83,0x87,0x8b,0x8f,0x93,0x98,0x9c,0xa0,0xa4,0xa8,0xac,0xb1,0xb5,
 149:../source/sgl_core.c ****     0xb9,0xbd,0xc1,0xc5,0xca,0xce,0xd2,0xd6,0xda,0xde,0xe3,0xe7,0xeb,0xef,0xf3,0xf7,
 150:../source/sgl_core.c ****     0xfb,0x00,0x04,0x08,0x0c,0x10,0x14,0x18,0x1c,0x20,0x25,0x29,0x2d,0x31,0x35,0x39,
 151:../source/sgl_core.c ****     0x3d,0x41,0x45,0x49,0x4e,0x52,0x56,0x5a,0x5e,0x62,0x66,0x6a,0x6e,0x72,0x76,0x7a,
 152:../source/sgl_core.c ****     0x7e,0x83,0x87,0x8b,0x8f,0x93,0x97,0x9b,0x9f,0xa3,0xa7,0xab,0xaf,0xb3,0xb7,0xbb,
 153:../source/sgl_core.c ****     0xbf,0xc3,0xc7,0xcb,0xcf,0xd3,0xd7,0xdb,0xdf,0xe3,0xe7,0xeb,0xef,0xf3,0xf7,0xfb,
 154:../source/sgl_core.c ****     0x00
 155:../source/sgl_core.c **** };
 156:../source/sgl_core.c **** 
 157:../source/sgl_core.c **** 
 158:../source/sgl_core.c **** /**
 159:../source/sgl_core.c ****  * the table will used to calculate the square root of a number
GAS LISTING C:\Users\lsw\AppData\Local\Temp\ccdBfdv6.s 			page 4


 160:../source/sgl_core.c ****  */
 161:../source/sgl_core.c **** static const uint32_t sqrt_error_init_table[32] = {
 162:../source/sgl_core.c ****     0, 1, 1, 2, 2, 2, 3, 3, 3, 3, 4, 4, 4, 4, 4, 5,
 163:../source/sgl_core.c ****     5, 5, 5, 5, 5, 6, 6, 6, 6, 6, 6, 6, 7, 7, 7, 7
 164:../source/sgl_core.c **** };
 165:../source/sgl_core.c **** 
 166:../source/sgl_core.c **** 
 167:../source/sgl_core.c **** /**
 168:../source/sgl_core.c ****  * @brief Calculate the sine of an angle
 169:../source/sgl_core.c ****  * @param angle: Angle in degrees such 0-359
 170:../source/sgl_core.c ****  * @return sine of the angle from sin0_90_table
 171:../source/sgl_core.c ****  */
 172:../source/sgl_core.c **** int32_t sgl_sin(int16_t angle)
 173:../source/sgl_core.c **** {
 174:../source/sgl_core.c ****     int16_t ret = 0;
 175:../source/sgl_core.c **** 
 176:../source/sgl_core.c ****     while (angle >= 360) {
 177:../source/sgl_core.c ****         angle -= 360;
 178:../source/sgl_core.c ****     }
 179:../source/sgl_core.c ****     while (angle < 0) {
 180:../source/sgl_core.c ****         angle += 360;
 181:../source/sgl_core.c ****     }
 182:../source/sgl_core.c **** 
 183:../source/sgl_core.c ****     if (angle < 0) {
 184:../source/sgl_core.c ****         angle = 360 + angle;
 185:../source/sgl_core.c ****     }
 186:../source/sgl_core.c **** 
 187:../source/sgl_core.c ****     if (angle < 90) {
 188:../source/sgl_core.c ****         ret = sin0_90_table[angle];
 189:../source/sgl_core.c ****     }
 190:../source/sgl_core.c ****     else if (angle >= 90 && angle < 180){
 191:../source/sgl_core.c ****         angle = 180 - angle;
 192:../source/sgl_core.c ****         ret   = sin0_90_table[angle];
 193:../source/sgl_core.c ****     }
 194:../source/sgl_core.c ****     else if (angle >= 180 && angle < 270){
 195:../source/sgl_core.c ****         angle = angle - 180;
 196:../source/sgl_core.c ****         ret   = -sin0_90_table[angle];
 197:../source/sgl_core.c ****     }
 198:../source/sgl_core.c ****     else {
 199:../source/sgl_core.c ****         angle = 360 - angle;
 200:../source/sgl_core.c ****         ret   = -sin0_90_table[angle];
 201:../source/sgl_core.c ****     }
 202:../source/sgl_core.c **** 
 203:../source/sgl_core.c ****     return ret;
 204:../source/sgl_core.c **** }
 205:../source/sgl_core.c **** 
 206:../source/sgl_core.c **** 
 207:../source/sgl_core.c **** /**
 208:../source/sgl_core.c ****  * @brief  Calculate x number square root
 209:../source/sgl_core.c ****  * @param  x: x number
 210:../source/sgl_core.c ****  * @retval x number square root
 211:../source/sgl_core.c ****  */
 212:../source/sgl_core.c **** uint16_t sgl_sqrt(uint32_t x)
 213:../source/sgl_core.c **** {
 214:../source/sgl_core.c ****     uint32_t rem = 0;
 215:../source/sgl_core.c ****     uint32_t root = 0;
 216:../source/sgl_core.c ****     uint32_t divisor = 0;
GAS LISTING C:\Users\lsw\AppData\Local\Temp\ccdBfdv6.s 			page 5


 217:../source/sgl_core.c **** 
 218:../source/sgl_core.c ****     for (int i=0; i<16; i++) {
 219:../source/sgl_core.c ****         root <<= 1;
 220:../source/sgl_core.c ****         rem = ((rem << 2) + (x >> 30));
 221:../source/sgl_core.c ****         x <<= 2;
 222:../source/sgl_core.c ****         divisor = (root<<1) + 1;
 223:../source/sgl_core.c ****         
 224:../source/sgl_core.c ****         if (divisor <= rem) {
 225:../source/sgl_core.c ****             rem -= divisor;
 226:../source/sgl_core.c ****             root++;
 227:../source/sgl_core.c ****         }
 228:../source/sgl_core.c ****     }
 229:../source/sgl_core.c ****     return (uint16_t)(root);
 230:../source/sgl_core.c **** }
 231:../source/sgl_core.c **** 
 232:../source/sgl_core.c **** 
 233:../source/sgl_core.c **** /**
 234:../source/sgl_core.c ****  * @brief Calculate error of the square root for a number.
 235:../source/sgl_core.c ****  * @param x The number to calculate the error for.
 236:../source/sgl_core.c ****  * @return The error of the square root. [0 ~ 255]
 237:../source/sgl_core.c ****  */
 238:../source/sgl_core.c **** uint8_t sgl_sqrt_error(uint32_t x)
 239:../source/sgl_core.c **** {
 240:../source/sgl_core.c ****     uint32_t bsh = (1 << 14);
 241:../source/sgl_core.c ****     uint32_t fpr = 0;
 242:../source/sgl_core.c ****     uint32_t osh = 0;
 243:../source/sgl_core.c ****     uint32_t bod;
 244:../source/sgl_core.c **** 
 245:../source/sgl_core.c ****     if (x < 1025) {
 246:../source/sgl_core.c ****         return sqrt_error_table[x];
 247:../source/sgl_core.c ****     }
 248:../source/sgl_core.c ****     else if (x > (1 << 30)) {
 249:../source/sgl_core.c ****         return 0;
 250:../source/sgl_core.c ****     }
 251:../source/sgl_core.c **** 
 252:../source/sgl_core.c ****     int32_t index = 0;
 253:../source/sgl_core.c ****     uint32_t xp = x;
 254:../source/sgl_core.c **** 
 255:../source/sgl_core.c ****     if ((xp & 0xFFFF0000) == 0) { index += 16; xp <<= 16; }
 256:../source/sgl_core.c ****     if ((xp & 0xFF000000) == 0) { index += 8; xp <<= 8; }
 257:../source/sgl_core.c ****     if ((xp & 0xF0000000) == 0) { index += 4; xp <<= 4; }
 258:../source/sgl_core.c ****     if ((xp & 0xC0000000) == 0) { index += 2; xp <<= 2; }
 259:../source/sgl_core.c ****     if ((xp & 0x80000000) == 0) { index += 1; }
 260:../source/sgl_core.c **** 
 261:../source/sgl_core.c ****     osh = sqrt_error_init_table[31 - index];
 262:../source/sgl_core.c ****     bsh = 1 << (2 * osh + 14);
 263:../source/sgl_core.c **** 
 264:../source/sgl_core.c ****     do {
 265:../source/sgl_core.c ****         bod = bsh + fpr;
 266:../source/sgl_core.c ****         if (x >= bod) {
 267:../source/sgl_core.c ****             x -= bod;
 268:../source/sgl_core.c ****             fpr = bsh + bod;
 269:../source/sgl_core.c ****         }
 270:../source/sgl_core.c ****         x <<= 1;
 271:../source/sgl_core.c ****     }while (bsh >>= 1);
 272:../source/sgl_core.c **** 
 273:../source/sgl_core.c ****     return fpr>>osh;
GAS LISTING C:\Users\lsw\AppData\Local\Temp\ccdBfdv6.s 			page 6


 274:../source/sgl_core.c **** }
 275:../source/sgl_core.c **** 
 276:../source/sgl_core.c **** 
 277:../source/sgl_core.c **** /**
 278:../source/sgl_core.c ****  * @brief Calculate the angle based on the x and y coordinates. This function is a fast algorithm
 279:../source/sgl_core.c ****  *         implementation, with reference address: www.RomanBlack.com (Fast XY vector to integer de
 280:../source/sgl_core.c ****  *
 281:../source/sgl_core.c ****  * @param x:  The x coordinate on a circle
 282:../source/sgl_core.c ****  * @param y:  The y coordinate on a circle
 283:../source/sgl_core.c ****  * @return angle 
 284:../source/sgl_core.c ****  * @note return angle [-32767 ~ 32767]
 285:../source/sgl_core.c ****  */
 286:../source/sgl_core.c **** int32_t sgl_atan2_raw(int x, int y)
 287:../source/sgl_core.c **** {
 288:../source/sgl_core.c ****     int32_t ret;
 289:../source/sgl_core.c **** 
 290:../source/sgl_core.c ****     if (y == 0) {
 291:../source/sgl_core.c ****         if (x > 0) {
 292:../source/sgl_core.c ****             ret = -32767;
 293:../source/sgl_core.c ****         }
 294:../source/sgl_core.c ****         else {
 295:../source/sgl_core.c ****             ret = 32767;
 296:../source/sgl_core.c ****         }
 297:../source/sgl_core.c ****     }
 298:../source/sgl_core.c ****     else {
 299:../source/sgl_core.c ****         ret = (x << 8) / y;
 300:../source/sgl_core.c ****     }
 301:../source/sgl_core.c ****     if (y > 0) {
 302:../source/sgl_core.c ****         ret += 32767;
 303:../source/sgl_core.c ****     }
 304:../source/sgl_core.c ****     else {
 305:../source/sgl_core.c ****         ret -= 32767;
 306:../source/sgl_core.c ****     }
 307:../source/sgl_core.c **** 
 308:../source/sgl_core.c ****     return ret;
 309:../source/sgl_core.c **** }
 310:../source/sgl_core.c **** 
 311:../source/sgl_core.c **** 
 312:../source/sgl_core.c **** /**
 313:../source/sgl_core.c ****  * @brief Calculate the angle based on the x and y coordinates. This function is a fast algorithm 
 314:../source/sgl_core.c ****  *        implementation, with reference address: www.RomanBlack.com (Fast XY vector to integer deg
 315:../source/sgl_core.c ****  * 
 316:../source/sgl_core.c ****  * @param x:  The x coordinate on a circle
 317:../source/sgl_core.c ****  * @param y:  The y coordinate on a circle
 318:../source/sgl_core.c ****  * @return angle
 319:../source/sgl_core.c ****  * @note return angle [0 ~ 359]
 320:../source/sgl_core.c **** */
 321:../source/sgl_core.c **** uint16_t sgl_atan2_angle(int x, int y)
 322:../source/sgl_core.c **** {
 323:../source/sgl_core.c ****     unsigned char negflag;
 324:../source/sgl_core.c ****     unsigned char tempdegree;
 325:../source/sgl_core.c ****     unsigned char comp;
 326:../source/sgl_core.c ****     unsigned int degree;
 327:../source/sgl_core.c ****     unsigned int ux;
 328:../source/sgl_core.c ****     unsigned int uy;
 329:../source/sgl_core.c **** 
 330:../source/sgl_core.c ****     negflag = 0;
GAS LISTING C:\Users\lsw\AppData\Local\Temp\ccdBfdv6.s 			page 7


 331:../source/sgl_core.c ****     if (x < 0) {
 332:../source/sgl_core.c ****         negflag += 0x01;
 333:../source/sgl_core.c ****         x = (0 - x);
 334:../source/sgl_core.c ****     }
 335:../source/sgl_core.c ****     ux = x;
 336:../source/sgl_core.c ****     if (y < 0) {
 337:../source/sgl_core.c ****         negflag += 0x02;
 338:../source/sgl_core.c ****         y = (0 - y);
 339:../source/sgl_core.c ****     }
 340:../source/sgl_core.c ****     uy = y;
 341:../source/sgl_core.c **** 
 342:../source/sgl_core.c ****     if (ux > uy) {
 343:../source/sgl_core.c ****         degree = (uy * 45) / ux;
 344:../source/sgl_core.c ****         negflag += 0x10;
 345:../source/sgl_core.c ****     }
 346:../source/sgl_core.c ****     else {
 347:../source/sgl_core.c ****         degree = (ux * 45) / uy;
 348:../source/sgl_core.c ****     }
 349:../source/sgl_core.c **** 
 350:../source/sgl_core.c ****     comp = 0;
 351:../source/sgl_core.c ****     tempdegree = degree;
 352:../source/sgl_core.c ****     if (tempdegree > 22) {
 353:../source/sgl_core.c ****         if (tempdegree <= 44) comp++;
 354:../source/sgl_core.c ****         if (tempdegree <= 41) comp++;
 355:../source/sgl_core.c ****         if (tempdegree <= 37) comp++;
 356:../source/sgl_core.c ****         if (tempdegree <= 32) comp++;
 357:../source/sgl_core.c ****     }
 358:../source/sgl_core.c ****     else {
 359:../source/sgl_core.c ****         if (tempdegree >= 2) comp++;
 360:../source/sgl_core.c ****         if (tempdegree >= 6) comp++;
 361:../source/sgl_core.c ****         if (tempdegree >= 10) comp++;
 362:../source/sgl_core.c ****         if (tempdegree >= 15) comp++;
 363:../source/sgl_core.c ****     }
 364:../source/sgl_core.c ****     degree += comp;
 365:../source/sgl_core.c **** 
 366:../source/sgl_core.c ****     if (negflag & 0x10) degree = (90 - degree);
 367:../source/sgl_core.c **** 
 368:../source/sgl_core.c ****     if (negflag & 0x02) {
 369:../source/sgl_core.c ****         if (negflag & 0x01)
 370:../source/sgl_core.c ****             degree = (180 + degree);
 371:../source/sgl_core.c ****         else
 372:../source/sgl_core.c ****             degree = (180 - degree);
 373:../source/sgl_core.c ****     }
 374:../source/sgl_core.c ****     else {
 375:../source/sgl_core.c ****         if (negflag & 0x01)
 376:../source/sgl_core.c ****             degree = (360 - degree);
 377:../source/sgl_core.c ****     }
 378:../source/sgl_core.c ****     return degree;
 379:../source/sgl_core.c **** }
 380:../source/sgl_core.c **** 
 381:../source/sgl_core.c **** 
 382:../source/sgl_core.c **** /**
 383:../source/sgl_core.c ****  * @brief Split the length into n parts, with the weight of each part.
 384:../source/sgl_core.c ****  * @param weight: The weight of each part.
 385:../source/sgl_core.c ****  * @param count: The count of parts.
 386:../source/sgl_core.c ****  * @param length: The length to split.
 387:../source/sgl_core.c ****  * @param gap: The gap between each part.
GAS LISTING C:\Users\lsw\AppData\Local\Temp\ccdBfdv6.s 			page 8


 388:../source/sgl_core.c ****  * @param out: The length of each part.
 389:../source/sgl_core.c ****  * @note The error accumulation method of Bresenham's algorithm
 390:../source/sgl_core.c ****  */
 391:../source/sgl_core.c **** void sgl_split_len(const uint8_t *weight, int count, int16_t length, int16_t gap, int16_t *out)
 392:../source/sgl_core.c **** {
 393:../source/sgl_core.c ****     int16_t total_w = 0, span = 0, accumulated = 0, error = 0;
 394:../source/sgl_core.c ****     for (int i = 0; i < count; i++) {
 395:../source/sgl_core.c ****         total_w += weight[i];
 396:../source/sgl_core.c ****     }
 397:../source/sgl_core.c **** 
 398:../source/sgl_core.c ****     span = length - gap * (count + 1);
 399:../source/sgl_core.c **** 
 400:../source/sgl_core.c ****     for (int i = 0; i < count; i++) {
 401:../source/sgl_core.c ****         int numerator = weight[i] * span;
 402:../source/sgl_core.c ****         out[i] = numerator / total_w;
 403:../source/sgl_core.c ****         error += numerator % total_w;
 404:../source/sgl_core.c **** 
 405:../source/sgl_core.c ****         if (error >= total_w) {
 406:../source/sgl_core.c ****             out[i] += 1;
 407:../source/sgl_core.c ****             error -= total_w;
 408:../source/sgl_core.c ****         }
 409:../source/sgl_core.c ****         accumulated += out[i];
 410:../source/sgl_core.c ****     }
 411:../source/sgl_core.c **** 
 412:../source/sgl_core.c ****     error = span - accumulated;
 413:../source/sgl_core.c **** 
 414:../source/sgl_core.c ****     for (int i = 0; i < count && error > 0; i++) {
 415:../source/sgl_core.c ****         out[i] += 1;
 416:../source/sgl_core.c ****         error --;
 417:../source/sgl_core.c ****     }
 418:../source/sgl_core.c **** 
 419:../source/sgl_core.c ****     for (int i = 0; i < count && error < 0; i++) {
 420:../source/sgl_core.c ****         out[i] -= 1;
 421:../source/sgl_core.c ****         error ++;
 422:../source/sgl_core.c ****     }
 423:../source/sgl_core.c **** }
 424:../source/sgl_core.c **** 
 425:../source/sgl_core.c **** 
 426:../source/sgl_core.c **** /**
 427:../source/sgl_core.c ****  * @brief Split the length into n parts, with the weight of each part.
 428:../source/sgl_core.c ****  * @param length: The length to split.
 429:../source/sgl_core.c ****  * @param count: The count of parts.
 430:../source/sgl_core.c ****  * @param gap: The gap between each part.
 431:../source/sgl_core.c ****  * @param out: The length of each part.
 432:../source/sgl_core.c ****  * @note The average method of Bresenham's algorithm
 433:../source/sgl_core.c ****  */
 434:../source/sgl_core.c **** void sgl_split_len_avg(int length, int count, int16_t gap, int16_t *out)
 435:../source/sgl_core.c **** {
 436:../source/sgl_core.c ****     int16_t available_length = length - (count + 1) * gap;
 437:../source/sgl_core.c ****     int16_t base = available_length / count;
 438:../source/sgl_core.c ****     int16_t remainder = available_length % count;
 439:../source/sgl_core.c **** 
 440:../source/sgl_core.c ****     int16_t error = 0;
 441:../source/sgl_core.c ****     for (int i = 0; i < count; i++) {
 442:../source/sgl_core.c ****         out[i] = base;
 443:../source/sgl_core.c ****         error += remainder;
 444:../source/sgl_core.c **** 
GAS LISTING C:\Users\lsw\AppData\Local\Temp\ccdBfdv6.s 			page 9


 445:../source/sgl_core.c ****         if (error > count / 2) {
 446:../source/sgl_core.c ****             out[i] += 1;
 447:../source/sgl_core.c ****             error -= count;
 448:../source/sgl_core.c ****         }
 449:../source/sgl_core.c ****     }
 450:../source/sgl_core.c **** }
 451:../source/sgl_core.c **** 
 452:../source/sgl_core.c **** 
 453:../source/sgl_core.c **** /* Random number generator */
 454:../source/sgl_core.c **** static size_t rand_next = 1;
 455:../source/sgl_core.c **** 
 456:../source/sgl_core.c **** /**
 457:../source/sgl_core.c ****  * @brief Generate a random number.
 458:../source/sgl_core.c ****  * @param none
 459:../source/sgl_core.c ****  * @return Random number.
 460:../source/sgl_core.c ****  * @note The random number generator is in the range of [0, 32767].
 461:../source/sgl_core.c ****  */
 462:../source/sgl_core.c **** int16_t sgl_rand(void)
 463:../source/sgl_core.c **** {
 464:../source/sgl_core.c ****     rand_next = rand_next * 1103515245 + 12345;
 465:../source/sgl_core.c ****     return (unsigned int)(rand_next / 65536) % 32768;
 466:../source/sgl_core.c **** }
 467:../source/sgl_core.c **** 
 468:../source/sgl_core.c **** 
 469:../source/sgl_core.c **** /**
 470:../source/sgl_core.c ****  * @brief Set the seed of the random number generator.
 471:../source/sgl_core.c ****  * @param seed: The seed of the random number generator.
 472:../source/sgl_core.c ****  * @return none
 473:../source/sgl_core.c ****  */
 474:../source/sgl_core.c **** void sgl_srand(unsigned int seed)
 475:../source/sgl_core.c **** {
 476:../source/sgl_core.c ****     rand_next = seed;
 477:../source/sgl_core.c **** }
 478:../source/sgl_core.c **** 
 479:../source/sgl_core.c **** 
 480:../source/sgl_core.c **** /**
 481:../source/sgl_core.c ****  * @brief append a character to the buffer
 482:../source/sgl_core.c ****  * @param buf buffer
 483:../source/sgl_core.c ****  * @param size buffer size
 484:../source/sgl_core.c ****  * @param pos current position
 485:../source/sgl_core.c ****  * @param c character to append
 486:../source/sgl_core.c ****  */
 487:../source/sgl_core.c **** static inline void append_char(char *buf, size_t size, size_t *pos, char c)
 488:../source/sgl_core.c **** {
 489:../source/sgl_core.c ****     if (*pos + 1 < size) {
 490:../source/sgl_core.c ****         buf[*pos] = c;
 491:../source/sgl_core.c ****     }
 492:../source/sgl_core.c ****     (*pos)++;
 493:../source/sgl_core.c **** }
 494:../source/sgl_core.c **** 
 495:../source/sgl_core.c **** /**
 496:../source/sgl_core.c ****  * @brief append a string to the buffer
 497:../source/sgl_core.c ****  * @param buf buffer
 498:../source/sgl_core.c ****  * @param size buffer size
 499:../source/sgl_core.c ****  * @param pos current position
 500:../source/sgl_core.c ****  * @param s string to append
 501:../source/sgl_core.c ****  */
GAS LISTING C:\Users\lsw\AppData\Local\Temp\ccdBfdv6.s 			page 10


 502:../source/sgl_core.c **** static inline void append_str(char *buf, size_t size, size_t *pos, const char* s)
 503:../source/sgl_core.c **** {
 504:../source/sgl_core.c ****     while (*s) append_char(buf, size, pos, *s++);
 505:../source/sgl_core.c **** }
 506:../source/sgl_core.c **** 
 507:../source/sgl_core.c **** /**
 508:../source/sgl_core.c ****  * @brief pad alignment characters (default: space) to the buffer
 509:../source/sgl_core.c ****  * @param buf buffer
 510:../source/sgl_core.c ****  * @param size buffer size
 511:../source/sgl_core.c ****  * @param pos current position
 512:../source/sgl_core.c ****  * @param pad_len number of padding characters to append
 513:../source/sgl_core.c ****  * @param pad_char padding character (default: ' ')
 514:../source/sgl_core.c ****  */
 515:../source/sgl_core.c **** static inline void pad_align(char *buf, size_t size, size_t *pos, size_t pad_len, char pad_char)
 516:../source/sgl_core.c **** {
 517:../source/sgl_core.c ****     for (size_t i = 0; i < pad_len; i++) {
 518:../source/sgl_core.c ****         append_char(buf, size, pos, pad_char);
 519:../source/sgl_core.c ****     }
 520:../source/sgl_core.c **** }
 521:../source/sgl_core.c **** 
 522:../source/sgl_core.c **** /**
 523:../source/sgl_core.c ****  * @brief calculate the length of an integer when converted to string
 524:../source/sgl_core.c ****  * @param val integer value
 525:../source/sgl_core.c ****  * @return number of characters of the integer string
 526:../source/sgl_core.c ****  */
 527:../source/sgl_core.c **** static inline size_t int_str_len(int val)
 528:../source/sgl_core.c **** {
 529:../source/sgl_core.c ****     if (val == 0) return 1; // Special case: 0 has length 1
 530:../source/sgl_core.c **** 
 531:../source/sgl_core.c ****     size_t len = 0;
 532:../source/sgl_core.c ****     bool neg = val < 0;
 533:../source/sgl_core.c ****     
 534:../source/sgl_core.c ****     if (neg) val = -val;
 535:../source/sgl_core.c **** 
 536:../source/sgl_core.c ****     do {
 537:../source/sgl_core.c ****         len++;
 538:../source/sgl_core.c ****         val /= 10;
 539:../source/sgl_core.c ****     } while (val);
 540:../source/sgl_core.c **** 
 541:../source/sgl_core.c ****     return neg ? len + 1 : len; // Add 1 for negative sign
 542:../source/sgl_core.c **** }
 543:../source/sgl_core.c **** 
 544:../source/sgl_core.c **** /**
 545:../source/sgl_core.c ****  * @brief append an integer to the buffer with left/right alignment support
 546:../source/sgl_core.c ****  * @param buf buffer
 547:../source/sgl_core.c ****  * @param size buffer size
 548:../source/sgl_core.c ****  * @param pos current position
 549:../source/sgl_core.c ****  * @param val integer to append
 550:../source/sgl_core.c ****  * @param width alignment width (0 means no alignment)
 551:../source/sgl_core.c ****  * @param left_align whether to use left alignment (true: left, false: right)
 552:../source/sgl_core.c ****  */
 553:../source/sgl_core.c **** static inline void append_int(char *buf, size_t size, size_t *pos, int val, int width, bool left_al
 554:../source/sgl_core.c **** {
 555:../source/sgl_core.c ****     char tmp[64];
 556:../source/sgl_core.c ****     int i = 0;
 557:../source/sgl_core.c ****     bool neg = val < 0;
 558:../source/sgl_core.c ****     size_t num_len = int_str_len(val);
GAS LISTING C:\Users\lsw\AppData\Local\Temp\ccdBfdv6.s 			page 11


 559:../source/sgl_core.c ****     size_t pad_len = 0;
 560:../source/sgl_core.c **** 
 561:../source/sgl_core.c ****     if (width > 0 && (size_t)width > num_len) {
 562:../source/sgl_core.c ****         pad_len = (size_t)width - num_len;
 563:../source/sgl_core.c ****     }
 564:../source/sgl_core.c **** 
 565:../source/sgl_core.c ****     if (!left_align && pad_len > 0) {
 566:../source/sgl_core.c ****         pad_align(buf, size, pos, pad_len, ' ');
 567:../source/sgl_core.c ****     }
 568:../source/sgl_core.c **** 
 569:../source/sgl_core.c ****     if (neg) val = -val;
 570:../source/sgl_core.c **** 
 571:../source/sgl_core.c ****     do {
 572:../source/sgl_core.c ****         tmp[i++] = '0' + (val % 10);
 573:../source/sgl_core.c ****         val /= 10;
 574:../source/sgl_core.c ****     } while (val);
 575:../source/sgl_core.c **** 
 576:../source/sgl_core.c ****     if (neg) tmp[i++] = '-';
 577:../source/sgl_core.c **** 
 578:../source/sgl_core.c ****     while (i--) append_char(buf, size, pos, tmp[i]);
 579:../source/sgl_core.c **** 
 580:../source/sgl_core.c ****     if (left_align && pad_len > 0) {
 581:../source/sgl_core.c ****         pad_align(buf, size, pos, pad_len, ' ');
 582:../source/sgl_core.c ****     }
 583:../source/sgl_core.c **** }
 584:../source/sgl_core.c **** 
 585:../source/sgl_core.c **** /**
 586:../source/sgl_core.c ****  * @brief append a hexadecimal number to the buffer
 587:../source/sgl_core.c ****  * @param buf buffer
 588:../source/sgl_core.c ****  * @param size buffer size
 589:../source/sgl_core.c ****  * @param pos current position
 590:../source/sgl_core.c ****  * @param val hexadecimal number to append
 591:../source/sgl_core.c ****  * @param upper whether to use uppercase letters
 592:../source/sgl_core.c ****  */
 593:../source/sgl_core.c **** static inline void append_hex(char *buf, size_t size, size_t *pos, unsigned int val, bool upper)
 594:../source/sgl_core.c **** {
 595:../source/sgl_core.c ****     char tmp[32];
 596:../source/sgl_core.c ****     int i = 0;
 597:../source/sgl_core.c ****     const char *digits = upper ? "0123456789ABCDEF" : "0123456789abcdef";
 598:../source/sgl_core.c **** 
 599:../source/sgl_core.c ****     do {
 600:../source/sgl_core.c ****         tmp[i++] = digits[val & 0xF];
 601:../source/sgl_core.c ****         val >>= 4;
 602:../source/sgl_core.c ****     } while (val);
 603:../source/sgl_core.c **** 
 604:../source/sgl_core.c ****     while (i--) append_char(buf, size, pos, tmp[i]);
 605:../source/sgl_core.c **** }
 606:../source/sgl_core.c **** 
 607:../source/sgl_core.c **** /**
 608:../source/sgl_core.c ****  * @brief append a float to the buffer
 609:../source/sgl_core.c ****  * @param buf buffer
 610:../source/sgl_core.c ****  * @param size buffer size
 611:../source/sgl_core.c ****  * @param pos current position
 612:../source/sgl_core.c ****  * @param val float to append
 613:../source/sgl_core.c ****  * @param precision number of decimal places (-1 for default of 6)
 614:../source/sgl_core.c ****  */
 615:../source/sgl_core.c **** static void append_float(char *buf, size_t size, size_t *pos, double val, int precision)
GAS LISTING C:\Users\lsw\AppData\Local\Temp\ccdBfdv6.s 			page 12


 616:../source/sgl_core.c **** {
 617:../source/sgl_core.c ****     int int_part = (int)val;
 618:../source/sgl_core.c ****     double frac = val - int_part;
 619:../source/sgl_core.c ****     
 620:../source/sgl_core.c ****     if (val < 0) {
 621:../source/sgl_core.c ****         append_char(buf, size, pos, '-');
 622:../source/sgl_core.c ****         int_part = -int_part;
 623:../source/sgl_core.c ****         frac = -frac;
 624:../source/sgl_core.c ****     }
 625:../source/sgl_core.c **** 
 626:../source/sgl_core.c ****     append_int(buf, size, pos, int_part, 0, false);
 627:../source/sgl_core.c ****     append_char(buf, size, pos, '.');
 628:../source/sgl_core.c **** 
 629:../source/sgl_core.c ****     int prec = (precision >= 0) ? precision : 6;
 630:../source/sgl_core.c ****     for (int i = 0; i < prec; i++) {
 631:../source/sgl_core.c ****         frac *= 10;
 632:../source/sgl_core.c ****         int d = (int)frac;
 633:../source/sgl_core.c ****         append_char(buf, size, pos, '0' + d);
 634:../source/sgl_core.c ****         frac -= d;
 635:../source/sgl_core.c ****     }
 636:../source/sgl_core.c **** }
 637:../source/sgl_core.c **** 
 638:../source/sgl_core.c **** /**
 639:../source/sgl_core.c ****  * @brief format a string, a simple version of vsnprintf (with width alignment support)
 640:../source/sgl_core.c ****  * @param buf buffer
 641:../source/sgl_core.c ****  * @param size buffer size
 642:../source/sgl_core.c ****  * @param fmt format string
 643:../source/sgl_core.c ****  * @param ap argument list
 644:../source/sgl_core.c ****  * @return number of characters written
 645:../source/sgl_core.c ****  */
 646:../source/sgl_core.c **** int sgl_vsnprintf(char *buf, size_t size, const char *fmt, va_list ap)
 647:../source/sgl_core.c **** {
 648:../source/sgl_core.c ****     size_t pos = 0;
 649:../source/sgl_core.c **** 
 650:../source/sgl_core.c ****     while (*fmt) {
 651:../source/sgl_core.c ****         char c = *fmt;
 652:../source/sgl_core.c **** 
 653:../source/sgl_core.c ****         if (c != '%') {
 654:../source/sgl_core.c ****             append_char(buf, size, &pos, c);
 655:../source/sgl_core.c ****             fmt++;
 656:../source/sgl_core.c ****             continue;
 657:../source/sgl_core.c ****         }
 658:../source/sgl_core.c **** 
 659:../source/sgl_core.c ****         fmt++;
 660:../source/sgl_core.c ****         bool left_align = false;
 661:../source/sgl_core.c ****         int width = 0;
 662:../source/sgl_core.c ****         int precision = -1;
 663:../source/sgl_core.c **** 
 664:../source/sgl_core.c ****         if (*fmt == '-') {
 665:../source/sgl_core.c ****             left_align = true;
 666:../source/sgl_core.c ****             fmt++;
 667:../source/sgl_core.c ****         }
 668:../source/sgl_core.c **** 
 669:../source/sgl_core.c ****         while (*fmt >= '0' && *fmt <= '9') {
 670:../source/sgl_core.c ****             width = width * 10 + (*fmt - '0');
 671:../source/sgl_core.c ****             fmt++;
 672:../source/sgl_core.c ****         }
GAS LISTING C:\Users\lsw\AppData\Local\Temp\ccdBfdv6.s 			page 13


 673:../source/sgl_core.c **** 
 674:../source/sgl_core.c ****         if (*fmt == '.') {
 675:../source/sgl_core.c ****             fmt++;
 676:../source/sgl_core.c ****             precision = 0;
 677:../source/sgl_core.c ****             while (*fmt >= '0' && *fmt <= '9') {
 678:../source/sgl_core.c ****                 precision = precision * 10 + (*fmt - '0');
 679:../source/sgl_core.c ****                 fmt++;
 680:../source/sgl_core.c ****             }
 681:../source/sgl_core.c ****         }
 682:../source/sgl_core.c **** 
 683:../source/sgl_core.c ****         char spec = *fmt;
 684:../source/sgl_core.c ****         switch (spec) {
 685:../source/sgl_core.c ****         case 's': {
 686:../source/sgl_core.c ****             const char *s = va_arg(ap, const char*);
 687:../source/sgl_core.c ****             append_str(buf, size, &pos, s);
 688:../source/sgl_core.c ****             break;
 689:../source/sgl_core.c ****         }
 690:../source/sgl_core.c **** 
 691:../source/sgl_core.c ****         case 'd': {
 692:../source/sgl_core.c ****             int d = va_arg(ap, int);
 693:../source/sgl_core.c ****             append_int(buf, size, &pos, d, width, left_align);
 694:../source/sgl_core.c ****             break;
 695:../source/sgl_core.c ****         }
 696:../source/sgl_core.c **** 
 697:../source/sgl_core.c ****         case 'x': {
 698:../source/sgl_core.c ****             unsigned int x = va_arg(ap, unsigned int);
 699:../source/sgl_core.c ****             append_hex(buf, size, &pos, x, false);
 700:../source/sgl_core.c ****             break;
 701:../source/sgl_core.c ****         }
 702:../source/sgl_core.c **** 
 703:../source/sgl_core.c ****         case 'X': {
 704:../source/sgl_core.c ****             unsigned int x = va_arg(ap, unsigned int);
 705:../source/sgl_core.c ****             append_hex(buf, size, &pos, x, true);
 706:../source/sgl_core.c ****             break;
 707:../source/sgl_core.c ****         }
 708:../source/sgl_core.c **** 
 709:../source/sgl_core.c ****         case 'f': {
 710:../source/sgl_core.c ****             double f = va_arg(ap, double);
 711:../source/sgl_core.c ****             append_float(buf, size, &pos, f, precision);
 712:../source/sgl_core.c ****             break;
 713:../source/sgl_core.c ****         }
 714:../source/sgl_core.c **** 
 715:../source/sgl_core.c ****         case 'c': {
 716:../source/sgl_core.c ****             char ch = (char)va_arg(ap, int);
 717:../source/sgl_core.c ****             append_char(buf, size, &pos, ch);
 718:../source/sgl_core.c ****             break;
 719:../source/sgl_core.c ****         }
 720:../source/sgl_core.c **** 
 721:../source/sgl_core.c ****         case '%': {
 722:../source/sgl_core.c ****             append_char(buf, size, &pos, '%');
 723:../source/sgl_core.c ****             break;
 724:../source/sgl_core.c ****         }
 725:../source/sgl_core.c **** 
 726:../source/sgl_core.c ****         default:
 727:../source/sgl_core.c ****             append_char(buf, size, &pos, '%');
 728:../source/sgl_core.c ****             append_char(buf, size, &pos, spec);
 729:../source/sgl_core.c ****             break;
GAS LISTING C:\Users\lsw\AppData\Local\Temp\ccdBfdv6.s 			page 14


 730:../source/sgl_core.c ****         }
 731:../source/sgl_core.c **** 
 732:../source/sgl_core.c ****         fmt++;
 733:../source/sgl_core.c ****     }
 734:../source/sgl_core.c **** 
 735:../source/sgl_core.c ****     if (size > 0) {
 736:../source/sgl_core.c ****         buf[(pos < size) ? pos : (size - 1)] = '\0';
 737:../source/sgl_core.c ****     }
 738:../source/sgl_core.c **** 
 739:../source/sgl_core.c ****     return (int)pos;
 740:../source/sgl_core.c **** }
 741:../source/sgl_core.c **** 
 742:../source/sgl_core.c **** /**
 743:../source/sgl_core.c ****  * @brief format a string, a simple version of snprintf (with width alignment support)
 744:../source/sgl_core.c ****  * @param buf buffer
 745:../source/sgl_core.c ****  * @param size buffer size
 746:../source/sgl_core.c ****  * @param fmt format string
 747:../source/sgl_core.c ****  * @param ... arguments
 748:../source/sgl_core.c ****  * @return number of characters written
 749:../source/sgl_core.c ****  */
 750:../source/sgl_core.c **** int sgl_snprintf(char *buf, size_t size, const char *fmt, ...)
 751:../source/sgl_core.c **** {
 752:../source/sgl_core.c ****     va_list ap;
 753:../source/sgl_core.c ****     va_start(ap, fmt);
 754:../source/sgl_core.c ****     int ret = sgl_vsnprintf(buf, size, fmt, ap);
 755:../source/sgl_core.c ****     va_end(ap);
 756:../source/sgl_core.c ****     return ret;
 757:../source/sgl_core.c **** }
 758:../source/sgl_core.c **** 
 759:../source/sgl_core.c **** 
 760:../source/sgl_core.c **** /**
 761:../source/sgl_core.c ****  * @brief register the frame buffer device
 762:../source/sgl_core.c ****  * @param fbinfo the frame buffer device information
 763:../source/sgl_core.c ****  * @return int, 0 if success, -1 if failed
 764:../source/sgl_core.c ****  * @note you must check the result of this function
 765:../source/sgl_core.c ****  */
 766:../source/sgl_core.c **** int sgl_fbdev_register(sgl_fbinfo_t *fbinfo)
 767:../source/sgl_core.c **** {
 768:../source/sgl_core.c ****     if (fbinfo == NULL) {
 769:../source/sgl_core.c ****         SGL_LOG_ERROR("You haven't set up the frame buffer device.");
 770:../source/sgl_core.c ****         SGL_ASSERT(0);
 771:../source/sgl_core.c ****         return -1;
 772:../source/sgl_core.c ****     }
 773:../source/sgl_core.c **** 
 774:../source/sgl_core.c ****     if (fbinfo->buffer[0] == NULL) {
 775:../source/sgl_core.c ****         SGL_LOG_ERROR("You haven't set up the frame buffer.");
 776:../source/sgl_core.c ****         SGL_ASSERT(0);
 777:../source/sgl_core.c ****         return -1;
 778:../source/sgl_core.c ****     }
 779:../source/sgl_core.c **** 
 780:../source/sgl_core.c ****     if (fbinfo->flush_area == NULL) {
 781:../source/sgl_core.c ****         SGL_LOG_ERROR("You haven't set up the flush area.");
 782:../source/sgl_core.c ****         SGL_ASSERT(0);
 783:../source/sgl_core.c ****         return -1;
 784:../source/sgl_core.c ****     }
 785:../source/sgl_core.c **** 
 786:../source/sgl_core.c ****     if (fbinfo->buffer_size == 0) {
GAS LISTING C:\Users\lsw\AppData\Local\Temp\ccdBfdv6.s 			page 15


 787:../source/sgl_core.c ****         SGL_LOG_ERROR("You haven't set up the frame buffer size.");
 788:../source/sgl_core.c ****         SGL_ASSERT(0);
 789:../source/sgl_core.c ****         return -1;
 790:../source/sgl_core.c ****     }
 791:../source/sgl_core.c **** 
 792:../source/sgl_core.c ****     sgl_system.fbdev.fbinfo = *fbinfo;
 793:../source/sgl_core.c **** 
 794:../source/sgl_core.c ****     sgl_system.fbdev.surf.buffer = (sgl_color_t*)fbinfo->buffer[0];
 795:../source/sgl_core.c ****     sgl_system.fbdev.surf.x1 = 0;
 796:../source/sgl_core.c ****     sgl_system.fbdev.surf.y1 = 0;
 797:../source/sgl_core.c ****     sgl_system.fbdev.surf.x2 = fbinfo->xres - 1;
 798:../source/sgl_core.c ****     sgl_system.fbdev.surf.y2 = fbinfo->yres - 1;
 799:../source/sgl_core.c ****     sgl_system.fbdev.surf.size = fbinfo->buffer_size;
 800:../source/sgl_core.c ****     sgl_system.fbdev.surf.w = fbinfo->xres;
 801:../source/sgl_core.c **** 
 802:../source/sgl_core.c ****     sgl_system.tick_ms = 0;
 803:../source/sgl_core.c ****     sgl_system.fbdev.fb_status = 3;
 804:../source/sgl_core.c ****     sgl_system.fbdev.fb_swap = 0;
 805:../source/sgl_core.c **** 
 806:../source/sgl_core.c ****     return 0;
 807:../source/sgl_core.c **** }
 808:../source/sgl_core.c **** 
 809:../source/sgl_core.c **** 
 810:../source/sgl_core.c **** /**
 811:../source/sgl_core.c ****  * @brief get pixmap format bits
 812:../source/sgl_core.c ****  * @param pixmap pointer to pixmap
 813:../source/sgl_core.c ****  * @return pixmap bits of per pixel
 814:../source/sgl_core.c ****  */
 815:../source/sgl_core.c **** uint8_t sgl_pixmal_get_bits(const sgl_pixmap_t *pixmap)
 816:../source/sgl_core.c **** {
 817:../source/sgl_core.c ****     SGL_ASSERT(pixmap != NULL);
 818:../source/sgl_core.c ****     uint8_t bits = 0;
 819:../source/sgl_core.c ****     switch (pixmap->format)
 820:../source/sgl_core.c ****     {
 821:../source/sgl_core.c ****     case SGL_PIXMAP_FMT_NONE:
 822:../source/sgl_core.c ****         bits = sizeof(sgl_color_t); break;
 823:../source/sgl_core.c ****     case SGL_PIXMAP_FMT_RGB332:
 824:../source/sgl_core.c ****     case SGL_PIXMAP_FMT_RLE_RGB332:
 825:../source/sgl_core.c ****         bits = 1; break;
 826:../source/sgl_core.c ****     case SGL_PIXMAP_FMT_RGB565:
 827:../source/sgl_core.c ****     case SGL_PIXMAP_FMT_RLE_RGB565:
 828:../source/sgl_core.c ****         bits = 2; break;
 829:../source/sgl_core.c ****     case SGL_PIXMAP_FMT_RGB888:
 830:../source/sgl_core.c ****     case SGL_PIXMAP_FMT_RLE_RGB888:
 831:../source/sgl_core.c ****         bits = 3; break;
 832:../source/sgl_core.c ****     case SGL_PIXMAP_FMT_RLE_RGBA8888:
 833:../source/sgl_core.c ****         bits = 4; break;
 834:../source/sgl_core.c ****     default:
 835:../source/sgl_core.c ****         SGL_LOG_ERROR("pixmap format error");
 836:../source/sgl_core.c ****         break;
 837:../source/sgl_core.c ****     }
 838:../source/sgl_core.c ****     return bits;
 839:../source/sgl_core.c **** }
 840:../source/sgl_core.c **** 
 841:../source/sgl_core.c **** 
 842:../source/sgl_core.c **** /**
 843:../source/sgl_core.c ****  * @brief add object to parent
GAS LISTING C:\Users\lsw\AppData\Local\Temp\ccdBfdv6.s 			page 16


 844:../source/sgl_core.c ****  * @param parent: pointer of parent object
 845:../source/sgl_core.c ****  * @param obj: pointer of object
 846:../source/sgl_core.c ****  * @return none
 847:../source/sgl_core.c ****  */
 848:../source/sgl_core.c **** void sgl_obj_add_child(sgl_obj_t *parent, sgl_obj_t *obj)
 849:../source/sgl_core.c **** {
 850:../source/sgl_core.c ****     SGL_ASSERT(parent != NULL && obj != NULL);
 851:../source/sgl_core.c ****     sgl_obj_t *tail = parent->child;
 852:../source/sgl_core.c **** 
 853:../source/sgl_core.c ****     if (parent->child) {
 854:../source/sgl_core.c ****         while (tail->sibling != NULL) {
 855:../source/sgl_core.c ****             tail = tail->sibling;
 856:../source/sgl_core.c ****         };
 857:../source/sgl_core.c ****         tail->sibling = obj;
 858:../source/sgl_core.c ****     }
 859:../source/sgl_core.c ****     else {
 860:../source/sgl_core.c ****         parent->child = obj;
 861:../source/sgl_core.c ****     }
 862:../source/sgl_core.c **** 
 863:../source/sgl_core.c ****     obj->parent = parent;
 864:../source/sgl_core.c **** }
 865:../source/sgl_core.c **** 
 866:../source/sgl_core.c **** 
 867:../source/sgl_core.c **** /**
 868:../source/sgl_core.c ****  * @brief remove an object from its parent
 869:../source/sgl_core.c ****  * @param obj object to remove
 870:../source/sgl_core.c ****  * @return none
 871:../source/sgl_core.c ****  */
 872:../source/sgl_core.c **** void sgl_obj_remove(sgl_obj_t *obj)
 873:../source/sgl_core.c **** {
 874:../source/sgl_core.c ****     SGL_ASSERT(obj != NULL);
 875:../source/sgl_core.c **** 
 876:../source/sgl_core.c ****     sgl_obj_t *parent = obj->parent;
 877:../source/sgl_core.c ****     sgl_obj_t *pos = NULL;
 878:../source/sgl_core.c **** 
 879:../source/sgl_core.c ****     if (parent->child != obj) {
 880:../source/sgl_core.c ****         pos = parent->child;
 881:../source/sgl_core.c ****         while (pos->sibling != obj) {
 882:../source/sgl_core.c ****             pos = pos->sibling;
 883:../source/sgl_core.c ****         }
 884:../source/sgl_core.c ****         pos->sibling = obj->sibling;
 885:../source/sgl_core.c ****     }
 886:../source/sgl_core.c ****     else {
 887:../source/sgl_core.c ****         parent->child = obj->sibling;
 888:../source/sgl_core.c ****     }
 889:../source/sgl_core.c **** 
 890:../source/sgl_core.c ****     obj->sibling = NULL;
 891:../source/sgl_core.c **** }
 892:../source/sgl_core.c **** 
 893:../source/sgl_core.c **** 
 894:../source/sgl_core.c **** /**
 895:../source/sgl_core.c ****  * @brief move object child position
 896:../source/sgl_core.c ****  * @param obj point to object
 897:../source/sgl_core.c ****  * @param ofs_x: x offset position
 898:../source/sgl_core.c ****  * @param ofs_y: y offset position
 899:../source/sgl_core.c ****  * @return none
 900:../source/sgl_core.c ****  */
GAS LISTING C:\Users\lsw\AppData\Local\Temp\ccdBfdv6.s 			page 17


 901:../source/sgl_core.c **** void sgl_obj_move_child_pos(sgl_obj_t *obj, int16_t ofs_x, int16_t ofs_y)
 902:../source/sgl_core.c **** {
 903:../source/sgl_core.c ****     SGL_ASSERT(obj != NULL);
 904:../source/sgl_core.c **** 	sgl_obj_t *stack[SGL_OBJ_DEPTH_MAX];
 905:../source/sgl_core.c ****     int top = 0;
 906:../source/sgl_core.c **** 
 907:../source/sgl_core.c ****     if (obj->child == NULL) {
 908:../source/sgl_core.c ****         return;
 909:../source/sgl_core.c ****     }
 910:../source/sgl_core.c ****     stack[top++] = obj->child;
 911:../source/sgl_core.c **** 
 912:../source/sgl_core.c ****     while (top > 0) {
 913:../source/sgl_core.c **** 		SGL_ASSERT(top < SGL_OBJ_DEPTH_MAX);
 914:../source/sgl_core.c **** 		obj = stack[--top];
 915:../source/sgl_core.c **** 
 916:../source/sgl_core.c ****         obj->dirty = 1;
 917:../source/sgl_core.c ****         obj->coords.x1 += ofs_x;
 918:../source/sgl_core.c ****         obj->coords.x2 += ofs_x;
 919:../source/sgl_core.c ****         obj->coords.y1 += ofs_y;
 920:../source/sgl_core.c ****         obj->coords.y2 += ofs_y;
 921:../source/sgl_core.c **** 
 922:../source/sgl_core.c **** 		if (obj->sibling != NULL) {
 923:../source/sgl_core.c **** 			stack[top++] = obj->sibling;
 924:../source/sgl_core.c **** 		}
 925:../source/sgl_core.c **** 
 926:../source/sgl_core.c **** 		if (obj->child != NULL) {
 927:../source/sgl_core.c **** 			stack[top++] = obj->child;
 928:../source/sgl_core.c **** 		}
 929:../source/sgl_core.c ****     }
 930:../source/sgl_core.c **** }
 931:../source/sgl_core.c **** 
 932:../source/sgl_core.c **** 
 933:../source/sgl_core.c **** /**
 934:../source/sgl_core.c ****  * @brief Set object absolute position
 935:../source/sgl_core.c ****  * @param obj point to object
 936:../source/sgl_core.c ****  * @param abs_x: x absolute position
 937:../source/sgl_core.c ****  * @param abs_y: y absolute position
 938:../source/sgl_core.c ****  * @return none
 939:../source/sgl_core.c ****  */
 940:../source/sgl_core.c **** void sgl_obj_set_abs_pos(sgl_obj_t *obj, int16_t abs_x, int16_t abs_y)
 941:../source/sgl_core.c **** {
 942:../source/sgl_core.c ****     SGL_ASSERT(obj != NULL);
 943:../source/sgl_core.c ****     int16_t x_diff = abs_x - obj->coords.x1;
 944:../source/sgl_core.c ****     int16_t y_diff = abs_y - obj->coords.y1;
 945:../source/sgl_core.c **** 
 946:../source/sgl_core.c ****     obj->dirty = 1;
 947:../source/sgl_core.c ****     obj->coords.x1 += x_diff;
 948:../source/sgl_core.c ****     obj->coords.x2 += x_diff;
 949:../source/sgl_core.c ****     obj->coords.y1 += y_diff;
 950:../source/sgl_core.c ****     obj->coords.y2 += y_diff;
 951:../source/sgl_core.c **** 
 952:../source/sgl_core.c ****     sgl_obj_move_child_pos(obj, x_diff, y_diff);
 953:../source/sgl_core.c **** }
 954:../source/sgl_core.c **** 
 955:../source/sgl_core.c **** 
 956:../source/sgl_core.c **** /**
 957:../source/sgl_core.c ****  * @brief zoom object size
GAS LISTING C:\Users\lsw\AppData\Local\Temp\ccdBfdv6.s 			page 18


 958:../source/sgl_core.c ****  * @param obj point to object
 959:../source/sgl_core.c ****  * @param zoom zoom size
 960:../source/sgl_core.c ****  * @return none
 961:../source/sgl_core.c ****  * @note if you want to zoom out, the zoom should be positive, if you want to zoom in, the zoom sho
 962:../source/sgl_core.c ****  */
 963:../source/sgl_core.c **** void sgl_obj_size_zoom(sgl_obj_t *obj, int16_t zoom)
 964:../source/sgl_core.c **** {
 965:../source/sgl_core.c ****     SGL_ASSERT(obj != NULL);
 966:../source/sgl_core.c ****     obj->coords.x1 -= zoom;
 967:../source/sgl_core.c ****     obj->coords.x2 += zoom;
 968:../source/sgl_core.c ****     obj->coords.y1 -= zoom;
 969:../source/sgl_core.c ****     obj->coords.y2 += zoom;
 970:../source/sgl_core.c **** }
 971:../source/sgl_core.c **** 
 972:../source/sgl_core.c **** 
 973:../source/sgl_core.c **** /**
 974:../source/sgl_core.c ****  * @brief move object up a level layout
 975:../source/sgl_core.c ****  * @param obj point to object
 976:../source/sgl_core.c ****  * @return none
 977:../source/sgl_core.c ****  * @note Only move among sibling objects
 978:../source/sgl_core.c ****  */
 979:../source/sgl_core.c **** void sgl_obj_move_up(sgl_obj_t *obj)
 980:../source/sgl_core.c **** {
 981:../source/sgl_core.c ****     SGL_ASSERT(obj != NULL);
 982:../source/sgl_core.c ****     sgl_obj_t *parent = obj->parent;
 983:../source/sgl_core.c ****     sgl_obj_t *prev = NULL;
 984:../source/sgl_core.c ****     sgl_obj_t *next = NULL;
 985:../source/sgl_core.c **** 
 986:../source/sgl_core.c ****     /* if the object is the last child, do not move it */
 987:../source/sgl_core.c ****     if (obj->sibling == NULL) {
 988:../source/sgl_core.c ****         return;
 989:../source/sgl_core.c ****     }
 990:../source/sgl_core.c ****     else if (parent->child == obj) {
 991:../source/sgl_core.c ****         parent->child = obj->sibling;
 992:../source/sgl_core.c ****         obj->sibling = obj->sibling->sibling;
 993:../source/sgl_core.c ****         /* mark object as dirty */
 994:../source/sgl_core.c ****         sgl_obj_set_dirty(obj);
 995:../source/sgl_core.c ****         return;
 996:../source/sgl_core.c ****     }
 997:../source/sgl_core.c **** 
 998:../source/sgl_core.c ****     /* move the object to its next sibling */
 999:../source/sgl_core.c ****     sgl_obj_for_each_child(prev, parent) {
1000:../source/sgl_core.c ****         if (prev->sibling == obj) {
1001:../source/sgl_core.c ****             next = obj->sibling;
1002:../source/sgl_core.c ****             obj->sibling = next->sibling;
1003:../source/sgl_core.c ****             prev->sibling = next;
1004:../source/sgl_core.c ****             next->sibling = obj;
1005:../source/sgl_core.c ****             /* mark object as dirty */
1006:../source/sgl_core.c ****             sgl_obj_set_dirty(obj);
1007:../source/sgl_core.c ****             return;
1008:../source/sgl_core.c ****         }
1009:../source/sgl_core.c ****     }
1010:../source/sgl_core.c **** }
1011:../source/sgl_core.c **** 
1012:../source/sgl_core.c **** 
1013:../source/sgl_core.c **** /**
1014:../source/sgl_core.c ****  * @brief move object down a level layout
GAS LISTING C:\Users\lsw\AppData\Local\Temp\ccdBfdv6.s 			page 19


1015:../source/sgl_core.c ****  * @param obj point to object
1016:../source/sgl_core.c ****  * @return none
1017:../source/sgl_core.c ****  * @note Only move among sibling objects
1018:../source/sgl_core.c ****  */
1019:../source/sgl_core.c **** void sgl_obj_move_down(sgl_obj_t *obj)
1020:../source/sgl_core.c **** {
1021:../source/sgl_core.c ****     SGL_ASSERT(obj != NULL);
1022:../source/sgl_core.c ****     sgl_obj_t *parent = obj->parent;
1023:../source/sgl_core.c ****     sgl_obj_t *prev = NULL;
1024:../source/sgl_core.c ****     sgl_obj_t *gprev = NULL;
1025:../source/sgl_core.c **** 
1026:../source/sgl_core.c ****     /* if the object is the first child, do not move it */
1027:../source/sgl_core.c ****     if (parent->child == obj || obj->sibling == NULL) {
1028:../source/sgl_core.c ****         return;
1029:../source/sgl_core.c ****     }
1030:../source/sgl_core.c ****     else if (parent->child->sibling == obj) {
1031:../source/sgl_core.c ****         parent->child->sibling = obj->sibling;
1032:../source/sgl_core.c ****         obj->sibling = parent->child;
1033:../source/sgl_core.c ****         parent->child = obj;
1034:../source/sgl_core.c ****         /* mark object as dirty */
1035:../source/sgl_core.c ****         sgl_obj_set_dirty(obj);
1036:../source/sgl_core.c ****         return;
1037:../source/sgl_core.c ****     }
1038:../source/sgl_core.c **** 
1039:../source/sgl_core.c ****     /* move the object to its prev sibling */
1040:../source/sgl_core.c ****     sgl_obj_for_each_child(gprev, parent) {
1041:../source/sgl_core.c ****         prev = gprev->sibling;
1042:../source/sgl_core.c **** 
1043:../source/sgl_core.c ****         if (prev->sibling == obj) {
1044:../source/sgl_core.c ****             prev->sibling = obj->sibling;
1045:../source/sgl_core.c ****             gprev->sibling = obj;
1046:../source/sgl_core.c ****             obj->sibling = prev;
1047:../source/sgl_core.c ****             /* mark object as dirty */
1048:../source/sgl_core.c ****             sgl_obj_set_dirty(obj);
1049:../source/sgl_core.c ****             return;
1050:../source/sgl_core.c ****         }
1051:../source/sgl_core.c ****     }
1052:../source/sgl_core.c **** }
1053:../source/sgl_core.c **** 
1054:../source/sgl_core.c **** 
1055:../source/sgl_core.c **** /**
1056:../source/sgl_core.c ****  * @brief move object top level layout
1057:../source/sgl_core.c ****  * @param obj point to object
1058:../source/sgl_core.c ****  * @return none
1059:../source/sgl_core.c ****  * @note Only move among sibling objects
1060:../source/sgl_core.c ****  */
1061:../source/sgl_core.c **** void sgl_obj_move_top(sgl_obj_t *obj)
1062:../source/sgl_core.c **** {
1063:../source/sgl_core.c ****     SGL_ASSERT(obj != NULL && obj->parent != NULL);
1064:../source/sgl_core.c **** 
1065:../source/sgl_core.c ****     sgl_obj_t *parent = obj->parent;
1066:../source/sgl_core.c ****     sgl_obj_t *prev = NULL, *curr = parent->child, *last = NULL;
1067:../source/sgl_core.c **** 
1068:../source/sgl_core.c ****     /* if the object is the last child, do not move it */
1069:../source/sgl_core.c ****     if (obj->sibling == NULL) {
1070:../source/sgl_core.c ****         return;
1071:../source/sgl_core.c ****     }
GAS LISTING C:\Users\lsw\AppData\Local\Temp\ccdBfdv6.s 			page 20


1072:../source/sgl_core.c **** 
1073:../source/sgl_core.c ****     while (curr != NULL && curr != obj) {
1074:../source/sgl_core.c ****         prev = curr;
1075:../source/sgl_core.c ****         curr = curr->sibling;
1076:../source/sgl_core.c ****     }
1077:../source/sgl_core.c **** 
1078:../source/sgl_core.c ****     if (prev == NULL) {
1079:../source/sgl_core.c ****         parent->child = obj->sibling;
1080:../source/sgl_core.c ****     }
1081:../source/sgl_core.c ****     else {
1082:../source/sgl_core.c ****         prev->sibling = obj->sibling;
1083:../source/sgl_core.c ****     }
1084:../source/sgl_core.c **** 
1085:../source/sgl_core.c ****     last = parent->child;
1086:../source/sgl_core.c ****     if (last == NULL) {
1087:../source/sgl_core.c ****         parent->child = obj;
1088:../source/sgl_core.c ****         obj->sibling = NULL;
1089:../source/sgl_core.c ****     }
1090:../source/sgl_core.c ****     else {
1091:../source/sgl_core.c ****         while (last->sibling != NULL) {
1092:../source/sgl_core.c ****             last = last->sibling;
1093:../source/sgl_core.c ****         }
1094:../source/sgl_core.c ****         last->sibling = obj;
1095:../source/sgl_core.c ****         obj->sibling = NULL;
1096:../source/sgl_core.c ****     }
1097:../source/sgl_core.c **** 
1098:../source/sgl_core.c ****     sgl_obj_set_dirty(obj);
1099:../source/sgl_core.c **** }
1100:../source/sgl_core.c **** 
1101:../source/sgl_core.c **** 
1102:../source/sgl_core.c **** /**
1103:../source/sgl_core.c ****  * @brief move object bottom level layout
1104:../source/sgl_core.c ****  * @param obj point to object
1105:../source/sgl_core.c ****  * @return none
1106:../source/sgl_core.c ****  * @note Only move among sibling objects
1107:../source/sgl_core.c ****  */
1108:../source/sgl_core.c **** void sgl_obj_move_bottom(sgl_obj_t *obj)
1109:../source/sgl_core.c **** {
1110:../source/sgl_core.c ****     SGL_ASSERT(obj != NULL);
1111:../source/sgl_core.c ****     sgl_obj_t *parent = obj->parent;
1112:../source/sgl_core.c ****     sgl_obj_t *prev = NULL;
1113:../source/sgl_core.c **** 
1114:../source/sgl_core.c ****     /* if the object is the first child, do not move it */
1115:../source/sgl_core.c ****     if (parent->child == obj) {
1116:../source/sgl_core.c ****         return;
1117:../source/sgl_core.c ****     }
1118:../source/sgl_core.c **** 
1119:../source/sgl_core.c ****     sgl_obj_for_each_child(prev, parent) {
1120:../source/sgl_core.c ****         if (prev->sibling == obj) {
1121:../source/sgl_core.c ****             break;
1122:../source/sgl_core.c ****         }
1123:../source/sgl_core.c ****     }
1124:../source/sgl_core.c **** 
1125:../source/sgl_core.c ****     prev->sibling = obj->sibling;
1126:../source/sgl_core.c ****     obj->sibling = parent->child;
1127:../source/sgl_core.c ****     parent->child = obj;
1128:../source/sgl_core.c ****     /* mark object as dirty */
GAS LISTING C:\Users\lsw\AppData\Local\Temp\ccdBfdv6.s 			page 21


1129:../source/sgl_core.c ****     sgl_obj_set_dirty(obj);
1130:../source/sgl_core.c **** }
1131:../source/sgl_core.c **** 
1132:../source/sgl_core.c **** 
1133:../source/sgl_core.c **** /**
1134:../source/sgl_core.c ****  * @brief get fix radius of object
1135:../source/sgl_core.c ****  * @param obj object
1136:../source/sgl_core.c ****  * @param radius: radius that you want to set
1137:../source/sgl_core.c ****  * @return none
1138:../source/sgl_core.c ****  * @note if radius is larger than object's width or height, fix radius will be returned
1139:../source/sgl_core.c ****  */
1140:../source/sgl_core.c **** void sgl_obj_set_radius(sgl_obj_t *obj, size_t radius)
1141:../source/sgl_core.c **** {
1142:../source/sgl_core.c ****     int16_t w = (obj->coords.x2 - obj->coords.x1 + 1);
1143:../source/sgl_core.c ****     int16_t h = (obj->coords.y2 - obj->coords.y1 + 1);
1144:../source/sgl_core.c ****     int16_t d_min = w > h ? h : w;
1145:../source/sgl_core.c **** 
1146:../source/sgl_core.c ****     if ((int16_t)radius >= (d_min / 2)) {
1147:../source/sgl_core.c ****         radius = sgl_is_odd(d_min) ? d_min / 2 : (d_min - 1) / 2;
1148:../source/sgl_core.c ****     }
1149:../source/sgl_core.c **** 
1150:../source/sgl_core.c ****     obj->radius = radius & 0xFFF;
1151:../source/sgl_core.c **** }
1152:../source/sgl_core.c **** 
1153:../source/sgl_core.c **** 
1154:../source/sgl_core.c **** #if (CONFIG_SGL_OBJ_USE_NAME && CONFIG_SGL_DEBUG)
1155:../source/sgl_core.c **** /**
1156:../source/sgl_core.c ****  * @brief print object name that include this all child
1157:../source/sgl_core.c ****  * @param obj point to object
1158:../source/sgl_core.c ****  * @return none
1159:../source/sgl_core.c ****  */
1160:../source/sgl_core.c **** void sgl_obj_print_name(sgl_obj_t *obj)
1161:../source/sgl_core.c **** {
1162:../source/sgl_core.c ****     int top = 0;
1163:../source/sgl_core.c **** 	sgl_obj_t *stack[SGL_OBJ_DEPTH_MAX];
1164:../source/sgl_core.c ****     stack[top++] = obj;
1165:../source/sgl_core.c **** 
1166:../source/sgl_core.c ****     while (top > 0) {
1167:../source/sgl_core.c **** 		SGL_ASSERT(top < SGL_OBJ_DEPTH_MAX);
1168:../source/sgl_core.c **** 		obj = stack[--top];
1169:../source/sgl_core.c **** 
1170:../source/sgl_core.c ****         if (obj->name == NULL) {
1171:../source/sgl_core.c ****             SGL_LOG_INFO("[OBJ NAME]: %s", "NULL");
1172:../source/sgl_core.c ****         }
1173:../source/sgl_core.c ****         else {
1174:../source/sgl_core.c ****             SGL_LOG_INFO("[OBJ NAME]: %s", obj->name);
1175:../source/sgl_core.c ****         }
1176:../source/sgl_core.c **** 
1177:../source/sgl_core.c **** 		if (obj->sibling != NULL) {
1178:../source/sgl_core.c **** 			stack[top++] = obj->sibling;
1179:../source/sgl_core.c **** 		}
1180:../source/sgl_core.c **** 
1181:../source/sgl_core.c **** 		if (obj->child != NULL) {
1182:../source/sgl_core.c **** 			stack[top++] = obj->child;
1183:../source/sgl_core.c **** 		}
1184:../source/sgl_core.c ****     }
1185:../source/sgl_core.c **** }
GAS LISTING C:\Users\lsw\AppData\Local\Temp\ccdBfdv6.s 			page 22


1186:../source/sgl_core.c **** 
1187:../source/sgl_core.c **** #endif
1188:../source/sgl_core.c **** 
1189:../source/sgl_core.c **** 
1190:../source/sgl_core.c **** /**
1191:../source/sgl_core.c ****  * @brief page construct callback function
1192:../source/sgl_core.c ****  * @param surf surface pointer
1193:../source/sgl_core.c ****  * @param obj page object
1194:../source/sgl_core.c ****  * @param evt event
1195:../source/sgl_core.c ****  * @return none
1196:../source/sgl_core.c ****  * @note evt not used
1197:../source/sgl_core.c ****  */
1198:../source/sgl_core.c **** static void sgl_page_construct_cb(sgl_surf_t *surf, sgl_obj_t* obj, sgl_area_t *area)
1199:../source/sgl_core.c **** {
  14              		.loc 1 1199 1 view -0
  15              		.cfi_startproc
  16              		.loc 1 1199 1 is_stmt 0 view .LVU1
  17 0000 4883EC38 		subq	$56, %rsp
  18              		.seh_stackalloc	56
  19              		.cfi_def_cfa_offset 64
  20              		.seh_endprologue
1200:../source/sgl_core.c ****     sgl_page_t *page = (sgl_page_t *)obj;
  21              		.loc 1 1200 5 is_stmt 1 view .LVU2
1199:../source/sgl_core.c ****     sgl_page_t *page = (sgl_page_t *)obj;
  22              		.loc 1 1199 1 is_stmt 0 view .LVU3
  23 0004 4889D0   		movq	%rdx, %rax
  24              	.LVL1:
1201:../source/sgl_core.c ****     const sgl_pixmap_t *pixmap = page->pixmap;
  25              		.loc 1 1201 5 is_stmt 1 view .LVU4
  26              	.LBB113:
  27              	.LBB114:
1202:../source/sgl_core.c **** 
1203:../source/sgl_core.c ****     if (pixmap == NULL) {
1204:../source/sgl_core.c ****         sgl_draw_fill_rect(surf, area, &obj->coords, page->color, SGL_ALPHA_MAX);
  28              		.loc 1 1204 9 is_stmt 0 view .LVU5
  29 0007 C7442420 		movl	$255, 32(%rsp)
  29      FF000000 
  30              	.LBE114:
  31              	.LBE113:
1199:../source/sgl_core.c ****     sgl_page_t *page = (sgl_page_t *)obj;
  32              		.loc 1 1199 1 view .LVU6
  33 000f 4C89C2   		movq	%r8, %rdx
  34              	.LVL2:
1201:../source/sgl_core.c ****     const sgl_pixmap_t *pixmap = page->pixmap;
  35              		.loc 1 1201 25 view .LVU7
  36 0012 4C8B4840 		movq	64(%rax), %r9
  37              	.LVL3:
1203:../source/sgl_core.c ****         sgl_draw_fill_rect(surf, area, &obj->coords, page->color, SGL_ALPHA_MAX);
  38              		.loc 1 1203 5 is_stmt 1 view .LVU8
1203:../source/sgl_core.c ****         sgl_draw_fill_rect(surf, area, &obj->coords, page->color, SGL_ALPHA_MAX);
  39              		.loc 1 1203 8 is_stmt 0 view .LVU9
  40 0016 4D85C9   		testq	%r9, %r9
  41 0019 7415     		je	.L5
1205:../source/sgl_core.c ****     }
1206:../source/sgl_core.c ****     else {
1207:../source/sgl_core.c ****         sgl_draw_fill_rect_pixmap(surf, area, &obj->coords, pixmap, SGL_ALPHA_MAX);
  42              		.loc 1 1207 9 is_stmt 1 view .LVU10
GAS LISTING C:\Users\lsw\AppData\Local\Temp\ccdBfdv6.s 			page 23


  43 001b 4989C0   		movq	%rax, %r8
  44              	.LVL4:
  45              		.loc 1 1207 9 is_stmt 0 view .LVU11
  46 001e E8000000 		call	sgl_draw_fill_rect_pixmap
  46      00
  47 0023 90       		nop
  48              	.LVL5:
1208:../source/sgl_core.c ****     }
1209:../source/sgl_core.c **** }
  49              		.loc 1 1209 1 view .LVU12
  50 0024 4883C438 		addq	$56, %rsp
  51              		.cfi_remember_state
  52              		.cfi_def_cfa_offset 8
  53 0028 C3       		ret
  54              	.LVL6:
  55 0029 0F1F8000 		.p2align 4,,10
  55      000000
  56              		.p2align 3
  57              	.L5:
  58              		.cfi_restore_state
  59              	.LBB116:
  60              	.LBI113:
1198:../source/sgl_core.c **** {
  61              		.loc 1 1198 13 is_stmt 1 view .LVU13
  62              	.LBB115:
1204:../source/sgl_core.c ****     }
  63              		.loc 1 1204 9 view .LVU14
  64 0030 440FB748 		movzwl	56(%rax), %r9d
  64      38
  65              	.LVL7:
1204:../source/sgl_core.c ****     }
  66              		.loc 1 1204 9 is_stmt 0 view .LVU15
  67 0035 4989C0   		movq	%rax, %r8
  68 0038 E8000000 		call	sgl_draw_fill_rect
  68      00
  69 003d 90       		nop
  70              	.LVL8:
1204:../source/sgl_core.c ****     }
  71              		.loc 1 1204 9 view .LVU16
  72              	.LBE115:
  73              	.LBE116:
  74              		.loc 1 1209 1 view .LVU17
  75 003e 4883C438 		addq	$56, %rsp
  76              		.cfi_def_cfa_offset 8
  77 0042 C3       		ret
  78              		.cfi_endproc
  79              	.LFE111:
  80              		.seh_endproc
  81 0043 90909090 		.section	.text$sgl_sin,"x"
  81      90909090 
  81      90909090 
  81      90
  82              		.p2align 4
  83              		.globl	sgl_sin
  85              		.seh_proc	sgl_sin
  86              	sgl_sin:
  87              	.LVL9:
GAS LISTING C:\Users\lsw\AppData\Local\Temp\ccdBfdv6.s 			page 24


  88              	.LFB81:
 173:../source/sgl_core.c ****     int16_t ret = 0;
  89              		.loc 1 173 1 is_stmt 1 view -0
  90              		.cfi_startproc
 173:../source/sgl_core.c ****     int16_t ret = 0;
  91              		.loc 1 173 1 is_stmt 0 view .LVU19
  92              		.seh_endprologue
 174:../source/sgl_core.c **** 
  93              		.loc 1 174 5 is_stmt 1 view .LVU20
  94              	.LVL10:
 176:../source/sgl_core.c ****         angle -= 360;
  95              		.loc 1 176 5 view .LVU21
 176:../source/sgl_core.c ****         angle -= 360;
  96              		.loc 1 176 18 view .LVU22
  97 0000 6681F967 		cmpw	$359, %cx
  97      01
 173:../source/sgl_core.c ****     int16_t ret = 0;
  98              		.loc 1 173 1 is_stmt 0 view .LVU23
  99 0005 89C8     		movl	%ecx, %eax
 176:../source/sgl_core.c ****         angle -= 360;
 100              		.loc 1 176 18 view .LVU24
 101 0007 7E4F     		jle	.L7
 102 0009 8D8898FE 		leal	-360(%rax), %ecx
 102      FFFF
 103              	.LVL11:
 176:../source/sgl_core.c ****         angle -= 360;
 104              		.loc 1 176 18 view .LVU25
 105 000f 0FB7D1   		movzwl	%cx, %edx
 106 0012 69D2832D 		imull	$11651, %edx, %edx
 106      0000
 107 0018 81E20000 		andl	$4194304, %edx
 107      4000
 108 001e 7510     		jne	.L8
 109              	.LVL12:
 177:../source/sgl_core.c ****     }
 110              		.loc 1 177 9 is_stmt 1 view .LVU26
 176:../source/sgl_core.c ****         angle -= 360;
 111              		.loc 1 176 18 is_stmt 0 view .LVU27
 112 0020 6681F967 		cmpw	$359, %cx
 112      01
 177:../source/sgl_core.c ****     }
 113              		.loc 1 177 15 view .LVU28
 114 0025 89C8     		movl	%ecx, %eax
 115              	.LVL13:
 176:../source/sgl_core.c ****         angle -= 360;
 116              		.loc 1 176 18 is_stmt 1 view .LVU29
 117 0027 7611     		jbe	.L9
 118 0029 0F1F8000 		.p2align 4,,10
 118      000000
 119              		.p2align 3
 120              	.L8:
 177:../source/sgl_core.c ****     }
 121              		.loc 1 177 9 view .LVU30
 122              	.LVL14:
 176:../source/sgl_core.c ****         angle -= 360;
 123              		.loc 1 176 18 view .LVU31
 177:../source/sgl_core.c ****     }
GAS LISTING C:\Users\lsw\AppData\Local\Temp\ccdBfdv6.s 			page 25


 124              		.loc 1 177 9 view .LVU32
 177:../source/sgl_core.c ****     }
 125              		.loc 1 177 15 is_stmt 0 view .LVU33
 126 0030 662DD002 		subw	$720, %ax
 127              	.LVL15:
 176:../source/sgl_core.c ****         angle -= 360;
 128              		.loc 1 176 18 is_stmt 1 view .LVU34
 129 0034 663D6701 		cmpw	$359, %ax
 130 0038 77F6     		ja	.L8
 131              	.L9:
 132              	.LVL16:
 183:../source/sgl_core.c ****         angle = 360 + angle;
 133              		.loc 1 183 5 view .LVU35
 187:../source/sgl_core.c ****         ret = sin0_90_table[angle];
 134              		.loc 1 187 5 view .LVU36
 187:../source/sgl_core.c ****         ret = sin0_90_table[angle];
 135              		.loc 1 187 8 is_stmt 0 view .LVU37
 136 003a 6683F859 		cmpw	$89, %ax
 137 003e 7F68     		jg	.L11
 188:../source/sgl_core.c ****     }
 138              		.loc 1 188 9 is_stmt 1 view .LVU38
 188:../source/sgl_core.c ****     }
 139              		.loc 1 188 13 is_stmt 0 view .LVU39
 140 0040 488D1500 		leaq	sin0_90_table(%rip), %rdx
 140      000000
 141 0047 480FBFC0 		movswq	%ax, %rax
 188:../source/sgl_core.c ****     }
 142              		.loc 1 188 13 view .LVU40
 143 004b 0FB70442 		movzwl	(%rdx,%rax,2), %eax
 144              	.LVL17:
 203:../source/sgl_core.c **** }
 145              		.loc 1 203 5 is_stmt 1 view .LVU41
 203:../source/sgl_core.c **** }
 146              		.loc 1 203 12 is_stmt 0 view .LVU42
 147 004f 98       		cwtl
 204:../source/sgl_core.c **** 
 148              		.loc 1 204 1 view .LVU43
 149 0050 C3       		ret
 150              	.LVL18:
 151              		.p2align 4,,10
 152 0051 0F1F8000 		.p2align 3
 152      000000
 153              	.L7:
 179:../source/sgl_core.c ****         angle += 360;
 154              		.loc 1 179 18 is_stmt 1 view .LVU44
 155 0058 6685C9   		testw	%cx, %cx
 156 005b 79DD     		jns	.L9
 157 005d 89CA     		movl	%ecx, %edx
 158 005f F7D2     		notl	%edx
 159 0061 0FB7D2   		movzwl	%dx, %edx
 160 0064 69D2832D 		imull	$11651, %edx, %edx
 160      0000
 161 006a C1EA16   		shrl	$22, %edx
 162 006d 89D1     		movl	%edx, %ecx
 163 006f 8D906801 		leal	360(%rax), %edx
 163      0000
 164 0075 83E101   		andl	$1, %ecx
GAS LISTING C:\Users\lsw\AppData\Local\Temp\ccdBfdv6.s 			page 26


 180:../source/sgl_core.c ****     }
 165              		.loc 1 180 9 view .LVU45
 179:../source/sgl_core.c ****         angle += 360;
 166              		.loc 1 179 18 is_stmt 0 view .LVU46
 167 0078 6685D2   		testw	%dx, %dx
 180:../source/sgl_core.c ****     }
 168              		.loc 1 180 15 view .LVU47
 169 007b 89D0     		movl	%edx, %eax
 170              	.LVL19:
 179:../source/sgl_core.c ****         angle += 360;
 171              		.loc 1 179 18 is_stmt 1 view .LVU48
 172 007d 79BB     		jns	.L9
 173 007f 6685C9   		testw	%cx, %cx
 174 0082 740C     		je	.L10
 180:../source/sgl_core.c ****     }
 175              		.loc 1 180 9 view .LVU49
 176 0084 6681C268 		addw	$360, %dx
 176      01
 180:../source/sgl_core.c ****     }
 177              		.loc 1 180 15 is_stmt 0 view .LVU50
 178 0089 89D0     		movl	%edx, %eax
 179              	.LVL20:
 179:../source/sgl_core.c ****         angle += 360;
 180              		.loc 1 179 18 is_stmt 1 view .LVU51
 181 008b 79AD     		jns	.L9
 182 008d 0F1F00   		.p2align 4,,10
 183              		.p2align 3
 184              	.L10:
 180:../source/sgl_core.c ****     }
 185              		.loc 1 180 9 view .LVU52
 186              	.LVL21:
 179:../source/sgl_core.c ****         angle += 360;
 187              		.loc 1 179 18 view .LVU53
 180:../source/sgl_core.c ****     }
 188              		.loc 1 180 9 view .LVU54
 189 0090 6681C2D0 		addw	$720, %dx
 189      02
 180:../source/sgl_core.c ****     }
 190              		.loc 1 180 15 is_stmt 0 view .LVU55
 191 0095 89D0     		movl	%edx, %eax
 192              	.LVL22:
 179:../source/sgl_core.c ****         angle += 360;
 193              		.loc 1 179 18 is_stmt 1 view .LVU56
 194 0097 79A1     		jns	.L9
 180:../source/sgl_core.c ****     }
 195              		.loc 1 180 9 view .LVU57
 196              	.LVL23:
 179:../source/sgl_core.c ****         angle += 360;
 197              		.loc 1 179 18 view .LVU58
 180:../source/sgl_core.c ****     }
 198              		.loc 1 180 9 view .LVU59
 199 0099 6681C2D0 		addw	$720, %dx
 199      02
 180:../source/sgl_core.c ****     }
 200              		.loc 1 180 15 is_stmt 0 view .LVU60
 201 009e 89D0     		movl	%edx, %eax
 202              	.LVL24:
GAS LISTING C:\Users\lsw\AppData\Local\Temp\ccdBfdv6.s 			page 27


 179:../source/sgl_core.c ****         angle += 360;
 203              		.loc 1 179 18 is_stmt 1 view .LVU61
 204 00a0 78EE     		js	.L10
 205 00a2 EB96     		jmp	.L9
 206              		.p2align 4,,10
 207 00a4 0F1F4000 		.p2align 3
 208              	.L11:
 190:../source/sgl_core.c ****         angle = 180 - angle;
 209              		.loc 1 190 10 view .LVU62
 190:../source/sgl_core.c ****         angle = 180 - angle;
 210              		.loc 1 190 26 is_stmt 0 view .LVU63
 211 00a8 8D50A6   		leal	-90(%rax), %edx
 190:../source/sgl_core.c ****         angle = 180 - angle;
 212              		.loc 1 190 13 view .LVU64
 213 00ab 6683FA59 		cmpw	$89, %dx
 214 00af 771F     		ja	.L13
 191:../source/sgl_core.c ****         ret   = sin0_90_table[angle];
 215              		.loc 1 191 9 is_stmt 1 view .LVU65
 216              	.LVL25:
 192:../source/sgl_core.c ****     }
 217              		.loc 1 192 9 view .LVU66
 191:../source/sgl_core.c ****         ret   = sin0_90_table[angle];
 218              		.loc 1 191 21 is_stmt 0 view .LVU67
 219 00b1 BAB40000 		movl	$180, %edx
 219      00
 220 00b6 29C2     		subl	%eax, %edx
 192:../source/sgl_core.c ****     }
 221              		.loc 1 192 15 view .LVU68
 222 00b8 0FB7C2   		movzwl	%dx, %eax
 223              	.LVL26:
 192:../source/sgl_core.c ****     }
 224              		.loc 1 192 15 view .LVU69
 225 00bb 488D1500 		leaq	sin0_90_table(%rip), %rdx
 225      000000
 226 00c2 0FB70442 		movzwl	(%rdx,%rax,2), %eax
 227              	.LVL27:
 203:../source/sgl_core.c **** }
 228              		.loc 1 203 5 is_stmt 1 view .LVU70
 203:../source/sgl_core.c **** }
 229              		.loc 1 203 12 is_stmt 0 view .LVU71
 230 00c6 98       		cwtl
 204:../source/sgl_core.c **** 
 231              		.loc 1 204 1 view .LVU72
 232 00c7 C3       		ret
 233              	.LVL28:
 234 00c8 0F1F8400 		.p2align 4,,10
 234      00000000 
 235              		.p2align 3
 236              	.L13:
 194:../source/sgl_core.c ****         angle = angle - 180;
 237              		.loc 1 194 10 is_stmt 1 view .LVU73
 194:../source/sgl_core.c ****         angle = angle - 180;
 238              		.loc 1 194 27 is_stmt 0 view .LVU74
 239 00d0 8D904CFF 		leal	-180(%rax), %edx
 239      FFFF
 194:../source/sgl_core.c ****         angle = angle - 180;
 240              		.loc 1 194 13 view .LVU75
GAS LISTING C:\Users\lsw\AppData\Local\Temp\ccdBfdv6.s 			page 28


 241 00d6 6683FA59 		cmpw	$89, %dx
 242 00da 7714     		ja	.L14
 195:../source/sgl_core.c ****         ret   = -sin0_90_table[angle];
 243              		.loc 1 195 9 is_stmt 1 view .LVU76
 244              	.LVL29:
 196:../source/sgl_core.c ****     }
 245              		.loc 1 196 9 view .LVU77
 196:../source/sgl_core.c ****     }
 246              		.loc 1 196 15 is_stmt 0 view .LVU78
 247 00dc 488D0500 		leaq	sin0_90_table(%rip), %rax
 247      000000
 196:../source/sgl_core.c ****     }
 248              		.loc 1 196 31 view .LVU79
 249 00e3 0FB7D2   		movzwl	%dx, %edx
 196:../source/sgl_core.c ****     }
 250              		.loc 1 196 15 view .LVU80
 251 00e6 0FB70450 		movzwl	(%rax,%rdx,2), %eax
 252 00ea F7D8     		negl	%eax
 253              	.LVL30:
 203:../source/sgl_core.c **** }
 254              		.loc 1 203 5 is_stmt 1 view .LVU81
 203:../source/sgl_core.c **** }
 255              		.loc 1 203 12 is_stmt 0 view .LVU82
 256 00ec 98       		cwtl
 204:../source/sgl_core.c **** 
 257              		.loc 1 204 1 view .LVU83
 258 00ed C3       		ret
 259              	.LVL31:
 260 00ee 6690     		.p2align 4,,10
 261              		.p2align 3
 262              	.L14:
 199:../source/sgl_core.c ****         ret   = -sin0_90_table[angle];
 263              		.loc 1 199 9 is_stmt 1 view .LVU84
 200:../source/sgl_core.c ****     }
 264              		.loc 1 200 9 view .LVU85
 199:../source/sgl_core.c ****         ret   = -sin0_90_table[angle];
 265              		.loc 1 199 21 is_stmt 0 view .LVU86
 266 00f0 BA680100 		movl	$360, %edx
 266      00
 267 00f5 29C2     		subl	%eax, %edx
 200:../source/sgl_core.c ****     }
 268              		.loc 1 200 31 view .LVU87
 269 00f7 0FB7C2   		movzwl	%dx, %eax
 270              	.LVL32:
 200:../source/sgl_core.c ****     }
 271              		.loc 1 200 15 view .LVU88
 272 00fa 488D1500 		leaq	sin0_90_table(%rip), %rdx
 272      000000
 273 0101 0FB70442 		movzwl	(%rdx,%rax,2), %eax
 274 0105 F7D8     		negl	%eax
 275              	.LVL33:
 203:../source/sgl_core.c **** }
 276              		.loc 1 203 5 is_stmt 1 view .LVU89
 203:../source/sgl_core.c **** }
 277              		.loc 1 203 12 is_stmt 0 view .LVU90
 278 0107 98       		cwtl
 204:../source/sgl_core.c **** 
GAS LISTING C:\Users\lsw\AppData\Local\Temp\ccdBfdv6.s 			page 29


 279              		.loc 1 204 1 view .LVU91
 280 0108 C3       		ret
 281              		.cfi_endproc
 282              	.LFE81:
 283              		.seh_endproc
 284 0109 90909090 		.section	.text$sgl_sqrt,"x"
 284      909090
 285              		.p2align 4
 286              		.globl	sgl_sqrt
 288              		.seh_proc	sgl_sqrt
 289              	sgl_sqrt:
 290              	.LVL34:
 291              	.LFB82:
 213:../source/sgl_core.c ****     uint32_t rem = 0;
 292              		.loc 1 213 1 is_stmt 1 view -0
 293              		.cfi_startproc
 213:../source/sgl_core.c ****     uint32_t rem = 0;
 294              		.loc 1 213 1 is_stmt 0 view .LVU93
 295              		.seh_endprologue
 214:../source/sgl_core.c ****     uint32_t root = 0;
 296              		.loc 1 214 5 is_stmt 1 view .LVU94
 297              	.LVL35:
 215:../source/sgl_core.c ****     uint32_t divisor = 0;
 298              		.loc 1 215 5 view .LVU95
 216:../source/sgl_core.c **** 
 299              		.loc 1 216 5 view .LVU96
 218:../source/sgl_core.c ****         root <<= 1;
 300              		.loc 1 218 5 view .LVU97
 301              	.LBB117:
 218:../source/sgl_core.c ****         root <<= 1;
 302              		.loc 1 218 10 view .LVU98
 218:../source/sgl_core.c ****         root <<= 1;
 303              		.loc 1 218 20 discriminator 1 view .LVU99
 304              	.LBE117:
 213:../source/sgl_core.c ****     uint32_t rem = 0;
 305              		.loc 1 213 1 is_stmt 0 view .LVU100
 306 0000 41B81000 		movl	$16, %r8d
 306      0000
 215:../source/sgl_core.c ****     uint32_t divisor = 0;
 307              		.loc 1 215 14 view .LVU101
 308 0006 31C0     		xorl	%eax, %eax
 214:../source/sgl_core.c ****     uint32_t root = 0;
 309              		.loc 1 214 14 view .LVU102
 310 0008 31D2     		xorl	%edx, %edx
 311              	.LVL36:
 312 000a 660F1F44 		.p2align 4,,10
 312      0000
 313              		.p2align 3
 314              	.L31:
 315              	.LBB118:
 219:../source/sgl_core.c ****         rem = ((rem << 2) + (x >> 30));
 316              		.loc 1 219 9 is_stmt 1 view .LVU103
 220:../source/sgl_core.c ****         x <<= 2;
 317              		.loc 1 220 9 view .LVU104
 220:../source/sgl_core.c ****         x <<= 2;
 318              		.loc 1 220 32 is_stmt 0 view .LVU105
 319 0010 4189C9   		movl	%ecx, %r9d
GAS LISTING C:\Users\lsw\AppData\Local\Temp\ccdBfdv6.s 			page 30


 221:../source/sgl_core.c ****         divisor = (root<<1) + 1;
 320              		.loc 1 221 11 view .LVU106
 321 0013 C1E102   		sall	$2, %ecx
 322              	.LVL37:
 220:../source/sgl_core.c ****         x <<= 2;
 323              		.loc 1 220 32 view .LVU107
 324 0016 41C1E91E 		shrl	$30, %r9d
 325              	.LVL38:
 220:../source/sgl_core.c ****         x <<= 2;
 326              		.loc 1 220 13 view .LVU108
 327 001a 418D1491 		leal	(%r9,%rdx,4), %edx
 328              	.LVL39:
 221:../source/sgl_core.c ****         divisor = (root<<1) + 1;
 329              		.loc 1 221 9 is_stmt 1 view .LVU109
 222:../source/sgl_core.c ****         
 330              		.loc 1 222 9 view .LVU110
 222:../source/sgl_core.c ****         
 331              		.loc 1 222 17 is_stmt 0 view .LVU111
 332 001e 448D0C85 		leal	1(,%rax,4), %r9d
 332      01000000 
 333              	.LVL40:
 224:../source/sgl_core.c ****             rem -= divisor;
 334              		.loc 1 224 9 is_stmt 1 view .LVU112
 219:../source/sgl_core.c ****         rem = ((rem << 2) + (x >> 30));
 335              		.loc 1 219 14 is_stmt 0 view .LVU113
 336 0026 01C0     		addl	%eax, %eax
 337              	.LVL41:
 224:../source/sgl_core.c ****             rem -= divisor;
 338              		.loc 1 224 12 view .LVU114
 339 0028 4439CA   		cmpl	%r9d, %edx
 340 002b 7206     		jb	.L30
 225:../source/sgl_core.c ****             root++;
 341              		.loc 1 225 13 is_stmt 1 view .LVU115
 225:../source/sgl_core.c ****             root++;
 342              		.loc 1 225 17 is_stmt 0 view .LVU116
 343 002d 4429CA   		subl	%r9d, %edx
 344              	.LVL42:
 226:../source/sgl_core.c ****         }
 345              		.loc 1 226 13 is_stmt 1 view .LVU117
 226:../source/sgl_core.c ****         }
 346              		.loc 1 226 17 is_stmt 0 view .LVU118
 347 0030 83C001   		addl	$1, %eax
 348              	.LVL43:
 349              	.L30:
 218:../source/sgl_core.c ****         root <<= 1;
 350              		.loc 1 218 26 is_stmt 1 discriminator 2 view .LVU119
 218:../source/sgl_core.c ****         root <<= 1;
 351              		.loc 1 218 20 discriminator 1 view .LVU120
 352 0033 4183E801 		subl	$1, %r8d
 353 0037 75D7     		jne	.L31
 218:../source/sgl_core.c ****         root <<= 1;
 354              		.loc 1 218 20 is_stmt 0 discriminator 1 view .LVU121
 355              	.LBE118:
 229:../source/sgl_core.c **** }
 356              		.loc 1 229 5 is_stmt 1 view .LVU122
 230:../source/sgl_core.c **** 
 357              		.loc 1 230 1 is_stmt 0 view .LVU123
GAS LISTING C:\Users\lsw\AppData\Local\Temp\ccdBfdv6.s 			page 31


 358 0039 C3       		ret
 359              		.cfi_endproc
 360              	.LFE82:
 361              		.seh_endproc
 362 003a 90909090 		.section	.text$sgl_sqrt_error,"x"
 362      9090
 363              		.p2align 4
 364              		.globl	sgl_sqrt_error
 366              		.seh_proc	sgl_sqrt_error
 367              	sgl_sqrt_error:
 368              	.LVL44:
 369              	.LFB83:
 239:../source/sgl_core.c ****     uint32_t bsh = (1 << 14);
 370              		.loc 1 239 1 is_stmt 1 view -0
 371              		.cfi_startproc
 239:../source/sgl_core.c ****     uint32_t bsh = (1 << 14);
 372              		.loc 1 239 1 is_stmt 0 view .LVU125
 373              		.seh_endprologue
 240:../source/sgl_core.c ****     uint32_t fpr = 0;
 374              		.loc 1 240 5 is_stmt 1 view .LVU126
 375              	.LVL45:
 241:../source/sgl_core.c ****     uint32_t osh = 0;
 376              		.loc 1 241 5 view .LVU127
 242:../source/sgl_core.c ****     uint32_t bod;
 377              		.loc 1 242 5 view .LVU128
 243:../source/sgl_core.c **** 
 378              		.loc 1 243 5 view .LVU129
 245:../source/sgl_core.c ****         return sqrt_error_table[x];
 379              		.loc 1 245 5 view .LVU130
 239:../source/sgl_core.c ****     uint32_t bsh = (1 << 14);
 380              		.loc 1 239 1 is_stmt 0 view .LVU131
 381 0000 89CA     		movl	%ecx, %edx
 245:../source/sgl_core.c ****         return sqrt_error_table[x];
 382              		.loc 1 245 8 view .LVU132
 383 0002 81FA0004 		cmpl	$1024, %edx
 383      0000
 384 0008 0F869200 		jbe	.L48
 384      0000
 248:../source/sgl_core.c ****         return 0;
 385              		.loc 1 248 10 is_stmt 1 view .LVU133
 249:../source/sgl_core.c ****     }
 386              		.loc 1 249 16 is_stmt 0 view .LVU134
 387 000e 31C0     		xorl	%eax, %eax
 248:../source/sgl_core.c ****         return 0;
 388              		.loc 1 248 13 view .LVU135
 389 0010 81FA0000 		cmpl	$1073741824, %edx
 389      0040
 390 0016 0F877F00 		ja	.L34
 390      0000
 252:../source/sgl_core.c ****     uint32_t xp = x;
 391              		.loc 1 252 5 is_stmt 1 view .LVU136
 392              	.LVL46:
 253:../source/sgl_core.c **** 
 393              		.loc 1 253 5 view .LVU137
 255:../source/sgl_core.c ****     if ((xp & 0xFF000000) == 0) { index += 8; xp <<= 8; }
 394              		.loc 1 255 5 view .LVU138
 255:../source/sgl_core.c ****     if ((xp & 0xFF000000) == 0) { index += 8; xp <<= 8; }
GAS LISTING C:\Users\lsw\AppData\Local\Temp\ccdBfdv6.s 			page 32


 395              		.loc 1 255 8 is_stmt 0 view .LVU139
 396 001c 81FAFFFF 		cmpl	$65535, %edx
 396      0000
 255:../source/sgl_core.c ****     if ((xp & 0xFF000000) == 0) { index += 8; xp <<= 8; }
 397              		.loc 1 255 51 discriminator 1 view .LVU140
 398 0022 89D0     		movl	%edx, %eax
 255:../source/sgl_core.c ****     if ((xp & 0xFF000000) == 0) { index += 8; xp <<= 8; }
 399              		.loc 1 255 8 view .LVU141
 400 0024 0F878600 		ja	.L37
 400      0000
 255:../source/sgl_core.c ****     if ((xp & 0xFF000000) == 0) { index += 8; xp <<= 8; }
 401              		.loc 1 255 35 is_stmt 1 discriminator 1 view .LVU142
 402              	.LVL47:
 255:../source/sgl_core.c ****     if ((xp & 0xFF000000) == 0) { index += 8; xp <<= 8; }
 403              		.loc 1 255 48 discriminator 1 view .LVU143
 255:../source/sgl_core.c ****     if ((xp & 0xFF000000) == 0) { index += 8; xp <<= 8; }
 404              		.loc 1 255 51 is_stmt 0 discriminator 1 view .LVU144
 405 002a C1E010   		sall	$16, %eax
 406              	.LVL48:
 256:../source/sgl_core.c ****     if ((xp & 0xF0000000) == 0) { index += 4; xp <<= 4; }
 407              		.loc 1 256 5 is_stmt 1 view .LVU145
 257:../source/sgl_core.c ****     if ((xp & 0xC0000000) == 0) { index += 2; xp <<= 2; }
 408              		.loc 1 257 5 view .LVU146
 257:../source/sgl_core.c ****     if ((xp & 0xC0000000) == 0) { index += 2; xp <<= 2; }
 409              		.loc 1 257 8 is_stmt 0 view .LVU147
 410 002d 3DFFFFFF 		cmpl	$268435455, %eax
 410      0F
 411 0032 770C     		ja	.L45
 257:../source/sgl_core.c ****     if ((xp & 0xC0000000) == 0) { index += 2; xp <<= 2; }
 412              		.loc 1 257 35 is_stmt 1 discriminator 1 view .LVU148
 413              	.LVL49:
 257:../source/sgl_core.c ****     if ((xp & 0xC0000000) == 0) { index += 2; xp <<= 2; }
 414              		.loc 1 257 47 discriminator 1 view .LVU149
 257:../source/sgl_core.c ****     if ((xp & 0xC0000000) == 0) { index += 2; xp <<= 2; }
 415              		.loc 1 257 50 is_stmt 0 discriminator 1 view .LVU150
 416 0034 89D0     		movl	%edx, %eax
 417              	.LVL50:
 257:../source/sgl_core.c ****     if ((xp & 0xC0000000) == 0) { index += 2; xp <<= 2; }
 418              		.loc 1 257 41 discriminator 1 view .LVU151
 419 0036 B9140000 		movl	$20, %ecx
 419      00
 420              	.LVL51:
 257:../source/sgl_core.c ****     if ((xp & 0xC0000000) == 0) { index += 2; xp <<= 2; }
 421              		.loc 1 257 50 discriminator 1 view .LVU152
 422 003b C1E014   		sall	$20, %eax
 423              	.LVL52:
 258:../source/sgl_core.c ****     if ((xp & 0x80000000) == 0) { index += 1; }
 424              		.loc 1 258 5 is_stmt 1 view .LVU153
 425 003e EB12     		jmp	.L39
 426              	.LVL53:
 427              		.p2align 4,,10
 428              		.p2align 3
 429              	.L45:
 255:../source/sgl_core.c ****     if ((xp & 0xFF000000) == 0) { index += 8; xp <<= 8; }
 430              		.loc 1 255 41 is_stmt 0 discriminator 1 view .LVU154
 431 0040 B9100000 		movl	$16, %ecx
 431      00
GAS LISTING C:\Users\lsw\AppData\Local\Temp\ccdBfdv6.s 			page 33


 432              	.LVL54:
 433              	.L38:
 258:../source/sgl_core.c ****     if ((xp & 0x80000000) == 0) { index += 1; }
 434              		.loc 1 258 5 is_stmt 1 view .LVU155
 258:../source/sgl_core.c ****     if ((xp & 0x80000000) == 0) { index += 1; }
 435              		.loc 1 258 8 is_stmt 0 view .LVU156
 436 0045 3DFFFFFF 		cmpl	$1073741823, %eax
 436      3F
 437 004a 7706     		ja	.L39
 258:../source/sgl_core.c ****     if ((xp & 0x80000000) == 0) { index += 1; }
 438              		.loc 1 258 35 is_stmt 1 discriminator 1 view .LVU157
 258:../source/sgl_core.c ****     if ((xp & 0x80000000) == 0) { index += 1; }
 439              		.loc 1 258 41 is_stmt 0 discriminator 1 view .LVU158
 440 004c 83C102   		addl	$2, %ecx
 441              	.LVL55:
 258:../source/sgl_core.c ****     if ((xp & 0x80000000) == 0) { index += 1; }
 442              		.loc 1 258 47 is_stmt 1 discriminator 1 view .LVU159
 258:../source/sgl_core.c ****     if ((xp & 0x80000000) == 0) { index += 1; }
 443              		.loc 1 258 50 is_stmt 0 discriminator 1 view .LVU160
 444 004f C1E002   		sall	$2, %eax
 445              	.LVL56:
 446              	.L39:
 259:../source/sgl_core.c **** 
 447              		.loc 1 259 5 is_stmt 1 view .LVU161
 259:../source/sgl_core.c **** 
 448              		.loc 1 259 41 is_stmt 0 discriminator 1 view .LVU162
 449 0052 3D000000 		cmpl	$-2147483648, %eax
 449      80
 261:../source/sgl_core.c ****     bsh = 1 << (2 * osh + 14);
 450              		.loc 1 261 36 view .LVU163
 451 0057 B81F0000 		movl	$31, %eax
 451      00
 452              	.LVL57:
 259:../source/sgl_core.c **** 
 453              		.loc 1 259 41 discriminator 1 view .LVU164
 454 005c 83D100   		adcl	$0, %ecx
 455              	.LVL58:
 261:../source/sgl_core.c ****     bsh = 1 << (2 * osh + 14);
 456              		.loc 1 261 5 is_stmt 1 view .LVU165
 261:../source/sgl_core.c ****     bsh = 1 << (2 * osh + 14);
 457              		.loc 1 261 36 is_stmt 0 view .LVU166
 458 005f 29C8     		subl	%ecx, %eax
 261:../source/sgl_core.c ****     bsh = 1 << (2 * osh + 14);
 459              		.loc 1 261 9 view .LVU167
 460 0061 488D0D00 		leaq	sqrt_error_init_table(%rip), %rcx
 460      000000
 461              	.LVL59:
 261:../source/sgl_core.c ****     bsh = 1 << (2 * osh + 14);
 462              		.loc 1 261 9 view .LVU168
 463 0068 4898     		cltq
 464 006a 448B0C81 		movl	(%rcx,%rax,4), %r9d
 465              	.LVL60:
 262:../source/sgl_core.c **** 
 466              		.loc 1 262 5 is_stmt 1 view .LVU169
 262:../source/sgl_core.c **** 
 467              		.loc 1 262 13 is_stmt 0 view .LVU170
 468 006e B8010000 		movl	$1, %eax
GAS LISTING C:\Users\lsw\AppData\Local\Temp\ccdBfdv6.s 			page 34


 468      00
 262:../source/sgl_core.c **** 
 469              		.loc 1 262 25 view .LVU171
 470 0073 438D4C09 		leal	14(%r9,%r9), %ecx
 470      0E
 262:../source/sgl_core.c **** 
 471              		.loc 1 262 13 view .LVU172
 472 0078 D3E0     		sall	%cl, %eax
 473 007a 89C1     		movl	%eax, %ecx
 474              	.LVL61:
 241:../source/sgl_core.c ****     uint32_t osh = 0;
 475              		.loc 1 241 14 view .LVU173
 476 007c 31C0     		xorl	%eax, %eax
 477              	.LVL62:
 478 007e 6690     		.p2align 4,,10
 479              		.p2align 3
 480              	.L43:
 264:../source/sgl_core.c ****         bod = bsh + fpr;
 481              		.loc 1 264 5 is_stmt 1 view .LVU174
 265:../source/sgl_core.c ****         if (x >= bod) {
 482              		.loc 1 265 9 view .LVU175
 265:../source/sgl_core.c ****         if (x >= bod) {
 483              		.loc 1 265 13 is_stmt 0 view .LVU176
 484 0080 448D0408 		leal	(%rax,%rcx), %r8d
 485              	.LVL63:
 266:../source/sgl_core.c ****             x -= bod;
 486              		.loc 1 266 9 is_stmt 1 view .LVU177
 266:../source/sgl_core.c ****             x -= bod;
 487              		.loc 1 266 12 is_stmt 0 view .LVU178
 488 0084 4439C2   		cmpl	%r8d, %edx
 489 0087 7207     		jb	.L42
 267:../source/sgl_core.c ****             fpr = bsh + bod;
 490              		.loc 1 267 13 is_stmt 1 view .LVU179
 268:../source/sgl_core.c ****         }
 491              		.loc 1 268 17 is_stmt 0 view .LVU180
 492 0089 418D0408 		leal	(%r8,%rcx), %eax
 493              	.LVL64:
 267:../source/sgl_core.c ****             fpr = bsh + bod;
 494              		.loc 1 267 15 view .LVU181
 495 008d 4429C2   		subl	%r8d, %edx
 496              	.LVL65:
 268:../source/sgl_core.c ****         }
 497              		.loc 1 268 13 is_stmt 1 view .LVU182
 498              	.L42:
 270:../source/sgl_core.c ****     }while (bsh >>= 1);
 499              		.loc 1 270 9 view .LVU183
 270:../source/sgl_core.c ****     }while (bsh >>= 1);
 500              		.loc 1 270 11 is_stmt 0 view .LVU184
 501 0090 01D2     		addl	%edx, %edx
 502              	.LVL66:
 271:../source/sgl_core.c **** 
 503              		.loc 1 271 13 is_stmt 1 view .LVU185
 271:../source/sgl_core.c **** 
 504              		.loc 1 271 13 is_stmt 0 view .LVU186
 505 0092 D1E9     		shrl	%ecx
 506              	.LVL67:
 271:../source/sgl_core.c **** 
GAS LISTING C:\Users\lsw\AppData\Local\Temp\ccdBfdv6.s 			page 35


 507              		.loc 1 271 13 view .LVU187
 508 0094 75EA     		jne	.L43
 273:../source/sgl_core.c **** }
 509              		.loc 1 273 5 is_stmt 1 view .LVU188
 273:../source/sgl_core.c **** }
 510              		.loc 1 273 15 is_stmt 0 view .LVU189
 511 0096 4489C9   		movl	%r9d, %ecx
 512              	.LVL68:
 273:../source/sgl_core.c **** }
 513              		.loc 1 273 15 view .LVU190
 514 0099 D3E8     		shrl	%cl, %eax
 515              	.LVL69:
 516              	.L34:
 274:../source/sgl_core.c **** 
 517              		.loc 1 274 1 view .LVU191
 518 009b C3       		ret
 519              	.LVL70:
 520 009c 0F1F4000 		.p2align 4,,10
 521              		.p2align 3
 522              	.L48:
 246:../source/sgl_core.c ****     }
 523              		.loc 1 246 9 is_stmt 1 view .LVU192
 246:../source/sgl_core.c ****     }
 524              		.loc 1 246 32 is_stmt 0 view .LVU193
 525 00a0 488D0500 		leaq	sqrt_error_table(%rip), %rax
 525      000000
 526 00a7 0FB60410 		movzbl	(%rax,%rdx), %eax
 274:../source/sgl_core.c **** 
 527              		.loc 1 274 1 view .LVU194
 528 00ab C3       		ret
 529              	.LVL71:
 530 00ac 0F1F4000 		.p2align 4,,10
 531              		.p2align 3
 532              	.L37:
 256:../source/sgl_core.c ****     if ((xp & 0xF0000000) == 0) { index += 4; xp <<= 4; }
 533              		.loc 1 256 5 is_stmt 1 view .LVU195
 256:../source/sgl_core.c ****     if ((xp & 0xF0000000) == 0) { index += 4; xp <<= 4; }
 534              		.loc 1 256 8 is_stmt 0 view .LVU196
 535 00b0 81FAFFFF 		cmpl	$16777215, %edx
 535      FF00
 536 00b6 7728     		ja	.L46
 256:../source/sgl_core.c ****     if ((xp & 0xF0000000) == 0) { index += 4; xp <<= 4; }
 537              		.loc 1 256 35 is_stmt 1 discriminator 1 view .LVU197
 538              	.LVL72:
 256:../source/sgl_core.c ****     if ((xp & 0xF0000000) == 0) { index += 4; xp <<= 4; }
 539              		.loc 1 256 47 discriminator 1 view .LVU198
 256:../source/sgl_core.c ****     if ((xp & 0xF0000000) == 0) { index += 4; xp <<= 4; }
 540              		.loc 1 256 50 is_stmt 0 discriminator 1 view .LVU199
 541 00b8 C1E008   		sall	$8, %eax
 542              	.LVL73:
 256:../source/sgl_core.c ****     if ((xp & 0xF0000000) == 0) { index += 4; xp <<= 4; }
 543              		.loc 1 256 41 discriminator 1 view .LVU200
 544 00bb B9080000 		movl	$8, %ecx
 544      00
 545              	.LVL74:
 546              	.L40:
 257:../source/sgl_core.c ****     if ((xp & 0xC0000000) == 0) { index += 2; xp <<= 2; }
GAS LISTING C:\Users\lsw\AppData\Local\Temp\ccdBfdv6.s 			page 36


 547              		.loc 1 257 5 is_stmt 1 view .LVU201
 257:../source/sgl_core.c ****     if ((xp & 0xC0000000) == 0) { index += 2; xp <<= 2; }
 548              		.loc 1 257 8 is_stmt 0 view .LVU202
 549 00c0 3DFFFFFF 		cmpl	$268435455, %eax
 549      0F
 550 00c5 0F877AFF 		ja	.L38
 550      FFFF
 257:../source/sgl_core.c ****     if ((xp & 0xC0000000) == 0) { index += 2; xp <<= 2; }
 551              		.loc 1 257 35 is_stmt 1 discriminator 1 view .LVU203
 257:../source/sgl_core.c ****     if ((xp & 0xC0000000) == 0) { index += 2; xp <<= 2; }
 552              		.loc 1 257 41 is_stmt 0 discriminator 1 view .LVU204
 553 00cb 83C104   		addl	$4, %ecx
 554              	.LVL75:
 257:../source/sgl_core.c ****     if ((xp & 0xC0000000) == 0) { index += 2; xp <<= 2; }
 555              		.loc 1 257 47 is_stmt 1 discriminator 1 view .LVU205
 257:../source/sgl_core.c ****     if ((xp & 0xC0000000) == 0) { index += 2; xp <<= 2; }
 556              		.loc 1 257 50 is_stmt 0 discriminator 1 view .LVU206
 557 00ce C1E004   		sall	$4, %eax
 558              	.LVL76:
 257:../source/sgl_core.c ****     if ((xp & 0xC0000000) == 0) { index += 2; xp <<= 2; }
 559              		.loc 1 257 50 discriminator 1 view .LVU207
 560 00d1 E96FFFFF 		jmp	.L38
 560      FF
 561              	.LVL77:
 562 00d6 662E0F1F 		.p2align 4,,10
 562      84000000 
 562      0000
 563              		.p2align 3
 564              	.L46:
 257:../source/sgl_core.c ****     if ((xp & 0xC0000000) == 0) { index += 2; xp <<= 2; }
 565              		.loc 1 257 50 discriminator 1 view .LVU208
 566 00e0 31C9     		xorl	%ecx, %ecx
 567              	.LVL78:
 257:../source/sgl_core.c ****     if ((xp & 0xC0000000) == 0) { index += 2; xp <<= 2; }
 568              		.loc 1 257 50 discriminator 1 view .LVU209
 569 00e2 EBDC     		jmp	.L40
 570              		.cfi_endproc
 571              	.LFE83:
 572              		.seh_endproc
 573 00e4 90909090 		.section	.text$sgl_atan2_raw,"x"
 573      90909090 
 573      90909090 
 574              		.p2align 4
 575              		.globl	sgl_atan2_raw
 577              		.seh_proc	sgl_atan2_raw
 578              	sgl_atan2_raw:
 579              	.LVL79:
 580              	.LFB84:
 287:../source/sgl_core.c ****     int32_t ret;
 581              		.loc 1 287 1 is_stmt 1 view -0
 582              		.cfi_startproc
 287:../source/sgl_core.c ****     int32_t ret;
 583              		.loc 1 287 1 is_stmt 0 view .LVU211
 584              		.seh_endprologue
 288:../source/sgl_core.c **** 
 585              		.loc 1 288 5 is_stmt 1 view .LVU212
 290:../source/sgl_core.c ****         if (x > 0) {
GAS LISTING C:\Users\lsw\AppData\Local\Temp\ccdBfdv6.s 			page 37


 586              		.loc 1 290 5 view .LVU213
 290:../source/sgl_core.c ****         if (x > 0) {
 587              		.loc 1 290 8 is_stmt 0 view .LVU214
 588 0000 85D2     		testl	%edx, %edx
 287:../source/sgl_core.c ****     int32_t ret;
 589              		.loc 1 287 1 view .LVU215
 590 0002 89C8     		movl	%ecx, %eax
 591 0004 89D1     		movl	%edx, %ecx
 592              	.LVL80:
 290:../source/sgl_core.c ****         if (x > 0) {
 593              		.loc 1 290 8 view .LVU216
 594 0006 7510     		jne	.L50
 291:../source/sgl_core.c ****             ret = -32767;
 595              		.loc 1 291 9 is_stmt 1 view .LVU217
 596 0008 85C0     		testl	%eax, %eax
 597 000a B80200FF 		movl	$-65534, %eax
 597      FF
 598              	.LVL81:
 291:../source/sgl_core.c ****             ret = -32767;
 599              		.loc 1 291 9 is_stmt 0 view .LVU218
 600 000f 0F4EC2   		cmovle	%edx, %eax
 309:../source/sgl_core.c **** 
 601              		.loc 1 309 1 view .LVU219
 602 0012 C3       		ret
 603              	.LVL82:
 604              		.p2align 4,,10
 605 0013 0F1F4400 		.p2align 3
 605      00
 606              	.L50:
 299:../source/sgl_core.c ****     }
 607              		.loc 1 299 9 is_stmt 1 view .LVU220
 299:../source/sgl_core.c ****     }
 608              		.loc 1 299 18 is_stmt 0 view .LVU221
 609 0018 C1E008   		sall	$8, %eax
 610              	.LVL83:
 299:../source/sgl_core.c ****     }
 611              		.loc 1 299 13 view .LVU222
 612 001b 99       		cltd
 613              	.LVL84:
 299:../source/sgl_core.c ****     }
 614              		.loc 1 299 13 view .LVU223
 615 001c F7F9     		idivl	%ecx
 616              	.LVL85:
 301:../source/sgl_core.c ****         ret += 32767;
 617              		.loc 1 301 5 is_stmt 1 view .LVU224
 305:../source/sgl_core.c ****     }
 618              		.loc 1 305 13 is_stmt 0 view .LVU225
 619 001e 8D900180 		leal	-32767(%rax), %edx
 619      FFFF
 620 0024 05FF7F00 		addl	$32767, %eax
 620      00
 621              	.LVL86:
 305:../source/sgl_core.c ****     }
 622              		.loc 1 305 13 view .LVU226
 623 0029 85C9     		testl	%ecx, %ecx
 624 002b 0F4EC2   		cmovle	%edx, %eax
 625              	.LVL87:
GAS LISTING C:\Users\lsw\AppData\Local\Temp\ccdBfdv6.s 			page 38


 309:../source/sgl_core.c **** 
 626              		.loc 1 309 1 view .LVU227
 627 002e C3       		ret
 628              		.cfi_endproc
 629              	.LFE84:
 630              		.seh_endproc
 631 002f 90       		.section	.text$sgl_atan2_angle,"x"
 632              		.p2align 4
 633              		.globl	sgl_atan2_angle
 635              		.seh_proc	sgl_atan2_angle
 636              	sgl_atan2_angle:
 637              	.LVL88:
 638              	.LFB85:
 322:../source/sgl_core.c ****     unsigned char negflag;
 639              		.loc 1 322 1 is_stmt 1 view -0
 640              		.cfi_startproc
 322:../source/sgl_core.c ****     unsigned char negflag;
 641              		.loc 1 322 1 is_stmt 0 view .LVU229
 642              		.seh_endprologue
 323:../source/sgl_core.c ****     unsigned char tempdegree;
 643              		.loc 1 323 5 is_stmt 1 view .LVU230
 324:../source/sgl_core.c ****     unsigned char comp;
 644              		.loc 1 324 5 view .LVU231
 325:../source/sgl_core.c ****     unsigned int degree;
 645              		.loc 1 325 5 view .LVU232
 326:../source/sgl_core.c ****     unsigned int ux;
 646              		.loc 1 326 5 view .LVU233
 327:../source/sgl_core.c ****     unsigned int uy;
 647              		.loc 1 327 5 view .LVU234
 328:../source/sgl_core.c **** 
 648              		.loc 1 328 5 view .LVU235
 330:../source/sgl_core.c ****     if (x < 0) {
 649              		.loc 1 330 5 view .LVU236
 650              	.LVL89:
 331:../source/sgl_core.c ****         negflag += 0x01;
 651              		.loc 1 331 5 view .LVU237
 330:../source/sgl_core.c ****     if (x < 0) {
 652              		.loc 1 330 13 is_stmt 0 view .LVU238
 653 0000 4531C9   		xorl	%r9d, %r9d
 331:../source/sgl_core.c ****         negflag += 0x01;
 654              		.loc 1 331 8 view .LVU239
 655 0003 85C9     		testl	%ecx, %ecx
 322:../source/sgl_core.c ****     unsigned char negflag;
 656              		.loc 1 322 1 view .LVU240
 657 0005 4189D0   		movl	%edx, %r8d
 331:../source/sgl_core.c ****         negflag += 0x01;
 658              		.loc 1 331 8 view .LVU241
 659 0008 7908     		jns	.L56
 332:../source/sgl_core.c ****         x = (0 - x);
 660              		.loc 1 332 9 is_stmt 1 view .LVU242
 661              	.LVL90:
 333:../source/sgl_core.c ****     }
 662              		.loc 1 333 9 view .LVU243
 333:../source/sgl_core.c ****     }
 663              		.loc 1 333 11 is_stmt 0 view .LVU244
 664 000a F7D9     		negl	%ecx
 665              	.LVL91:
GAS LISTING C:\Users\lsw\AppData\Local\Temp\ccdBfdv6.s 			page 39


 332:../source/sgl_core.c ****         x = (0 - x);
 666              		.loc 1 332 17 view .LVU245
 667 000c 41B90100 		movl	$1, %r9d
 667      0000
 668              	.LVL92:
 669              	.L56:
 335:../source/sgl_core.c ****     if (y < 0) {
 670              		.loc 1 335 5 is_stmt 1 view .LVU246
 336:../source/sgl_core.c ****         negflag += 0x02;
 671              		.loc 1 336 5 view .LVU247
 336:../source/sgl_core.c ****         negflag += 0x02;
 672              		.loc 1 336 8 is_stmt 0 view .LVU248
 673 0012 4585C0   		testl	%r8d, %r8d
 674 0015 7907     		jns	.L57
 337:../source/sgl_core.c ****         y = (0 - y);
 675              		.loc 1 337 9 is_stmt 1 view .LVU249
 337:../source/sgl_core.c ****         y = (0 - y);
 676              		.loc 1 337 17 is_stmt 0 view .LVU250
 677 0017 4183C102 		addl	$2, %r9d
 678              	.LVL93:
 338:../source/sgl_core.c ****     }
 679              		.loc 1 338 9 is_stmt 1 view .LVU251
 338:../source/sgl_core.c ****     }
 680              		.loc 1 338 11 is_stmt 0 view .LVU252
 681 001b 41F7D8   		negl	%r8d
 682              	.LVL94:
 683              	.L57:
 340:../source/sgl_core.c **** 
 684              		.loc 1 340 5 is_stmt 1 view .LVU253
 342:../source/sgl_core.c ****         degree = (uy * 45) / ux;
 685              		.loc 1 342 5 view .LVU254
 342:../source/sgl_core.c ****         degree = (uy * 45) / ux;
 686              		.loc 1 342 8 is_stmt 0 view .LVU255
 687 001e 4139C8   		cmpl	%ecx, %r8d
 688 0021 737D     		jnb	.L58
 343:../source/sgl_core.c ****         negflag += 0x10;
 689              		.loc 1 343 9 is_stmt 1 view .LVU256
 343:../source/sgl_core.c ****         negflag += 0x10;
 690              		.loc 1 343 22 is_stmt 0 view .LVU257
 691 0023 416BC02D 		imull	$45, %r8d, %eax
 343:../source/sgl_core.c ****         negflag += 0x10;
 692              		.loc 1 343 16 view .LVU258
 693 0027 31D2     		xorl	%edx, %edx
 344:../source/sgl_core.c ****     }
 694              		.loc 1 344 17 view .LVU259
 695 0029 4183C110 		addl	$16, %r9d
 696              	.LVL95:
 343:../source/sgl_core.c ****         negflag += 0x10;
 697              		.loc 1 343 16 view .LVU260
 698 002d F7F1     		divl	%ecx
 699              	.LVL96:
 344:../source/sgl_core.c ****     }
 700              		.loc 1 344 9 is_stmt 1 view .LVU261
 701              	.L59:
 350:../source/sgl_core.c ****     tempdegree = degree;
 702              		.loc 1 350 5 view .LVU262
 351:../source/sgl_core.c ****     if (tempdegree > 22) {
GAS LISTING C:\Users\lsw\AppData\Local\Temp\ccdBfdv6.s 			page 40


 703              		.loc 1 351 5 view .LVU263
 352:../source/sgl_core.c ****         if (tempdegree <= 44) comp++;
 704              		.loc 1 352 8 is_stmt 0 view .LVU264
 705 002f 3C16     		cmpb	$22, %al
 351:../source/sgl_core.c ****     if (tempdegree > 22) {
 706              		.loc 1 351 16 view .LVU265
 707 0031 89C2     		movl	%eax, %edx
 708              	.LVL97:
 352:../source/sgl_core.c ****         if (tempdegree <= 44) comp++;
 709              		.loc 1 352 5 is_stmt 1 view .LVU266
 352:../source/sgl_core.c ****         if (tempdegree <= 44) comp++;
 710              		.loc 1 352 8 is_stmt 0 view .LVU267
 711 0033 764B     		jbe	.L60
 353:../source/sgl_core.c ****         if (tempdegree <= 41) comp++;
 712              		.loc 1 353 9 is_stmt 1 view .LVU268
 353:../source/sgl_core.c ****         if (tempdegree <= 41) comp++;
 713              		.loc 1 353 12 is_stmt 0 view .LVU269
 714 0035 3C2C     		cmpb	$44, %al
 715 0037 7677     		jbe	.L79
 716              	.LVL98:
 717              	.L61:
 364:../source/sgl_core.c **** 
 718              		.loc 1 364 5 is_stmt 1 view .LVU270
 366:../source/sgl_core.c **** 
 719              		.loc 1 366 5 view .LVU271
 366:../source/sgl_core.c **** 
 720              		.loc 1 366 32 is_stmt 0 discriminator 1 view .LVU272
 721 0039 BA5A0000 		movl	$90, %edx
 721      00
 722              	.LVL99:
 366:../source/sgl_core.c **** 
 723              		.loc 1 366 32 discriminator 1 view .LVU273
 724 003e 4489C9   		movl	%r9d, %ecx
 725 0041 29C2     		subl	%eax, %edx
 726 0043 41F6C110 		testb	$16, %r9b
 727 0047 0F45C2   		cmovne	%edx, %eax
 728              	.LVL100:
 368:../source/sgl_core.c ****         if (negflag & 0x01)
 729              		.loc 1 368 5 is_stmt 1 view .LVU274
 730 004a 83E101   		andl	$1, %ecx
 368:../source/sgl_core.c ****         if (negflag & 0x01)
 731              		.loc 1 368 8 is_stmt 0 view .LVU275
 732 004d 4183E102 		andl	$2, %r9d
 733              	.LVL101:
 368:../source/sgl_core.c ****         if (negflag & 0x01)
 734              		.loc 1 368 8 view .LVU276
 735 0051 741D     		je	.L69
 369:../source/sgl_core.c ****             degree = (180 + degree);
 736              		.loc 1 369 9 is_stmt 1 view .LVU277
 370:../source/sgl_core.c ****         else
 737              		.loc 1 370 20 is_stmt 0 view .LVU278
 738 0053 448D80B4 		leal	180(%rax), %r8d
 738      000000
 739              	.LVL102:
 370:../source/sgl_core.c ****         else
 740              		.loc 1 370 20 view .LVU279
 741 005a BAB40000 		movl	$180, %edx
GAS LISTING C:\Users\lsw\AppData\Local\Temp\ccdBfdv6.s 			page 41


 741      00
 742 005f 29C2     		subl	%eax, %edx
 743 0061 84C9     		testb	%cl, %cl
 744 0063 4489C0   		movl	%r8d, %eax
 745              	.LVL103:
 370:../source/sgl_core.c ****         else
 746              		.loc 1 370 20 view .LVU280
 747 0066 0F44C2   		cmove	%edx, %eax
 748              	.LVL104:
 378:../source/sgl_core.c **** }
 749              		.loc 1 378 5 is_stmt 1 view .LVU281
 379:../source/sgl_core.c **** 
 750              		.loc 1 379 1 is_stmt 0 view .LVU282
 751 0069 C3       		ret
 752              	.LVL105:
 753 006a 660F1F44 		.p2align 4,,10
 753      0000
 754              		.p2align 3
 755              	.L69:
 375:../source/sgl_core.c ****             degree = (360 - degree);
 756              		.loc 1 375 9 is_stmt 1 view .LVU283
 376:../source/sgl_core.c ****     }
 757              		.loc 1 376 20 is_stmt 0 view .LVU284
 758 0070 BA680100 		movl	$360, %edx
 758      00
 759 0075 29C2     		subl	%eax, %edx
 760 0077 84C9     		testb	%cl, %cl
 761 0079 0F45C2   		cmovne	%edx, %eax
 762              	.LVL106:
 378:../source/sgl_core.c **** }
 763              		.loc 1 378 5 is_stmt 1 view .LVU285
 379:../source/sgl_core.c **** 
 764              		.loc 1 379 1 is_stmt 0 view .LVU286
 765 007c C3       		ret
 766              	.LVL107:
 767 007d 0F1F00   		.p2align 4,,10
 768              		.p2align 3
 769              	.L60:
 359:../source/sgl_core.c ****         if (tempdegree >= 6) comp++;
 770              		.loc 1 359 9 is_stmt 1 view .LVU287
 359:../source/sgl_core.c ****         if (tempdegree >= 6) comp++;
 771              		.loc 1 359 12 is_stmt 0 view .LVU288
 772 0080 3C01     		cmpb	$1, %al
 773 0082 76B5     		jbe	.L61
 359:../source/sgl_core.c ****         if (tempdegree >= 6) comp++;
 774              		.loc 1 359 30 is_stmt 1 discriminator 1 view .LVU289
 775              	.LVL108:
 360:../source/sgl_core.c ****         if (tempdegree >= 10) comp++;
 776              		.loc 1 360 9 view .LVU290
 360:../source/sgl_core.c ****         if (tempdegree >= 10) comp++;
 777              		.loc 1 360 12 is_stmt 0 view .LVU291
 778 0084 3C05     		cmpb	$5, %al
 779 0086 7640     		jbe	.L77
 360:../source/sgl_core.c ****         if (tempdegree >= 10) comp++;
 780              		.loc 1 360 30 is_stmt 1 discriminator 1 view .LVU292
 781              	.LVL109:
 361:../source/sgl_core.c ****         if (tempdegree >= 15) comp++;
GAS LISTING C:\Users\lsw\AppData\Local\Temp\ccdBfdv6.s 			page 42


 782              		.loc 1 361 9 view .LVU293
 361:../source/sgl_core.c ****         if (tempdegree >= 15) comp++;
 783              		.loc 1 361 12 is_stmt 0 view .LVU294
 784 0088 3C09     		cmpb	$9, %al
 785 008a 7644     		jbe	.L78
 361:../source/sgl_core.c ****         if (tempdegree >= 15) comp++;
 786              		.loc 1 361 31 is_stmt 1 discriminator 1 view .LVU295
 787              	.LVL110:
 362:../source/sgl_core.c ****     }
 788              		.loc 1 362 9 view .LVU296
 364:../source/sgl_core.c **** 
 789              		.loc 1 364 12 is_stmt 0 view .LVU297
 790 008c 89C1     		movl	%eax, %ecx
 791              	.LVL111:
 364:../source/sgl_core.c **** 
 792              		.loc 1 364 12 view .LVU298
 793 008e 31C0     		xorl	%eax, %eax
 794              	.LVL112:
 364:../source/sgl_core.c **** 
 795              		.loc 1 364 12 view .LVU299
 796 0090 80FA0E   		cmpb	$14, %dl
 797 0093 0F97C0   		seta	%al
 798 0096 8D440803 		leal	3(%rax,%rcx), %eax
 799 009a EB9D     		jmp	.L61
 800              	.LVL113:
 801 009c 0F1F4000 		.p2align 4,,10
 802              		.p2align 3
 803              	.L58:
 347:../source/sgl_core.c ****     }
 804              		.loc 1 347 9 is_stmt 1 view .LVU300
 347:../source/sgl_core.c ****     }
 805              		.loc 1 347 22 is_stmt 0 view .LVU301
 806 00a0 6BC12D   		imull	$45, %ecx, %eax
 347:../source/sgl_core.c ****     }
 807              		.loc 1 347 16 view .LVU302
 808 00a3 31D2     		xorl	%edx, %edx
 809 00a5 41F7F0   		divl	%r8d
 810              	.LVL114:
 347:../source/sgl_core.c ****     }
 811              		.loc 1 347 16 view .LVU303
 812 00a8 EB85     		jmp	.L59
 813              	.LVL115:
 814 00aa 660F1F44 		.p2align 4,,10
 814      0000
 815              		.p2align 3
 816              	.L79:
 353:../source/sgl_core.c ****         if (tempdegree <= 41) comp++;
 817              		.loc 1 353 31 is_stmt 1 discriminator 1 view .LVU304
 354:../source/sgl_core.c ****         if (tempdegree <= 37) comp++;
 818              		.loc 1 354 9 view .LVU305
 354:../source/sgl_core.c ****         if (tempdegree <= 37) comp++;
 819              		.loc 1 354 12 is_stmt 0 view .LVU306
 820 00b0 3C29     		cmpb	$41, %al
 821 00b2 7714     		ja	.L77
 822              	.LVL116:
 355:../source/sgl_core.c ****         if (tempdegree <= 32) comp++;
 823              		.loc 1 355 9 is_stmt 1 view .LVU307
GAS LISTING C:\Users\lsw\AppData\Local\Temp\ccdBfdv6.s 			page 43


 355:../source/sgl_core.c ****         if (tempdegree <= 32) comp++;
 824              		.loc 1 355 12 is_stmt 0 view .LVU308
 825 00b4 3C25     		cmpb	$37, %al
 826 00b6 7718     		ja	.L78
 355:../source/sgl_core.c ****         if (tempdegree <= 32) comp++;
 827              		.loc 1 355 31 is_stmt 1 discriminator 1 view .LVU309
 828              	.LVL117:
 356:../source/sgl_core.c ****     }
 829              		.loc 1 356 9 view .LVU310
 364:../source/sgl_core.c **** 
 830              		.loc 1 364 12 is_stmt 0 view .LVU311
 831 00b8 3C21     		cmpb	$33, %al
 832 00ba 83D003   		adcl	$3, %eax
 833              	.LVL118:
 364:../source/sgl_core.c **** 
 834              		.loc 1 364 12 view .LVU312
 835 00bd E977FFFF 		jmp	.L61
 835      FF
 836              	.LVL119:
 837              		.p2align 4,,10
 838 00c2 660F1F44 		.p2align 3
 838      0000
 839              	.L77:
 364:../source/sgl_core.c **** 
 840              		.loc 1 364 12 view .LVU313
 841 00c8 83C001   		addl	$1, %eax
 842              	.LVL120:
 364:../source/sgl_core.c **** 
 843              		.loc 1 364 12 view .LVU314
 844 00cb E969FFFF 		jmp	.L61
 844      FF
 845              	.LVL121:
 846              		.p2align 4,,10
 847              		.p2align 3
 848              	.L78:
 364:../source/sgl_core.c **** 
 849              		.loc 1 364 12 view .LVU315
 850 00d0 83C002   		addl	$2, %eax
 851              	.LVL122:
 364:../source/sgl_core.c **** 
 852              		.loc 1 364 12 view .LVU316
 853 00d3 E961FFFF 		jmp	.L61
 853      FF
 854              		.cfi_endproc
 855              	.LFE85:
 856              		.seh_endproc
 857 00d8 90909090 		.section	.text$sgl_split_len,"x"
 857      90909090 
 858              		.p2align 4
 859              		.globl	sgl_split_len
 861              		.seh_proc	sgl_split_len
 862              	sgl_split_len:
 863              	.LVL123:
 864              	.LFB86:
 392:../source/sgl_core.c ****     int16_t total_w = 0, span = 0, accumulated = 0, error = 0;
 865              		.loc 1 392 1 is_stmt 1 view -0
 866              		.cfi_startproc
GAS LISTING C:\Users\lsw\AppData\Local\Temp\ccdBfdv6.s 			page 44


 392:../source/sgl_core.c ****     int16_t total_w = 0, span = 0, accumulated = 0, error = 0;
 867              		.loc 1 392 1 is_stmt 0 view .LVU318
 868 0000 4155     		pushq	%r13
 869              		.seh_pushreg	%r13
 870              		.cfi_def_cfa_offset 16
 871              		.cfi_offset 13, -16
 872 0002 4154     		pushq	%r12
 873              		.seh_pushreg	%r12
 874              		.cfi_def_cfa_offset 24
 875              		.cfi_offset 12, -24
 876 0004 55       		pushq	%rbp
 877              		.seh_pushreg	%rbp
 878              		.cfi_def_cfa_offset 32
 879              		.cfi_offset 6, -32
 880 0005 57       		pushq	%rdi
 881              		.seh_pushreg	%rdi
 882              		.cfi_def_cfa_offset 40
 883              		.cfi_offset 5, -40
 884 0006 56       		pushq	%rsi
 885              		.seh_pushreg	%rsi
 886              		.cfi_def_cfa_offset 48
 887              		.cfi_offset 4, -48
 888 0007 53       		pushq	%rbx
 889              		.seh_pushreg	%rbx
 890              		.cfi_def_cfa_offset 56
 891              		.cfi_offset 3, -56
 892              		.seh_endprologue
 392:../source/sgl_core.c ****     int16_t total_w = 0, span = 0, accumulated = 0, error = 0;
 893              		.loc 1 392 1 view .LVU319
 894 0008 4C8B5424 		movq	88(%rsp), %r10
 894      58
 393:../source/sgl_core.c ****     for (int i = 0; i < count; i++) {
 895              		.loc 1 393 5 is_stmt 1 view .LVU320
 896              	.LVL124:
 394:../source/sgl_core.c ****         total_w += weight[i];
 897              		.loc 1 394 5 view .LVU321
 898              	.LBB119:
 394:../source/sgl_core.c ****         total_w += weight[i];
 899              		.loc 1 394 10 view .LVU322
 394:../source/sgl_core.c ****         total_w += weight[i];
 900              		.loc 1 394 23 discriminator 1 view .LVU323
 901              	.LBE119:
 398:../source/sgl_core.c **** 
 902              		.loc 1 398 34 is_stmt 0 view .LVU324
 903 000d 8D4201   		leal	1(%rdx), %eax
 392:../source/sgl_core.c ****     int16_t total_w = 0, span = 0, accumulated = 0, error = 0;
 904              		.loc 1 392 1 view .LVU325
 905 0010 4889CD   		movq	%rcx, %rbp
 906 0013 89D6     		movl	%edx, %esi
 398:../source/sgl_core.c **** 
 907              		.loc 1 398 19 view .LVU326
 908 0015 440FAFC8 		imull	%eax, %r9d
 909              	.LVL125:
 398:../source/sgl_core.c **** 
 910              		.loc 1 398 19 view .LVU327
 911 0019 4529C8   		subl	%r9d, %r8d
 912              	.LVL126:
GAS LISTING C:\Users\lsw\AppData\Local\Temp\ccdBfdv6.s 			page 45


 913              	.LBB120:
 394:../source/sgl_core.c ****         total_w += weight[i];
 914              		.loc 1 394 23 discriminator 1 view .LVU328
 915 001c 85D2     		testl	%edx, %edx
 916 001e 0F8E9B00 		jle	.L80
 916      0000
 917 0024 4C63E2   		movslq	%edx, %r12
 918 0027 4889C8   		movq	%rcx, %rax
 919              	.LBE120:
 393:../source/sgl_core.c ****     for (int i = 0; i < count; i++) {
 920              		.loc 1 393 13 view .LVU329
 921 002a 4531DB   		xorl	%r11d, %r11d
 922 002d 4A8D1421 		leaq	(%rcx,%r12), %rdx
 923              	.LVL127:
 924              		.p2align 4,,10
 925 0031 0F1F8000 		.p2align 3
 925      000000
 926              	.L82:
 927              	.LBB121:
 395:../source/sgl_core.c ****     }
 928              		.loc 1 395 9 is_stmt 1 view .LVU330
 395:../source/sgl_core.c ****     }
 929              		.loc 1 395 26 is_stmt 0 view .LVU331
 930 0038 0FB608   		movzbl	(%rax), %ecx
 394:../source/sgl_core.c ****         total_w += weight[i];
 931              		.loc 1 394 23 discriminator 1 view .LVU332
 932 003b 4883C001 		addq	$1, %rax
 395:../source/sgl_core.c ****     }
 933              		.loc 1 395 17 view .LVU333
 934 003f 4401D9   		addl	%r11d, %ecx
 394:../source/sgl_core.c ****         total_w += weight[i];
 935              		.loc 1 394 23 discriminator 1 view .LVU334
 936 0042 4839D0   		cmpq	%rdx, %rax
 395:../source/sgl_core.c ****     }
 937              		.loc 1 395 17 view .LVU335
 938 0045 440FBFD9 		movswl	%cx, %r11d
 939              	.LVL128:
 394:../source/sgl_core.c ****         total_w += weight[i];
 940              		.loc 1 394 33 is_stmt 1 discriminator 3 view .LVU336
 394:../source/sgl_core.c ****         total_w += weight[i];
 941              		.loc 1 394 23 discriminator 1 view .LVU337
 942 0049 75ED     		jne	.L82
 943              	.LBE121:
 398:../source/sgl_core.c **** 
 944              		.loc 1 398 5 view .LVU338
 945              	.LVL129:
 400:../source/sgl_core.c ****         int numerator = weight[i] * span;
 946              		.loc 1 400 5 view .LVU339
 947              	.LBB122:
 400:../source/sgl_core.c ****         int numerator = weight[i] * span;
 948              		.loc 1 400 10 view .LVU340
 400:../source/sgl_core.c ****         int numerator = weight[i] * span;
 949              		.loc 1 400 23 discriminator 1 view .LVU341
 950              	.LBB123:
 401:../source/sgl_core.c ****         out[i] = numerator / total_w;
 951              		.loc 1 401 35 is_stmt 0 view .LVU342
 952 004b 450FBFE8 		movswl	%r8w, %r13d
GAS LISTING C:\Users\lsw\AppData\Local\Temp\ccdBfdv6.s 			page 46


 402:../source/sgl_core.c ****         error += numerator % total_w;
 953              		.loc 1 402 28 view .LVU343
 954 004f 4531C9   		xorl	%r9d, %r9d
 955              	.LBE123:
 956              	.LBE122:
 393:../source/sgl_core.c ****     for (int i = 0; i < count; i++) {
 957              		.loc 1 393 53 view .LVU344
 958 0052 31DB     		xorl	%ebx, %ebx
 393:../source/sgl_core.c ****     for (int i = 0; i < count; i++) {
 959              		.loc 1 393 36 view .LVU345
 960 0054 31FF     		xorl	%edi, %edi
 961              	.LVL130:
 962 0056 662E0F1F 		.p2align 4,,10
 962      84000000 
 962      0000
 963              		.p2align 3
 964              	.L85:
 965              	.LBB126:
 966              	.LBB124:
 401:../source/sgl_core.c ****         out[i] = numerator / total_w;
 967              		.loc 1 401 9 is_stmt 1 view .LVU346
 402:../source/sgl_core.c ****         error += numerator % total_w;
 968              		.loc 1 402 9 view .LVU347
 401:../source/sgl_core.c ****         out[i] = numerator / total_w;
 969              		.loc 1 401 31 is_stmt 0 view .LVU348
 970 0060 420FB644 		movzbl	0(%rbp,%r9), %eax
 970      0D00
 401:../source/sgl_core.c ****         out[i] = numerator / total_w;
 971              		.loc 1 401 13 view .LVU349
 972 0066 410FAFC5 		imull	%r13d, %eax
 973              	.LVL131:
 401:../source/sgl_core.c ****         out[i] = numerator / total_w;
 974              		.loc 1 401 13 view .LVU350
 975 006a 99       		cltd
 976 006b 41F7FB   		idivl	%r11d
 977              	.LVL132:
 403:../source/sgl_core.c **** 
 978              		.loc 1 403 9 is_stmt 1 view .LVU351
 403:../source/sgl_core.c **** 
 979              		.loc 1 403 15 is_stmt 0 view .LVU352
 980 006e 01D3     		addl	%edx, %ebx
 981              	.LVL133:
 405:../source/sgl_core.c ****             out[i] += 1;
 982              		.loc 1 405 9 is_stmt 1 view .LVU353
 402:../source/sgl_core.c ****         error += numerator % total_w;
 983              		.loc 1 402 16 is_stmt 0 view .LVU354
 984 0070 89C2     		movl	%eax, %edx
 405:../source/sgl_core.c ****             out[i] += 1;
 985              		.loc 1 405 12 view .LVU355
 986 0072 6639CB   		cmpw	%cx, %bx
 987 0075 7C07     		jl	.L84
 406:../source/sgl_core.c ****             error -= total_w;
 988              		.loc 1 406 13 is_stmt 1 view .LVU356
 406:../source/sgl_core.c ****             error -= total_w;
 989              		.loc 1 406 20 is_stmt 0 view .LVU357
 990 0077 83C001   		addl	$1, %eax
 407:../source/sgl_core.c ****         }
GAS LISTING C:\Users\lsw\AppData\Local\Temp\ccdBfdv6.s 			page 47


 991              		.loc 1 407 19 view .LVU358
 992 007a 29CB     		subl	%ecx, %ebx
 993              	.LVL134:
 406:../source/sgl_core.c ****             error -= total_w;
 994              		.loc 1 406 20 view .LVU359
 995 007c 89C2     		movl	%eax, %edx
 407:../source/sgl_core.c ****         }
 996              		.loc 1 407 13 is_stmt 1 view .LVU360
 997              	.LVL135:
 998              	.L84:
 402:../source/sgl_core.c ****         error += numerator % total_w;
 999              		.loc 1 402 16 is_stmt 0 view .LVU361
 1000 007e 66438914 		movw	%dx, (%r10,%r9,2)
 1000      4A
 1001              	.LVL136:
 409:../source/sgl_core.c ****     }
 1002              		.loc 1 409 9 is_stmt 1 view .LVU362
 1003              	.LBE124:
 400:../source/sgl_core.c ****         int numerator = weight[i] * span;
 1004              		.loc 1 400 23 is_stmt 0 discriminator 1 view .LVU363
 1005 0083 4983C101 		addq	$1, %r9
 1006              	.LVL137:
 1007              	.LBB125:
 409:../source/sgl_core.c ****     }
 1008              		.loc 1 409 21 view .LVU364
 1009 0087 01C7     		addl	%eax, %edi
 1010              	.LVL138:
 409:../source/sgl_core.c ****     }
 1011              		.loc 1 409 21 view .LVU365
 1012              	.LBE125:
 400:../source/sgl_core.c ****         int numerator = weight[i] * span;
 1013              		.loc 1 400 33 is_stmt 1 discriminator 2 view .LVU366
 400:../source/sgl_core.c ****         int numerator = weight[i] * span;
 1014              		.loc 1 400 23 discriminator 1 view .LVU367
 1015 0089 4D39E1   		cmpq	%r12, %r9
 1016 008c 75D2     		jne	.L85
 400:../source/sgl_core.c ****         int numerator = weight[i] * span;
 1017              		.loc 1 400 23 is_stmt 0 discriminator 1 view .LVU368
 1018              	.LBE126:
 412:../source/sgl_core.c **** 
 1019              		.loc 1 412 5 is_stmt 1 view .LVU369
 412:../source/sgl_core.c **** 
 1020              		.loc 1 412 18 is_stmt 0 view .LVU370
 1021 008e 4129F8   		subl	%edi, %r8d
 1022              	.LBB127:
 414:../source/sgl_core.c ****         out[i] += 1;
 1023              		.loc 1 414 31 discriminator 1 view .LVU371
 1024 0091 664585C0 		testw	%r8w, %r8w
 1025              	.LBE127:
 412:../source/sgl_core.c **** 
 1026              		.loc 1 412 11 view .LVU372
 1027 0095 4489C2   		movl	%r8d, %edx
 1028              	.LVL139:
 414:../source/sgl_core.c ****         out[i] += 1;
 1029              		.loc 1 414 5 is_stmt 1 view .LVU373
 1030              	.LBB128:
 414:../source/sgl_core.c ****         out[i] += 1;
GAS LISTING C:\Users\lsw\AppData\Local\Temp\ccdBfdv6.s 			page 48


 1031              		.loc 1 414 10 view .LVU374
 414:../source/sgl_core.c ****         out[i] += 1;
 1032              		.loc 1 414 31 discriminator 1 view .LVU375
 1033 0098 7E2E     		jle	.L86
 1034 009a B8010000 		movl	$1, %eax
 1034      00
 1035              	.LVL140:
 1036 009f 90       		.p2align 4,,10
 1037              		.p2align 3
 1038              	.L87:
 415:../source/sgl_core.c ****         error --;
 1039              		.loc 1 415 9 view .LVU376
 415:../source/sgl_core.c ****         error --;
 1040              		.loc 1 415 16 is_stmt 0 view .LVU377
 1041 00a0 66418344 		addw	$1, -2(%r10,%rax,2)
 1041      42FE01
 416:../source/sgl_core.c ****     }
 1042              		.loc 1 416 9 is_stmt 1 view .LVU378
 1043              	.LVL141:
 416:../source/sgl_core.c ****     }
 1044              		.loc 1 416 15 is_stmt 0 view .LVU379
 1045 00a7 83EA01   		subl	$1, %edx
 1046              	.LVL142:
 414:../source/sgl_core.c ****         out[i] += 1;
 1047              		.loc 1 414 46 is_stmt 1 discriminator 3 view .LVU380
 414:../source/sgl_core.c ****         out[i] += 1;
 1048              		.loc 1 414 31 discriminator 1 view .LVU381
 414:../source/sgl_core.c ****         out[i] += 1;
 1049              		.loc 1 414 23 is_stmt 0 discriminator 1 view .LVU382
 1050 00aa 39C6     		cmpl	%eax, %esi
 1051 00ac 410F9FC0 		setg	%r8b
 414:../source/sgl_core.c ****         out[i] += 1;
 1052              		.loc 1 414 40 discriminator 1 view .LVU383
 1053 00b0 6685D2   		testw	%dx, %dx
 1054 00b3 0F9FC1   		setg	%cl
 414:../source/sgl_core.c ****         out[i] += 1;
 1055              		.loc 1 414 31 discriminator 1 view .LVU384
 1056 00b6 4883C001 		addq	$1, %rax
 1057              	.LVL143:
 414:../source/sgl_core.c ****         out[i] += 1;
 1058              		.loc 1 414 31 discriminator 1 view .LVU385
 1059 00ba 4184C8   		testb	%cl, %r8b
 1060 00bd 75E1     		jne	.L87
 1061              	.LVL144:
 1062              	.L80:
 414:../source/sgl_core.c ****         out[i] += 1;
 1063              		.loc 1 414 31 discriminator 1 view .LVU386
 1064              	.LBE128:
 423:../source/sgl_core.c **** 
 1065              		.loc 1 423 1 view .LVU387
 1066 00bf 5B       		popq	%rbx
 1067              		.cfi_remember_state
 1068              		.cfi_restore 3
 1069              		.cfi_def_cfa_offset 48
 1070 00c0 5E       		popq	%rsi
 1071              		.cfi_restore 4
 1072              		.cfi_def_cfa_offset 40
GAS LISTING C:\Users\lsw\AppData\Local\Temp\ccdBfdv6.s 			page 49


 1073              	.LVL145:
 423:../source/sgl_core.c **** 
 1074              		.loc 1 423 1 view .LVU388
 1075 00c1 5F       		popq	%rdi
 1076              		.cfi_restore 5
 1077              		.cfi_def_cfa_offset 32
 1078 00c2 5D       		popq	%rbp
 1079              		.cfi_restore 6
 1080              		.cfi_def_cfa_offset 24
 1081              	.LVL146:
 423:../source/sgl_core.c **** 
 1082              		.loc 1 423 1 view .LVU389
 1083 00c3 415C     		popq	%r12
 1084              		.cfi_restore 12
 1085              		.cfi_def_cfa_offset 16
 1086 00c5 415D     		popq	%r13
 1087              		.cfi_restore 13
 1088              		.cfi_def_cfa_offset 8
 1089 00c7 C3       		ret
 1090              	.LVL147:
 1091              	.L86:
 1092              		.cfi_restore_state
 1093              	.LBB129:
 419:../source/sgl_core.c ****         out[i] -= 1;
 1094              		.loc 1 419 31 is_stmt 1 discriminator 1 view .LVU390
 1095 00c8 664585C0 		testw	%r8w, %r8w
 1096 00cc 79F1     		jns	.L80
 1097 00ce B8010000 		movl	$1, %eax
 1097      00
 1098              	.LVL148:
 1099              		.p2align 4,,10
 1100 00d3 0F1F4400 		.p2align 3
 1100      00
 1101              	.L88:
 420:../source/sgl_core.c ****         error ++;
 1102              		.loc 1 420 9 view .LVU391
 420:../source/sgl_core.c ****         error ++;
 1103              		.loc 1 420 16 is_stmt 0 view .LVU392
 1104 00d8 6641836C 		subw	$1, -2(%r10,%rax,2)
 1104      42FE01
 421:../source/sgl_core.c ****     }
 1105              		.loc 1 421 9 is_stmt 1 view .LVU393
 1106              	.LVL149:
 419:../source/sgl_core.c ****         out[i] -= 1;
 1107              		.loc 1 419 46 discriminator 3 view .LVU394
 419:../source/sgl_core.c ****         out[i] -= 1;
 1108              		.loc 1 419 31 discriminator 1 view .LVU395
 419:../source/sgl_core.c ****         out[i] -= 1;
 1109              		.loc 1 419 40 is_stmt 0 discriminator 1 view .LVU396
 1110 00df 418D1400 		leal	(%r8,%rax), %edx
 1111 00e3 66C1EA0F 		shrw	$15, %dx
 419:../source/sgl_core.c ****         out[i] -= 1;
 1112              		.loc 1 419 23 discriminator 1 view .LVU397
 1113 00e7 39C6     		cmpl	%eax, %esi
 1114 00e9 0F9FC1   		setg	%cl
 419:../source/sgl_core.c ****         out[i] -= 1;
 1115              		.loc 1 419 31 discriminator 1 view .LVU398
GAS LISTING C:\Users\lsw\AppData\Local\Temp\ccdBfdv6.s 			page 50


 1116 00ec 4883C001 		addq	$1, %rax
 1117              	.LVL150:
 419:../source/sgl_core.c ****         out[i] -= 1;
 1118              		.loc 1 419 31 discriminator 1 view .LVU399
 1119 00f0 84D1     		testb	%dl, %cl
 1120 00f2 75E4     		jne	.L88
 1121              	.LBE129:
 423:../source/sgl_core.c **** 
 1122              		.loc 1 423 1 view .LVU400
 1123 00f4 5B       		popq	%rbx
 1124              		.cfi_restore 3
 1125              		.cfi_def_cfa_offset 48
 1126 00f5 5E       		popq	%rsi
 1127              		.cfi_restore 4
 1128              		.cfi_def_cfa_offset 40
 1129              	.LVL151:
 423:../source/sgl_core.c **** 
 1130              		.loc 1 423 1 view .LVU401
 1131 00f6 5F       		popq	%rdi
 1132              		.cfi_restore 5
 1133              		.cfi_def_cfa_offset 32
 1134 00f7 5D       		popq	%rbp
 1135              		.cfi_restore 6
 1136              		.cfi_def_cfa_offset 24
 1137              	.LVL152:
 423:../source/sgl_core.c **** 
 1138              		.loc 1 423 1 view .LVU402
 1139 00f8 415C     		popq	%r12
 1140              		.cfi_restore 12
 1141              		.cfi_def_cfa_offset 16
 1142              	.LVL153:
 423:../source/sgl_core.c **** 
 1143              		.loc 1 423 1 view .LVU403
 1144 00fa 415D     		popq	%r13
 1145              		.cfi_restore 13
 1146              		.cfi_def_cfa_offset 8
 1147 00fc C3       		ret
 1148              		.cfi_endproc
 1149              	.LFE86:
 1150              		.seh_endproc
 1151 00fd 909090   		.section	.text$sgl_split_len_avg,"x"
 1152              		.p2align 4
 1153              		.globl	sgl_split_len_avg
 1155              		.seh_proc	sgl_split_len_avg
 1156              	sgl_split_len_avg:
 1157              	.LVL154:
 1158              	.LFB87:
 435:../source/sgl_core.c ****     int16_t available_length = length - (count + 1) * gap;
 1159              		.loc 1 435 1 is_stmt 1 view -0
 1160              		.cfi_startproc
 435:../source/sgl_core.c ****     int16_t available_length = length - (count + 1) * gap;
 1161              		.loc 1 435 1 is_stmt 0 view .LVU405
 1162 0000 56       		pushq	%rsi
 1163              		.seh_pushreg	%rsi
 1164              		.cfi_def_cfa_offset 16
 1165              		.cfi_offset 4, -16
 1166 0001 53       		pushq	%rbx
GAS LISTING C:\Users\lsw\AppData\Local\Temp\ccdBfdv6.s 			page 51


 1167              		.seh_pushreg	%rbx
 1168              		.cfi_def_cfa_offset 24
 1169              		.cfi_offset 3, -24
 1170              		.seh_endprologue
 436:../source/sgl_core.c ****     int16_t base = available_length / count;
 1171              		.loc 1 436 5 is_stmt 1 view .LVU406
 1172              	.LVL155:
 437:../source/sgl_core.c ****     int16_t remainder = available_length % count;
 1173              		.loc 1 437 5 view .LVU407
 436:../source/sgl_core.c ****     int16_t base = available_length / count;
 1174              		.loc 1 436 48 is_stmt 0 view .LVU408
 1175 0002 8D4201   		leal	1(%rdx), %eax
 435:../source/sgl_core.c ****     int16_t available_length = length - (count + 1) * gap;
 1176              		.loc 1 435 1 view .LVU409
 1177 0005 4189D2   		movl	%edx, %r10d
 436:../source/sgl_core.c ****     int16_t base = available_length / count;
 1178              		.loc 1 436 39 view .LVU410
 1179 0008 440FAFC0 		imull	%eax, %r8d
 1180              	.LVL156:
 436:../source/sgl_core.c ****     int16_t base = available_length / count;
 1181              		.loc 1 436 39 view .LVU411
 1182 000c 4429C1   		subl	%r8d, %ecx
 1183              	.LVL157:
 437:../source/sgl_core.c ****     int16_t remainder = available_length % count;
 1184              		.loc 1 437 37 view .LVU412
 1185 000f 0FBFC1   		movswl	%cx, %eax
 1186 0012 99       		cltd
 1187              	.LVL158:
 437:../source/sgl_core.c ****     int16_t remainder = available_length % count;
 1188              		.loc 1 437 37 view .LVU413
 1189 0013 41F7FA   		idivl	%r10d
 1190              	.LBB130:
 441:../source/sgl_core.c ****         out[i] = base;
 1191              		.loc 1 441 23 discriminator 1 view .LVU414
 1192 0016 4585D2   		testl	%r10d, %r10d
 1193              	.LBE130:
 437:../source/sgl_core.c ****     int16_t remainder = available_length % count;
 1194              		.loc 1 437 13 view .LVU415
 1195 0019 89C6     		movl	%eax, %esi
 1196              	.LVL159:
 438:../source/sgl_core.c **** 
 1197              		.loc 1 438 5 is_stmt 1 view .LVU416
 440:../source/sgl_core.c ****     for (int i = 0; i < count; i++) {
 1198              		.loc 1 440 5 view .LVU417
 441:../source/sgl_core.c ****         out[i] = base;
 1199              		.loc 1 441 5 view .LVU418
 1200              	.LBB131:
 441:../source/sgl_core.c ****         out[i] = base;
 1201              		.loc 1 441 10 view .LVU419
 441:../source/sgl_core.c ****         out[i] = base;
 1202              		.loc 1 441 23 discriminator 1 view .LVU420
 1203 001b 7E43     		jle	.L94
 445:../source/sgl_core.c ****             out[i] += 1;
 1204              		.loc 1 445 27 is_stmt 0 view .LVU421
 1205 001d 4489D3   		movl	%r10d, %ebx
 1206 0020 4963CA   		movslq	%r10d, %rcx
 1207              	.LBE131:
GAS LISTING C:\Users\lsw\AppData\Local\Temp\ccdBfdv6.s 			page 52


 440:../source/sgl_core.c ****     for (int i = 0; i < count; i++) {
 1208              		.loc 1 440 13 view .LVU422
 1209 0023 4531C0   		xorl	%r8d, %r8d
 1210 0026 4D8D1C49 		leaq	(%r9,%rcx,2), %r11
 1211              	.LBB132:
 445:../source/sgl_core.c ****             out[i] += 1;
 1212              		.loc 1 445 27 view .LVU423
 1213 002a D1FB     		sarl	%ebx
 446:../source/sgl_core.c ****             error -= count;
 1214              		.loc 1 446 20 view .LVU424
 1215 002c 83C001   		addl	$1, %eax
 1216              	.LVL160:
 446:../source/sgl_core.c ****             error -= count;
 1217              		.loc 1 446 20 view .LVU425
 1218 002f EB14     		jmp	.L98
 1219              	.LVL161:
 1220              		.p2align 4,,10
 1221 0031 0F1F8000 		.p2align 3
 1221      000000
 1222              	.L101:
 442:../source/sgl_core.c ****         error += remainder;
 1223              		.loc 1 442 16 view .LVU426
 1224 0038 66418931 		movw	%si, (%r9)
 441:../source/sgl_core.c ****         out[i] = base;
 1225              		.loc 1 441 33 is_stmt 1 discriminator 2 view .LVU427
 1226              	.LVL162:
 441:../source/sgl_core.c ****         out[i] = base;
 1227              		.loc 1 441 23 discriminator 1 view .LVU428
 1228 003c 4983C102 		addq	$2, %r9
 1229              	.LVL163:
 441:../source/sgl_core.c ****         out[i] = base;
 1230              		.loc 1 441 23 is_stmt 0 discriminator 1 view .LVU429
 1231 0040 4D39CB   		cmpq	%r9, %r11
 1232 0043 741B     		je	.L94
 1233              	.LVL164:
 1234              	.L98:
 442:../source/sgl_core.c ****         error += remainder;
 1235              		.loc 1 442 9 is_stmt 1 view .LVU430
 443:../source/sgl_core.c **** 
 1236              		.loc 1 443 9 view .LVU431
 443:../source/sgl_core.c **** 
 1237              		.loc 1 443 15 is_stmt 0 view .LVU432
 1238 0045 4101D0   		addl	%edx, %r8d
 1239              	.LVL165:
 445:../source/sgl_core.c ****             out[i] += 1;
 1240              		.loc 1 445 9 is_stmt 1 view .LVU433
 445:../source/sgl_core.c ****             out[i] += 1;
 1241              		.loc 1 445 19 is_stmt 0 view .LVU434
 1242 0048 410FBFC8 		movswl	%r8w, %ecx
 445:../source/sgl_core.c ****             out[i] += 1;
 1243              		.loc 1 445 12 view .LVU435
 1244 004c 39D9     		cmpl	%ebx, %ecx
 1245 004e 7EE8     		jle	.L101
 446:../source/sgl_core.c ****             error -= count;
 1246              		.loc 1 446 13 is_stmt 1 view .LVU436
 446:../source/sgl_core.c ****             error -= count;
 1247              		.loc 1 446 20 is_stmt 0 view .LVU437
GAS LISTING C:\Users\lsw\AppData\Local\Temp\ccdBfdv6.s 			page 53


 1248 0050 66418901 		movw	%ax, (%r9)
 447:../source/sgl_core.c ****         }
 1249              		.loc 1 447 13 is_stmt 1 view .LVU438
 441:../source/sgl_core.c ****         out[i] = base;
 1250              		.loc 1 441 23 is_stmt 0 discriminator 1 view .LVU439
 1251 0054 4983C102 		addq	$2, %r9
 1252              	.LVL166:
 447:../source/sgl_core.c ****         }
 1253              		.loc 1 447 19 view .LVU440
 1254 0058 4529D0   		subl	%r10d, %r8d
 1255              	.LVL167:
 441:../source/sgl_core.c ****         out[i] = base;
 1256              		.loc 1 441 33 is_stmt 1 discriminator 2 view .LVU441
 441:../source/sgl_core.c ****         out[i] = base;
 1257              		.loc 1 441 23 discriminator 1 view .LVU442
 1258 005b 4D39CB   		cmpq	%r9, %r11
 1259 005e 75E5     		jne	.L98
 1260              	.LVL168:
 1261              	.L94:
 441:../source/sgl_core.c ****         out[i] = base;
 1262              		.loc 1 441 23 is_stmt 0 discriminator 1 view .LVU443
 1263              	.LBE132:
 450:../source/sgl_core.c **** 
 1264              		.loc 1 450 1 view .LVU444
 1265 0060 5B       		popq	%rbx
 1266              		.cfi_restore 3
 1267              		.cfi_def_cfa_offset 16
 1268 0061 5E       		popq	%rsi
 1269              		.cfi_restore 4
 1270              		.cfi_def_cfa_offset 8
 1271              	.LVL169:
 450:../source/sgl_core.c **** 
 1272              		.loc 1 450 1 view .LVU445
 1273 0062 C3       		ret
 1274              		.cfi_endproc
 1275              	.LFE87:
 1276              		.seh_endproc
 1277 0063 90909090 		.section	.text$sgl_rand,"x"
 1277      90909090 
 1277      90909090 
 1277      90
 1278              		.p2align 4
 1279              		.globl	sgl_rand
 1281              		.seh_proc	sgl_rand
 1282              	sgl_rand:
 1283              	.LFB88:
 463:../source/sgl_core.c ****     rand_next = rand_next * 1103515245 + 12345;
 1284              		.loc 1 463 1 is_stmt 1 view -0
 1285              		.cfi_startproc
 1286              		.seh_endprologue
 464:../source/sgl_core.c ****     return (unsigned int)(rand_next / 65536) % 32768;
 1287              		.loc 1 464 5 view .LVU447
 464:../source/sgl_core.c ****     return (unsigned int)(rand_next / 65536) % 32768;
 1288              		.loc 1 464 27 is_stmt 0 view .LVU448
 1289 0000 486905FC 		imulq	$1103515245, rand_next(%rip), %rax
 1289      FFFFFF6D 
 1289      4EC641
GAS LISTING C:\Users\lsw\AppData\Local\Temp\ccdBfdv6.s 			page 54


 464:../source/sgl_core.c ****     return (unsigned int)(rand_next / 65536) % 32768;
 1290              		.loc 1 464 40 view .LVU449
 1291 000b 48053930 		addq	$12345, %rax
 1291      0000
 464:../source/sgl_core.c ****     return (unsigned int)(rand_next / 65536) % 32768;
 1292              		.loc 1 464 15 view .LVU450
 1293 0011 48890500 		movq	%rax, rand_next(%rip)
 1293      000000
 465:../source/sgl_core.c **** }
 1294              		.loc 1 465 5 is_stmt 1 view .LVU451
 465:../source/sgl_core.c **** }
 1295              		.loc 1 465 37 is_stmt 0 view .LVU452
 1296 0018 48C1E810 		shrq	$16, %rax
 465:../source/sgl_core.c **** }
 1297              		.loc 1 465 46 view .LVU453
 1298 001c 6625FF7F 		andw	$32767, %ax
 466:../source/sgl_core.c **** 
 1299              		.loc 1 466 1 view .LVU454
 1300 0020 C3       		ret
 1301              		.cfi_endproc
 1302              	.LFE88:
 1303              		.seh_endproc
 1304 0021 90909090 		.section	.text$sgl_srand,"x"
 1304      90909090 
 1304      90909090 
 1304      909090
 1305              		.p2align 4
 1306              		.globl	sgl_srand
 1308              		.seh_proc	sgl_srand
 1309              	sgl_srand:
 1310              	.LVL170:
 1311              	.LFB89:
 475:../source/sgl_core.c ****     rand_next = seed;
 1312              		.loc 1 475 1 is_stmt 1 view -0
 1313              		.cfi_startproc
 475:../source/sgl_core.c ****     rand_next = seed;
 1314              		.loc 1 475 1 is_stmt 0 view .LVU456
 1315              		.seh_endprologue
 476:../source/sgl_core.c **** }
 1316              		.loc 1 476 5 is_stmt 1 view .LVU457
 476:../source/sgl_core.c **** }
 1317              		.loc 1 476 15 is_stmt 0 view .LVU458
 1318 0000 89C8     		movl	%ecx, %eax
 1319 0002 48890500 		movq	%rax, rand_next(%rip)
 1319      000000
 477:../source/sgl_core.c **** 
 1320              		.loc 1 477 1 view .LVU459
 1321 0009 C3       		ret
 1322              		.cfi_endproc
 1323              	.LFE89:
 1324              		.seh_endproc
 1325 000a 90909090 		.section .rdata,"dr"
 1325      9090
 1326              	.LC1:
 1327 0000 30313233 		.ascii "0123456789abcdef\0"
 1327      34353637 
 1327      38396162 
GAS LISTING C:\Users\lsw\AppData\Local\Temp\ccdBfdv6.s 			page 55


 1327      63646566 
 1327      00
 1328              	.LC2:
 1329 0011 30313233 		.ascii "0123456789ABCDEF\0"
 1329      34353637 
 1329      38394142 
 1329      43444546 
 1329      00
 1330              		.section	.text$sgl_vsnprintf,"x"
 1331              		.p2align 4
 1332              		.globl	sgl_vsnprintf
 1334              		.seh_proc	sgl_vsnprintf
 1335              	sgl_vsnprintf:
 1336              	.LVL171:
 1337              	.LFB97:
 647:../source/sgl_core.c ****     size_t pos = 0;
 1338              		.loc 1 647 1 is_stmt 1 view -0
 1339              		.cfi_startproc
 647:../source/sgl_core.c ****     size_t pos = 0;
 1340              		.loc 1 647 1 is_stmt 0 view .LVU461
 1341 0000 4157     		pushq	%r15
 1342              		.seh_pushreg	%r15
 1343              		.cfi_def_cfa_offset 16
 1344              		.cfi_offset 15, -16
 1345 0002 4156     		pushq	%r14
 1346              		.seh_pushreg	%r14
 1347              		.cfi_def_cfa_offset 24
 1348              		.cfi_offset 14, -24
 1349 0004 4155     		pushq	%r13
 1350              		.seh_pushreg	%r13
 1351              		.cfi_def_cfa_offset 32
 1352              		.cfi_offset 13, -32
 1353 0006 4154     		pushq	%r12
 1354              		.seh_pushreg	%r12
 1355              		.cfi_def_cfa_offset 40
 1356              		.cfi_offset 12, -40
 1357 0008 55       		pushq	%rbp
 1358              		.seh_pushreg	%rbp
 1359              		.cfi_def_cfa_offset 48
 1360              		.cfi_offset 6, -48
 1361 0009 57       		pushq	%rdi
 1362              		.seh_pushreg	%rdi
 1363              		.cfi_def_cfa_offset 56
 1364              		.cfi_offset 5, -56
 1365 000a 56       		pushq	%rsi
 1366              		.seh_pushreg	%rsi
 1367              		.cfi_def_cfa_offset 64
 1368              		.cfi_offset 4, -64
 1369 000b 53       		pushq	%rbx
 1370              		.seh_pushreg	%rbx
 1371              		.cfi_def_cfa_offset 72
 1372              		.cfi_offset 3, -72
 1373 000c 4883EC58 		subq	$88, %rsp
 1374              		.seh_stackalloc	88
 1375              		.cfi_def_cfa_offset 160
 1376              		.seh_endprologue
 647:../source/sgl_core.c ****     size_t pos = 0;
GAS LISTING C:\Users\lsw\AppData\Local\Temp\ccdBfdv6.s 			page 56


 1377              		.loc 1 647 1 view .LVU462
 1378 0010 4989D2   		movq	%rdx, %r10
 648:../source/sgl_core.c **** 
 1379              		.loc 1 648 5 is_stmt 1 view .LVU463
 1380              	.LVL172:
 650:../source/sgl_core.c ****         char c = *fmt;
 1381              		.loc 1 650 5 view .LVU464
 650:../source/sgl_core.c ****         char c = *fmt;
 1382              		.loc 1 650 12 view .LVU465
 1383 0013 410FB610 		movzbl	(%r8), %edx
 1384              	.LVL173:
 647:../source/sgl_core.c ****     size_t pos = 0;
 1385              		.loc 1 647 1 is_stmt 0 view .LVU466
 1386 0017 4889CB   		movq	%rcx, %rbx
 650:../source/sgl_core.c ****         char c = *fmt;
 1387              		.loc 1 650 12 view .LVU467
 1388 001a 84D2     		testb	%dl, %dl
 1389 001c 0F84BC05 		je	.L105
 1389      0000
 1390              	.LBB200:
 684:../source/sgl_core.c ****         case 's': {
 1391              		.loc 1 684 9 view .LVU468
 1392 0022 4C8D2D24 		leaq	.L118(%rip), %r13
 1392      000000
 1393              	.LBE200:
 648:../source/sgl_core.c **** 
 1394              		.loc 1 648 12 view .LVU469
 1395 0029 31C9     		xorl	%ecx, %ecx
 1396              	.LVL174:
 648:../source/sgl_core.c **** 
 1397              		.loc 1 648 12 view .LVU470
 1398 002b EB21     		jmp	.L162
 1399              	.LVL175:
 1400 002d 0F1F00   		.p2align 4,,10
 1401              		.p2align 3
 1402              	.L215:
 1403              	.LBB307:
 654:../source/sgl_core.c ****             fmt++;
 1404              		.loc 1 654 13 is_stmt 1 view .LVU471
 1405              	.LBB201:
 1406              	.LBI201:
 487:../source/sgl_core.c **** {
 1407              		.loc 1 487 20 view .LVU472
 1408              	.LBB202:
 489:../source/sgl_core.c ****         buf[*pos] = c;
 1409              		.loc 1 489 5 view .LVU473
 489:../source/sgl_core.c ****         buf[*pos] = c;
 1410              		.loc 1 489 14 is_stmt 0 view .LVU474
 1411 0030 4C8D4101 		leaq	1(%rcx), %r8
 1412              	.LVL176:
 489:../source/sgl_core.c ****         buf[*pos] = c;
 1413              		.loc 1 489 8 view .LVU475
 1414 0034 4D39D0   		cmpq	%r10, %r8
 1415 0037 7303     		jnb	.L107
 490:../source/sgl_core.c ****     }
 1416              		.loc 1 490 9 is_stmt 1 view .LVU476
 490:../source/sgl_core.c ****     }
GAS LISTING C:\Users\lsw\AppData\Local\Temp\ccdBfdv6.s 			page 57


 1417              		.loc 1 490 19 is_stmt 0 view .LVU477
 1418 0039 88140B   		movb	%dl, (%rbx,%rcx)
 1419              	.L107:
 492:../source/sgl_core.c **** }
 1420              		.loc 1 492 5 is_stmt 1 view .LVU478
 1421              	.LVL177:
 492:../source/sgl_core.c **** }
 1422              		.loc 1 492 5 is_stmt 0 view .LVU479
 1423              	.LBE202:
 1424              	.LBE201:
 655:../source/sgl_core.c ****             continue;
 1425              		.loc 1 655 13 is_stmt 1 view .LVU480
 656:../source/sgl_core.c ****         }
 1426              		.loc 1 656 13 view .LVU481
 1427              	.LBB205:
 1428              	.LBB203:
 492:../source/sgl_core.c **** }
 1429              		.loc 1 492 11 is_stmt 0 view .LVU482
 1430 003c 4C89C1   		movq	%r8, %rcx
 1431              	.LVL178:
 492:../source/sgl_core.c **** }
 1432              		.loc 1 492 11 view .LVU483
 1433              	.LBE203:
 1434              	.LBE205:
 655:../source/sgl_core.c ****             continue;
 1435              		.loc 1 655 16 view .LVU484
 1436 003f 4989C0   		movq	%rax, %r8
 1437              	.LVL179:
 1438              	.L108:
 655:../source/sgl_core.c ****             continue;
 1439              		.loc 1 655 16 view .LVU485
 1440              	.LBE307:
 650:../source/sgl_core.c ****         char c = *fmt;
 1441              		.loc 1 650 12 is_stmt 1 view .LVU486
 1442 0042 410FB610 		movzbl	(%r8), %edx
 1443 0046 84D2     		testb	%dl, %dl
 1444 0048 0F848A00 		je	.L214
 1444      0000
 1445              	.LVL180:
 1446              	.L162:
 1447              	.LBB308:
 651:../source/sgl_core.c **** 
 1448              		.loc 1 651 9 view .LVU487
 653:../source/sgl_core.c ****             append_char(buf, size, &pos, c);
 1449              		.loc 1 653 9 view .LVU488
 655:../source/sgl_core.c ****             continue;
 1450              		.loc 1 655 16 is_stmt 0 view .LVU489
 1451 004e 498D4001 		leaq	1(%r8), %rax
 653:../source/sgl_core.c ****             append_char(buf, size, &pos, c);
 1452              		.loc 1 653 12 view .LVU490
 1453 0052 80FA25   		cmpb	$37, %dl
 1454 0055 75D9     		jne	.L215
 659:../source/sgl_core.c ****         bool left_align = false;
 1455              		.loc 1 659 9 is_stmt 1 view .LVU491
 1456              	.LVL181:
 660:../source/sgl_core.c ****         int width = 0;
 1457              		.loc 1 660 9 view .LVU492
GAS LISTING C:\Users\lsw\AppData\Local\Temp\ccdBfdv6.s 			page 58


 661:../source/sgl_core.c ****         int precision = -1;
 1458              		.loc 1 661 9 view .LVU493
 662:../source/sgl_core.c **** 
 1459              		.loc 1 662 9 view .LVU494
 664:../source/sgl_core.c ****             left_align = true;
 1460              		.loc 1 664 9 view .LVU495
 664:../source/sgl_core.c ****             left_align = true;
 1461              		.loc 1 664 13 is_stmt 0 view .LVU496
 1462 0057 410FB650 		movzbl	1(%r8), %edx
 1462      01
 1463              	.LVL182:
 660:../source/sgl_core.c ****         int width = 0;
 1464              		.loc 1 660 14 view .LVU497
 1465 005c 4531E4   		xorl	%r12d, %r12d
 664:../source/sgl_core.c ****             left_align = true;
 1466              		.loc 1 664 12 view .LVU498
 1467 005f 80FA2D   		cmpb	$45, %dl
 1468 0062 750F     		jne	.L109
 665:../source/sgl_core.c ****             fmt++;
 1469              		.loc 1 665 13 is_stmt 1 view .LVU499
 1470              	.LVL183:
 666:../source/sgl_core.c ****         }
 1471              		.loc 1 666 13 view .LVU500
 669:../source/sgl_core.c ****             width = width * 10 + (*fmt - '0');
 1472              		.loc 1 669 16 is_stmt 0 view .LVU501
 1473 0064 410FB650 		movzbl	2(%r8), %edx
 1473      02
 666:../source/sgl_core.c ****         }
 1474              		.loc 1 666 16 view .LVU502
 1475 0069 498D4002 		leaq	2(%r8), %rax
 1476              	.LVL184:
 665:../source/sgl_core.c ****             fmt++;
 1477              		.loc 1 665 24 view .LVU503
 1478 006d 41BC0100 		movl	$1, %r12d
 1478      0000
 1479              	.LVL185:
 1480              	.L109:
 669:../source/sgl_core.c ****             width = width * 10 + (*fmt - '0');
 1481              		.loc 1 669 28 is_stmt 1 view .LVU504
 1482 0073 448D5AD0 		leal	-48(%rdx), %r11d
 1483 0077 4531C0   		xorl	%r8d, %r8d
 1484 007a 4180FB09 		cmpb	$9, %r11b
 1485 007e 771F     		ja	.L111
 1486              	.LVL186:
 1487              		.p2align 4,,10
 1488              		.p2align 3
 1489              	.L110:
 670:../source/sgl_core.c ****             fmt++;
 1490              		.loc 1 670 13 view .LVU505
 670:../source/sgl_core.c ****             fmt++;
 1491              		.loc 1 670 27 is_stmt 0 view .LVU506
 1492 0080 478D0480 		leal	(%r8,%r8,4), %r8d
 1493              	.LVL187:
 670:../source/sgl_core.c ****             fmt++;
 1494              		.loc 1 670 40 view .LVU507
 1495 0084 83EA30   		subl	$48, %edx
 671:../source/sgl_core.c ****         }
GAS LISTING C:\Users\lsw\AppData\Local\Temp\ccdBfdv6.s 			page 59


 1496              		.loc 1 671 16 view .LVU508
 1497 0087 4883C001 		addq	$1, %rax
 1498              	.LVL188:
 670:../source/sgl_core.c ****             fmt++;
 1499              		.loc 1 670 40 view .LVU509
 1500 008b 0FBED2   		movsbl	%dl, %edx
 670:../source/sgl_core.c ****             fmt++;
 1501              		.loc 1 670 19 view .LVU510
 1502 008e 468D0442 		leal	(%rdx,%r8,2), %r8d
 1503              	.LVL189:
 671:../source/sgl_core.c ****         }
 1504              		.loc 1 671 13 is_stmt 1 view .LVU511
 669:../source/sgl_core.c ****             width = width * 10 + (*fmt - '0');
 1505              		.loc 1 669 28 view .LVU512
 669:../source/sgl_core.c ****             width = width * 10 + (*fmt - '0');
 1506              		.loc 1 669 16 is_stmt 0 view .LVU513
 1507 0092 0FB610   		movzbl	(%rax), %edx
 669:../source/sgl_core.c ****             width = width * 10 + (*fmt - '0');
 1508              		.loc 1 669 28 view .LVU514
 1509 0095 448D5AD0 		leal	-48(%rdx), %r11d
 1510 0099 4180FB09 		cmpb	$9, %r11b
 1511 009d 76E1     		jbe	.L110
 1512              	.LVL190:
 1513              	.L111:
 674:../source/sgl_core.c ****             fmt++;
 1514              		.loc 1 674 9 is_stmt 1 view .LVU515
 674:../source/sgl_core.c ****             fmt++;
 1515              		.loc 1 674 12 is_stmt 0 view .LVU516
 1516 009f 80FA2E   		cmpb	$46, %dl
 1517 00a2 0F846804 		je	.L216
 1517      0000
 683:../source/sgl_core.c ****         switch (spec) {
 1518              		.loc 1 683 14 view .LVU517
 1519 00a8 0FB610   		movzbl	(%rax), %edx
 662:../source/sgl_core.c **** 
 1520              		.loc 1 662 13 view .LVU518
 1521 00ab BEFFFFFF 		movl	$-1, %esi
 1521      FF
 1522              	.LVL191:
 1523              	.L113:
 683:../source/sgl_core.c ****         switch (spec) {
 1524              		.loc 1 683 9 is_stmt 1 view .LVU519
 684:../source/sgl_core.c ****         case 's': {
 1525              		.loc 1 684 9 view .LVU520
 1526 00b0 80FA25   		cmpb	$37, %dl
 1527 00b3 0F84A704 		je	.L115
 1527      0000
 1528              	.LVL192:
 1529              	.L222:
 684:../source/sgl_core.c ****         case 's': {
 1530              		.loc 1 684 9 is_stmt 0 view .LVU521
 1531 00b9 448D5AA8 		leal	-88(%rdx), %r11d
 1532 00bd 4180FB20 		cmpb	$32, %r11b
 1533 00c1 7745     		ja	.L116
 1534 00c3 450FB6DB 		movzbl	%r11b, %r11d
 1535 00c7 4F635C9D 		movslq	0(%r13,%r11,4), %r11
 1535      00
GAS LISTING C:\Users\lsw\AppData\Local\Temp\ccdBfdv6.s 			page 60


 1536 00cc 4D01EB   		addq	%r13, %r11
 1537 00cf 41FFE3   		jmp	*%r11
 1538              		.section .rdata,"dr"
 1539 0022 0000     		.align 4
 1540              	.L118:
 1541 0024 9F040000 		.long	.L123-.L118
 1542 0028 10010000 		.long	.L116-.L118
 1543 002c 14010000 		.long	.L116-.L118
 1544 0030 18010000 		.long	.L116-.L118
 1545 0034 1C010000 		.long	.L116-.L118
 1546 0038 20010000 		.long	.L116-.L118
 1547 003c 24010000 		.long	.L116-.L118
 1548 0040 28010000 		.long	.L116-.L118
 1549 0044 2C010000 		.long	.L116-.L118
 1550 0048 30010000 		.long	.L116-.L118
 1551 004c 34010000 		.long	.L116-.L118
 1552 0050 AB040000 		.long	.L122-.L118
 1553 0054 57030000 		.long	.L121-.L118
 1554 0058 40010000 		.long	.L116-.L118
 1555 005c 0E020000 		.long	.L120-.L118
 1556 0060 48010000 		.long	.L116-.L118
 1557 0064 4C010000 		.long	.L116-.L118
 1558 0068 50010000 		.long	.L116-.L118
 1559 006c 54010000 		.long	.L116-.L118
 1560 0070 58010000 		.long	.L116-.L118
 1561 0074 5C010000 		.long	.L116-.L118
 1562 0078 60010000 		.long	.L116-.L118
 1563 007c 64010000 		.long	.L116-.L118
 1564 0080 68010000 		.long	.L116-.L118
 1565 0084 6C010000 		.long	.L116-.L118
 1566 0088 70010000 		.long	.L116-.L118
 1567 008c 74010000 		.long	.L116-.L118
 1568 0090 0A020000 		.long	.L119-.L118
 1569 0094 7C010000 		.long	.L116-.L118
 1570 0098 80010000 		.long	.L116-.L118
 1571 009c 84010000 		.long	.L116-.L118
 1572 00a0 88010000 		.long	.L116-.L118
 1573 00a4 AF010000 		.long	.L117-.L118
 1574              		.section	.text$sgl_vsnprintf,"x"
 1575              	.LVL193:
 1576              		.p2align 4,,10
 1577 00d2 660F1F44 		.p2align 3
 1577      0000
 1578              	.L214:
 684:../source/sgl_core.c ****         case 's': {
 1579              		.loc 1 684 9 view .LVU522
 1580              	.LBE308:
 735:../source/sgl_core.c ****         buf[(pos < size) ? pos : (size - 1)] = '\0';
 1581              		.loc 1 735 5 is_stmt 1 view .LVU523
 735:../source/sgl_core.c ****         buf[(pos < size) ? pos : (size - 1)] = '\0';
 1582              		.loc 1 735 8 is_stmt 0 view .LVU524
 1583 00d8 4D85D2   		testq	%r10, %r10
 739:../source/sgl_core.c **** }
 1584              		.loc 1 739 12 view .LVU525
 1585 00db 89C8     		movl	%ecx, %eax
 735:../source/sgl_core.c ****         buf[(pos < size) ? pos : (size - 1)] = '\0';
 1586              		.loc 1 735 8 view .LVU526
GAS LISTING C:\Users\lsw\AppData\Local\Temp\ccdBfdv6.s 			page 61


 1587 00dd 7413     		je	.L104
 736:../source/sgl_core.c ****     }
 1588              		.loc 1 736 9 is_stmt 1 view .LVU527
 736:../source/sgl_core.c ****     }
 1589              		.loc 1 736 12 is_stmt 0 discriminator 4 view .LVU528
 1590 00df 488D140B 		leaq	(%rbx,%rcx), %rdx
 1591 00e3 4C39D1   		cmpq	%r10, %rcx
 1592 00e6 4A8D5C13 		leaq	-1(%rbx,%r10), %rbx
 1592      FF
 1593              	.LVL194:
 736:../source/sgl_core.c ****     }
 1594              		.loc 1 736 12 discriminator 4 view .LVU529
 1595 00eb 480F42DA 		cmovb	%rdx, %rbx
 1596              	.LVL195:
 1597              	.L164:
 736:../source/sgl_core.c ****     }
 1598              		.loc 1 736 46 discriminator 4 view .LVU530
 1599 00ef C60300   		movb	$0, (%rbx)
 739:../source/sgl_core.c **** }
 1600              		.loc 1 739 5 is_stmt 1 view .LVU531
 1601              	.L104:
 740:../source/sgl_core.c **** 
 1602              		.loc 1 740 1 is_stmt 0 view .LVU532
 1603 00f2 4883C458 		addq	$88, %rsp
 1604              		.cfi_remember_state
 1605              		.cfi_def_cfa_offset 72
 1606 00f6 5B       		popq	%rbx
 1607              		.cfi_restore 3
 1608              		.cfi_def_cfa_offset 64
 1609 00f7 5E       		popq	%rsi
 1610              		.cfi_restore 4
 1611              		.cfi_def_cfa_offset 56
 1612 00f8 5F       		popq	%rdi
 1613              		.cfi_restore 5
 1614              		.cfi_def_cfa_offset 48
 1615 00f9 5D       		popq	%rbp
 1616              		.cfi_restore 6
 1617              		.cfi_def_cfa_offset 40
 1618 00fa 415C     		popq	%r12
 1619              		.cfi_restore 12
 1620              		.cfi_def_cfa_offset 32
 1621 00fc 415D     		popq	%r13
 1622              		.cfi_restore 13
 1623              		.cfi_def_cfa_offset 24
 1624 00fe 415E     		popq	%r14
 1625              		.cfi_restore 14
 1626              		.cfi_def_cfa_offset 16
 1627 0100 415F     		popq	%r15
 1628              		.cfi_restore 15
 1629              		.cfi_def_cfa_offset 8
 1630 0102 C3       		ret
 1631              	.LVL196:
 1632              		.p2align 4,,10
 1633 0103 0F1F4400 		.p2align 3
 1633      00
 1634              	.L116:
 1635              		.cfi_restore_state
GAS LISTING C:\Users\lsw\AppData\Local\Temp\ccdBfdv6.s 			page 62


 1636              	.LBB309:
 727:../source/sgl_core.c ****             append_char(buf, size, &pos, spec);
 1637              		.loc 1 727 13 is_stmt 1 view .LVU533
 1638              	.LBB206:
 1639              	.LBI206:
 487:../source/sgl_core.c **** {
 1640              		.loc 1 487 20 view .LVU534
 1641              	.LBB207:
 489:../source/sgl_core.c ****         buf[*pos] = c;
 1642              		.loc 1 489 5 view .LVU535
 489:../source/sgl_core.c ****         buf[*pos] = c;
 1643              		.loc 1 489 14 is_stmt 0 view .LVU536
 1644 0108 4C8D4101 		leaq	1(%rcx), %r8
 489:../source/sgl_core.c ****         buf[*pos] = c;
 1645              		.loc 1 489 8 view .LVU537
 1646 010c 4D39D0   		cmpq	%r10, %r8
 1647 010f 7304     		jnb	.L160
 490:../source/sgl_core.c ****     }
 1648              		.loc 1 490 9 is_stmt 1 view .LVU538
 490:../source/sgl_core.c ****     }
 1649              		.loc 1 490 19 is_stmt 0 view .LVU539
 1650 0111 C6040B25 		movb	$37, (%rbx,%rcx)
 1651              	.L160:
 492:../source/sgl_core.c **** }
 1652              		.loc 1 492 5 is_stmt 1 view .LVU540
 1653              	.LVL197:
 492:../source/sgl_core.c **** }
 1654              		.loc 1 492 5 is_stmt 0 view .LVU541
 1655              	.LBE207:
 1656              	.LBE206:
 728:../source/sgl_core.c ****             break;
 1657              		.loc 1 728 13 is_stmt 1 view .LVU542
 1658              	.LBB208:
 1659              	.LBI208:
 487:../source/sgl_core.c **** {
 1660              		.loc 1 487 20 view .LVU543
 1661              	.LBB209:
 489:../source/sgl_core.c ****         buf[*pos] = c;
 1662              		.loc 1 489 5 view .LVU544
 489:../source/sgl_core.c ****         buf[*pos] = c;
 1663              		.loc 1 489 14 is_stmt 0 view .LVU545
 1664 0115 4883C102 		addq	$2, %rcx
 1665              	.LVL198:
 489:../source/sgl_core.c ****         buf[*pos] = c;
 1666              		.loc 1 489 8 view .LVU546
 1667 0119 4C39D1   		cmpq	%r10, %rcx
 1668 011c 7304     		jnb	.L124
 490:../source/sgl_core.c ****     }
 1669              		.loc 1 490 9 is_stmt 1 view .LVU547
 490:../source/sgl_core.c ****     }
 1670              		.loc 1 490 19 is_stmt 0 view .LVU548
 1671 011e 42881403 		movb	%dl, (%rbx,%r8)
 1672              	.LVL199:
 1673              	.L124:
 490:../source/sgl_core.c ****     }
 1674              		.loc 1 490 19 view .LVU549
 1675              	.LBE209:
GAS LISTING C:\Users\lsw\AppData\Local\Temp\ccdBfdv6.s 			page 63


 1676              	.LBE208:
 732:../source/sgl_core.c ****     }
 1677              		.loc 1 732 9 is_stmt 1 view .LVU550
 732:../source/sgl_core.c ****     }
 1678              		.loc 1 732 12 is_stmt 0 view .LVU551
 1679 0122 4C8D4001 		leaq	1(%rax), %r8
 1680              	.LVL200:
 732:../source/sgl_core.c ****     }
 1681              		.loc 1 732 12 view .LVU552
 1682 0126 E917FFFF 		jmp	.L108
 1682      FF
 1683              	.LVL201:
 1684              	.L117:
 1685              	.LBB210:
 698:../source/sgl_core.c ****             append_hex(buf, size, &pos, x, false);
 1686              		.loc 1 698 13 is_stmt 1 view .LVU553
 698:../source/sgl_core.c ****             append_hex(buf, size, &pos, x, false);
 1687              		.loc 1 698 26 is_stmt 0 view .LVU554
 1688 012b 458B01   		movl	(%r9), %r8d
 1689 012e 498D7108 		leaq	8(%r9), %rsi
 1690              	.LVL202:
 699:../source/sgl_core.c ****             break;
 1691              		.loc 1 699 13 is_stmt 1 view .LVU555
 1692              	.LBB211:
 1693              	.LBI211:
 593:../source/sgl_core.c **** {
 1694              		.loc 1 593 20 view .LVU556
 1695              	.LBB212:
 595:../source/sgl_core.c ****     int i = 0;
 1696              		.loc 1 595 5 view .LVU557
 596:../source/sgl_core.c ****     const char *digits = upper ? "0123456789ABCDEF" : "0123456789abcdef";
 1697              		.loc 1 596 5 view .LVU558
 597:../source/sgl_core.c **** 
 1698              		.loc 1 597 5 view .LVU559
 597:../source/sgl_core.c **** 
 1699              		.loc 1 597 5 is_stmt 0 view .LVU560
 1700              	.LBE212:
 1701              	.LBE211:
 698:../source/sgl_core.c ****             append_hex(buf, size, &pos, x, false);
 1702              		.loc 1 698 26 view .LVU561
 1703 0132 31D2     		xorl	%edx, %edx
 1704 0134 4C8D5C24 		leaq	16(%rsp), %r11
 1704      10
 1705 0139 488D3D00 		leaq	.LC1(%rip), %rdi
 1705      000000
 1706              	.LVL203:
 1707              		.p2align 4,,10
 1708              		.p2align 3
 1709              	.L139:
 1710              	.LBB216:
 1711              	.LBB215:
 599:../source/sgl_core.c ****         tmp[i++] = digits[val & 0xF];
 1712              		.loc 1 599 5 is_stmt 1 view .LVU562
 600:../source/sgl_core.c ****         val >>= 4;
 1713              		.loc 1 600 9 view .LVU563
 600:../source/sgl_core.c ****         val >>= 4;
 1714              		.loc 1 600 31 is_stmt 0 view .LVU564
GAS LISTING C:\Users\lsw\AppData\Local\Temp\ccdBfdv6.s 			page 64


 1715 0140 4589C1   		movl	%r8d, %r9d
 601:../source/sgl_core.c ****     } while (val);
 1716              		.loc 1 601 13 view .LVU565
 1717 0143 41C1E804 		shrl	$4, %r8d
 1718              	.LVL204:
 600:../source/sgl_core.c ****         val >>= 4;
 1719              		.loc 1 600 31 view .LVU566
 1720 0147 4183E10F 		andl	$15, %r9d
 1721              	.LVL205:
 600:../source/sgl_core.c ****         val >>= 4;
 1722              		.loc 1 600 18 view .LVU567
 1723 014b 460FB60C 		movzbl	(%rdi,%r9), %r9d
 1723      0F
 1724 0150 45880C13 		movb	%r9b, (%r11,%rdx)
 601:../source/sgl_core.c ****     } while (val);
 1725              		.loc 1 601 9 is_stmt 1 view .LVU568
 1726              	.LVL206:
 602:../source/sgl_core.c **** 
 1727              		.loc 1 602 14 discriminator 1 view .LVU569
 1728 0154 4989D1   		movq	%rdx, %r9
 1729 0157 4883C201 		addq	$1, %rdx
 1730              	.LVL207:
 602:../source/sgl_core.c **** 
 1731              		.loc 1 602 14 is_stmt 0 discriminator 1 view .LVU570
 1732 015b 4585C0   		testl	%r8d, %r8d
 1733 015e 75E0     		jne	.L139
 1734 0160 488D5101 		leaq	1(%rcx), %rdx
 1735 0164 4D63C1   		movslq	%r9d, %r8
 1736              	.LVL208:
 602:../source/sgl_core.c **** 
 1737              		.loc 1 602 14 discriminator 1 view .LVU571
 1738 0167 4D01D8   		addq	%r11, %r8
 1739 016a 4901D1   		addq	%rdx, %r9
 1740              	.LVL209:
 602:../source/sgl_core.c **** 
 1741              		.loc 1 602 14 discriminator 1 view .LVU572
 1742 016d EB05     		jmp	.L141
 1743              	.LVL210:
 1744 016f 90       		.p2align 4,,10
 1745              		.p2align 3
 1746              	.L217:
 602:../source/sgl_core.c **** 
 1747              		.loc 1 602 14 discriminator 1 view .LVU573
 1748 0170 4883C201 		addq	$1, %rdx
 1749              	.LVL211:
 1750              	.L141:
 604:../source/sgl_core.c **** }
 1751              		.loc 1 604 17 is_stmt 1 discriminator 2 view .LVU574
 1752              	.LBB213:
 1753              	.LBI213:
 487:../source/sgl_core.c **** {
 1754              		.loc 1 487 20 view .LVU575
 1755              	.LBB214:
 489:../source/sgl_core.c ****         buf[*pos] = c;
 1756              		.loc 1 489 5 view .LVU576
 489:../source/sgl_core.c ****         buf[*pos] = c;
 1757              		.loc 1 489 8 is_stmt 0 view .LVU577
GAS LISTING C:\Users\lsw\AppData\Local\Temp\ccdBfdv6.s 			page 65


 1758 0174 4C39D2   		cmpq	%r10, %rdx
 489:../source/sgl_core.c ****         buf[*pos] = c;
 1759              		.loc 1 489 14 view .LVU578
 1760 0177 4889D1   		movq	%rdx, %rcx
 489:../source/sgl_core.c ****         buf[*pos] = c;
 1761              		.loc 1 489 8 view .LVU579
 1762 017a 7309     		jnb	.L140
 490:../source/sgl_core.c ****     }
 1763              		.loc 1 490 9 is_stmt 1 view .LVU580
 490:../source/sgl_core.c ****     }
 1764              		.loc 1 490 19 is_stmt 0 view .LVU581
 1765 017c 450FB618 		movzbl	(%r8), %r11d
 1766 0180 44885C13 		movb	%r11b, -1(%rbx,%rdx)
 1766      FF
 1767              	.L140:
 1768              	.LVL212:
 490:../source/sgl_core.c ****     }
 1769              		.loc 1 490 19 view .LVU582
 1770              	.LBE214:
 1771              	.LBE213:
 604:../source/sgl_core.c **** }
 1772              		.loc 1 604 12 is_stmt 1 discriminator 1 view .LVU583
 604:../source/sgl_core.c **** }
 1773              		.loc 1 604 12 is_stmt 0 discriminator 1 view .LVU584
 1774 0185 4983E801 		subq	$1, %r8
 1775 0189 4939D1   		cmpq	%rdx, %r9
 1776 018c 75E2     		jne	.L217
 1777              	.LBE215:
 1778              	.LBE216:
 1779              	.LBE210:
 1780              	.LBB217:
 706:../source/sgl_core.c ****         }
 1781              		.loc 1 706 13 is_stmt 1 view .LVU585
 704:../source/sgl_core.c ****             append_hex(buf, size, &pos, x, true);
 1782              		.loc 1 704 26 is_stmt 0 view .LVU586
 1783 018e 4989F1   		movq	%rsi, %r9
 1784              	.LVL213:
 1785              	.L221:
 704:../source/sgl_core.c ****             append_hex(buf, size, &pos, x, true);
 1786              		.loc 1 704 26 view .LVU587
 1787              	.LBE217:
 732:../source/sgl_core.c ****     }
 1788              		.loc 1 732 9 is_stmt 1 view .LVU588
 732:../source/sgl_core.c ****     }
 1789              		.loc 1 732 12 is_stmt 0 view .LVU589
 1790 0191 4C8D4001 		leaq	1(%rax), %r8
 1791              	.LVL214:
 732:../source/sgl_core.c ****     }
 1792              		.loc 1 732 12 view .LVU590
 1793 0195 E9A8FEFF 		jmp	.L108
 1793      FF
 1794              	.LVL215:
 1795              	.L119:
 1796              	.LBB224:
 686:../source/sgl_core.c ****             append_str(buf, size, &pos, s);
 1797              		.loc 1 686 13 is_stmt 1 view .LVU591
 686:../source/sgl_core.c ****             append_str(buf, size, &pos, s);
GAS LISTING C:\Users\lsw\AppData\Local\Temp\ccdBfdv6.s 			page 66


 1798              		.loc 1 686 25 is_stmt 0 view .LVU592
 1799 019a 4D8B01   		movq	(%r9), %r8
 1800 019d 4D8D5908 		leaq	8(%r9), %r11
 1801              	.LVL216:
 687:../source/sgl_core.c ****             break;
 1802              		.loc 1 687 13 is_stmt 1 view .LVU593
 1803              	.LBB225:
 1804              	.LBI225:
 502:../source/sgl_core.c **** {
 1805              		.loc 1 502 20 view .LVU594
 1806              	.LBB226:
 504:../source/sgl_core.c **** }
 1807              		.loc 1 504 5 view .LVU595
 504:../source/sgl_core.c **** }
 1808              		.loc 1 504 12 discriminator 1 view .LVU596
 1809 01a1 410FB610 		movzbl	(%r8), %edx
 1810 01a5 84D2     		testb	%dl, %dl
 1811 01a7 741D     		je	.L170
 1812 01a9 4929C8   		subq	%rcx, %r8
 1813              	.LVL217:
 1814 01ac 0F1F4000 		.p2align 4,,10
 1815              		.p2align 3
 1816              	.L126:
 504:../source/sgl_core.c **** }
 1817              		.loc 1 504 16 discriminator 2 view .LVU597
 1818              	.LBB227:
 1819              	.LBI227:
 487:../source/sgl_core.c **** {
 1820              		.loc 1 487 20 view .LVU598
 1821              	.LBB228:
 489:../source/sgl_core.c ****         buf[*pos] = c;
 1822              		.loc 1 489 5 view .LVU599
 489:../source/sgl_core.c ****         buf[*pos] = c;
 1823              		.loc 1 489 14 is_stmt 0 view .LVU600
 1824 01b0 4883C101 		addq	$1, %rcx
 1825              	.LVL218:
 489:../source/sgl_core.c ****         buf[*pos] = c;
 1826              		.loc 1 489 8 view .LVU601
 1827 01b4 4C39D1   		cmpq	%r10, %rcx
 1828 01b7 7304     		jnb	.L125
 490:../source/sgl_core.c ****     }
 1829              		.loc 1 490 9 is_stmt 1 view .LVU602
 490:../source/sgl_core.c ****     }
 1830              		.loc 1 490 19 is_stmt 0 view .LVU603
 1831 01b9 88540BFF 		movb	%dl, -1(%rbx,%rcx)
 1832              	.L125:
 1833              	.LVL219:
 490:../source/sgl_core.c ****     }
 1834              		.loc 1 490 19 view .LVU604
 1835              	.LBE228:
 1836              	.LBE227:
 504:../source/sgl_core.c **** }
 1837              		.loc 1 504 12 is_stmt 1 discriminator 1 view .LVU605
 1838 01bd 410FB614 		movzbl	(%r8,%rcx), %edx
 1838      08
 1839 01c2 84D2     		testb	%dl, %dl
 1840 01c4 75EA     		jne	.L126
GAS LISTING C:\Users\lsw\AppData\Local\Temp\ccdBfdv6.s 			page 67


 1841              	.LVL220:
 1842              	.L170:
 504:../source/sgl_core.c **** }
 1843              		.loc 1 504 12 is_stmt 0 discriminator 1 view .LVU606
 1844              	.LBE226:
 1845              	.LBE225:
 1846              	.LBE224:
 732:../source/sgl_core.c ****     }
 1847              		.loc 1 732 12 view .LVU607
 1848 01c6 4C8D4001 		leaq	1(%rax), %r8
 1849              	.LBB229:
 686:../source/sgl_core.c ****             append_str(buf, size, &pos, s);
 1850              		.loc 1 686 25 view .LVU608
 1851 01ca 4D89D9   		movq	%r11, %r9
 1852              	.LVL221:
 686:../source/sgl_core.c ****             append_str(buf, size, &pos, s);
 1853              		.loc 1 686 25 view .LVU609
 1854              	.LBE229:
 732:../source/sgl_core.c ****     }
 1855              		.loc 1 732 9 is_stmt 1 view .LVU610
 732:../source/sgl_core.c ****     }
 1856              		.loc 1 732 9 is_stmt 0 view .LVU611
 1857 01cd E970FEFF 		jmp	.L108
 1857      FF
 1858              	.LVL222:
 1859              	.L120:
 1860              	.LBB230:
 710:../source/sgl_core.c ****             append_float(buf, size, &pos, f, precision);
 1861              		.loc 1 710 13 is_stmt 1 view .LVU612
 710:../source/sgl_core.c ****             append_float(buf, size, &pos, f, precision);
 1862              		.loc 1 710 20 is_stmt 0 view .LVU613
 1863 01d2 F2410F10 		movsd	(%r9), %xmm1
 1863      09
 1864              	.LBB231:
 1865              	.LBB232:
 618:../source/sgl_core.c ****     
 1866              		.loc 1 618 23 view .LVU614
 1867 01d7 660FEFD2 		pxor	%xmm2, %xmm2
 1868              	.LBE232:
 1869              	.LBE231:
 710:../source/sgl_core.c ****             append_float(buf, size, &pos, f, precision);
 1870              		.loc 1 710 20 view .LVU615
 1871 01db 4D8D6108 		leaq	8(%r9), %r12
 1872              	.LVL223:
 711:../source/sgl_core.c ****             break;
 1873              		.loc 1 711 13 is_stmt 1 view .LVU616
 1874              	.LBB268:
 1875              	.LBI231:
 615:../source/sgl_core.c **** {
 1876              		.loc 1 615 13 view .LVU617
 1877              	.LBB264:
 617:../source/sgl_core.c ****     double frac = val - int_part;
 1878              		.loc 1 617 5 view .LVU618
 617:../source/sgl_core.c ****     double frac = val - int_part;
 1879              		.loc 1 617 9 is_stmt 0 view .LVU619
 1880 01df F2440F2C 		cvttsd2sil	%xmm1, %r14d
 1880      F1
GAS LISTING C:\Users\lsw\AppData\Local\Temp\ccdBfdv6.s 			page 68


 1881              	.LVL224:
 618:../source/sgl_core.c ****     
 1882              		.loc 1 618 5 is_stmt 1 view .LVU620
 618:../source/sgl_core.c ****     
 1883              		.loc 1 618 12 is_stmt 0 view .LVU621
 1884 01e4 660F28C1 		movapd	%xmm1, %xmm0
 618:../source/sgl_core.c ****     
 1885              		.loc 1 618 23 view .LVU622
 1886 01e8 F2410F2A 		cvtsi2sdl	%r14d, %xmm2
 1886      D6
 618:../source/sgl_core.c ****     
 1887              		.loc 1 618 12 view .LVU623
 1888 01ed F20F5CC2 		subsd	%xmm2, %xmm0
 1889              	.LVL225:
 620:../source/sgl_core.c ****         append_char(buf, size, pos, '-');
 1890              		.loc 1 620 5 is_stmt 1 view .LVU624
 620:../source/sgl_core.c ****         append_char(buf, size, pos, '-');
 1891              		.loc 1 620 8 is_stmt 0 view .LVU625
 1892 01f1 660FEFD2 		pxor	%xmm2, %xmm2
 1893 01f5 660F2FD1 		comisd	%xmm1, %xmm2
 1894 01f9 0F878B03 		ja	.L218
 1894      0000
 626:../source/sgl_core.c ****     append_char(buf, size, pos, '.');
 1895              		.loc 1 626 5 is_stmt 1 view .LVU626
 1896              	.LVL226:
 1897              	.LBB233:
 1898              	.LBI233:
 553:../source/sgl_core.c **** {
 1899              		.loc 1 553 20 view .LVU627
 1900              	.LBB234:
 555:../source/sgl_core.c ****     int i = 0;
 1901              		.loc 1 555 5 view .LVU628
 556:../source/sgl_core.c ****     bool neg = val < 0;
 1902              		.loc 1 556 5 view .LVU629
 557:../source/sgl_core.c ****     size_t num_len = int_str_len(val);
 1903              		.loc 1 557 5 view .LVU630
 558:../source/sgl_core.c ****     size_t pad_len = 0;
 1904              		.loc 1 558 5 view .LVU631
 1905              	.LBB235:
 1906              	.LBI235:
 527:../source/sgl_core.c **** {
 1907              		.loc 1 527 22 view .LVU632
 1908              	.LBB236:
 529:../source/sgl_core.c **** 
 1909              		.loc 1 529 5 view .LVU633
 534:../source/sgl_core.c **** 
 1910              		.loc 1 534 8 is_stmt 0 view .LVU634
 1911 01ff 4489F2   		movl	%r14d, %edx
 1912 0202 F7DA     		negl	%edx
 1913 0204 410F48D6 		cmovs	%r14d, %edx
 529:../source/sgl_core.c **** 
 1914              		.loc 1 529 8 view .LVU635
 1915 0208 4585F6   		testl	%r14d, %r14d
 1916 020b 7420     		je	.L148
 1917              	.LVL227:
 1918              	.L223:
 529:../source/sgl_core.c **** 
GAS LISTING C:\Users\lsw\AppData\Local\Temp\ccdBfdv6.s 			page 69


 1919              		.loc 1 529 8 view .LVU636
 1920 020d 4189D1   		movl	%edx, %r9d
 1921              	.LVL228:
 1922              		.p2align 4,,10
 1923              		.p2align 3
 1924              	.L149:
 536:../source/sgl_core.c ****         len++;
 1925              		.loc 1 536 5 is_stmt 1 view .LVU637
 537:../source/sgl_core.c ****         val /= 10;
 1926              		.loc 1 537 9 view .LVU638
 538:../source/sgl_core.c ****     } while (val);
 1927              		.loc 1 538 9 view .LVU639
 538:../source/sgl_core.c ****     } while (val);
 1928              		.loc 1 538 13 is_stmt 0 view .LVU640
 1929 0210 4D63C1   		movslq	%r9d, %r8
 1930 0213 4589CB   		movl	%r9d, %r11d
 1931 0216 4D69C067 		imulq	$1717986919, %r8, %r8
 1931      666666
 1932 021d 41C1FB1F 		sarl	$31, %r11d
 1933 0221 49C1F822 		sarq	$34, %r8
 1934              	.LVL229:
 539:../source/sgl_core.c **** 
 1935              		.loc 1 539 14 is_stmt 1 discriminator 1 view .LVU641
 1936 0225 4589C1   		movl	%r8d, %r9d
 1937 0228 4529D9   		subl	%r11d, %r9d
 1938              	.LVL230:
 539:../source/sgl_core.c **** 
 1939              		.loc 1 539 14 is_stmt 0 discriminator 1 view .LVU642
 1940 022b 75E3     		jne	.L149
 1941              	.LVL231:
 1942              	.L148:
 539:../source/sgl_core.c **** 
 1943              		.loc 1 539 14 discriminator 1 view .LVU643
 1944 022d 4C8D5C24 		leaq	16(%rsp), %r11
 1944      10
 1945 0232 31ED     		xorl	%ebp, %ebp
 1946 0234 4D89D9   		movq	%r11, %r9
 1947              	.LVL232:
 1948 0237 660F1F84 		.p2align 4,,10
 1948      00000000 
 1948      00
 1949              		.p2align 3
 1950              	.L150:
 539:../source/sgl_core.c **** 
 1951              		.loc 1 539 14 discriminator 1 view .LVU644
 1952              	.LBE236:
 1953              	.LBE235:
 571:../source/sgl_core.c ****         tmp[i++] = '0' + (val % 10);
 1954              		.loc 1 571 5 is_stmt 1 view .LVU645
 572:../source/sgl_core.c ****         val /= 10;
 1955              		.loc 1 572 9 view .LVU646
 572:../source/sgl_core.c ****         val /= 10;
 1956              		.loc 1 572 31 is_stmt 0 view .LVU647
 1957 0240 4C63C2   		movslq	%edx, %r8
 1958 0243 4189D7   		movl	%edx, %r15d
 1959 0246 4863FD   		movslq	%ebp, %rdi
 1960 0249 4D69C067 		imulq	$1717986919, %r8, %r8
GAS LISTING C:\Users\lsw\AppData\Local\Temp\ccdBfdv6.s 			page 70


 1960      666666
 1961 0250 41C1FF1F 		sarl	$31, %r15d
 574:../source/sgl_core.c **** 
 1962              		.loc 1 574 14 discriminator 1 view .LVU648
 1963 0254 4983C101 		addq	$1, %r9
 572:../source/sgl_core.c ****         val /= 10;
 1964              		.loc 1 572 14 view .LVU649
 1965 0258 8D6F01   		leal	1(%rdi), %ebp
 1966              	.LVL233:
 572:../source/sgl_core.c ****         val /= 10;
 1967              		.loc 1 572 31 view .LVU650
 1968 025b 49C1F822 		sarq	$34, %r8
 1969 025f 4529F8   		subl	%r15d, %r8d
 1970 0262 478D3C80 		leal	(%r8,%r8,4), %r15d
 1971 0266 4501FF   		addl	%r15d, %r15d
 1972 0269 4429FA   		subl	%r15d, %edx
 1973              	.LVL234:
 572:../source/sgl_core.c ****         val /= 10;
 1974              		.loc 1 572 24 view .LVU651
 1975 026c 83C230   		addl	$48, %edx
 1976 026f 418851FF 		movb	%dl, -1(%r9)
 573:../source/sgl_core.c ****     } while (val);
 1977              		.loc 1 573 9 is_stmt 1 view .LVU652
 574:../source/sgl_core.c **** 
 1978              		.loc 1 574 14 is_stmt 0 discriminator 1 view .LVU653
 1979 0273 4585C0   		testl	%r8d, %r8d
 573:../source/sgl_core.c ****     } while (val);
 1980              		.loc 1 573 13 view .LVU654
 1981 0276 4489C2   		movl	%r8d, %edx
 1982              	.LVL235:
 574:../source/sgl_core.c **** 
 1983              		.loc 1 574 14 is_stmt 1 discriminator 1 view .LVU655
 1984 0279 75C5     		jne	.L150
 576:../source/sgl_core.c **** 
 1985              		.loc 1 576 5 view .LVU656
 576:../source/sgl_core.c **** 
 1986              		.loc 1 576 8 is_stmt 0 view .LVU657
 1987 027b 4585F6   		testl	%r14d, %r14d
 1988 027e 0F88F502 		js	.L219
 1988      0000
 1989              	.L151:
 1990              	.LVL236:
 576:../source/sgl_core.c **** 
 1991              		.loc 1 576 8 view .LVU658
 1992 0284 4C8D4C39 		leaq	1(%rcx,%rdi), %r9
 1992      01
 1993 0289 4901FB   		addq	%rdi, %r11
 578:../source/sgl_core.c **** 
 1994              		.loc 1 578 13 discriminator 1 view .LVU659
 1995 028c 4989C8   		movq	%rcx, %r8
 1996 028f 90       		.p2align 4,,10
 1997              		.p2align 3
 1998              	.L153:
 1999              	.LVL237:
 578:../source/sgl_core.c **** 
 2000              		.loc 1 578 17 is_stmt 1 discriminator 2 view .LVU660
 2001              	.LBB238:
GAS LISTING C:\Users\lsw\AppData\Local\Temp\ccdBfdv6.s 			page 71


 2002              	.LBI238:
 487:../source/sgl_core.c **** {
 2003              		.loc 1 487 20 view .LVU661
 2004              	.LBB239:
 489:../source/sgl_core.c ****         buf[*pos] = c;
 2005              		.loc 1 489 5 view .LVU662
 489:../source/sgl_core.c ****         buf[*pos] = c;
 2006              		.loc 1 489 14 is_stmt 0 view .LVU663
 2007 0290 4983C001 		addq	$1, %r8
 2008              	.LVL238:
 489:../source/sgl_core.c ****         buf[*pos] = c;
 2009              		.loc 1 489 8 view .LVU664
 2010 0294 4D39D0   		cmpq	%r10, %r8
 2011 0297 7309     		jnb	.L152
 490:../source/sgl_core.c ****     }
 2012              		.loc 1 490 9 is_stmt 1 view .LVU665
 490:../source/sgl_core.c ****     }
 2013              		.loc 1 490 19 is_stmt 0 view .LVU666
 2014 0299 410FB62B 		movzbl	(%r11), %ebp
 2015 029d 42886C03 		movb	%bpl, -1(%rbx,%r8)
 2015      FF
 2016              	.L152:
 2017              	.LVL239:
 490:../source/sgl_core.c ****     }
 2018              		.loc 1 490 19 view .LVU667
 2019              	.LBE239:
 2020              	.LBE238:
 578:../source/sgl_core.c **** 
 2021              		.loc 1 578 12 is_stmt 1 discriminator 1 view .LVU668
 578:../source/sgl_core.c **** 
 2022              		.loc 1 578 12 is_stmt 0 discriminator 1 view .LVU669
 2023 02a2 4983EB01 		subq	$1, %r11
 2024 02a6 4D39C1   		cmpq	%r8, %r9
 2025 02a9 75E5     		jne	.L153
 580:../source/sgl_core.c ****         pad_align(buf, size, pos, pad_len, ' ');
 2026              		.loc 1 580 5 is_stmt 1 view .LVU670
 2027              	.LVL240:
 580:../source/sgl_core.c ****         pad_align(buf, size, pos, pad_len, ' ');
 2028              		.loc 1 580 5 is_stmt 0 view .LVU671
 2029              	.LBE234:
 2030              	.LBE233:
 627:../source/sgl_core.c **** 
 2031              		.loc 1 627 5 is_stmt 1 view .LVU672
 2032              	.LBB243:
 2033              	.LBI243:
 487:../source/sgl_core.c **** {
 2034              		.loc 1 487 20 view .LVU673
 2035              	.LBB244:
 489:../source/sgl_core.c ****         buf[*pos] = c;
 2036              		.loc 1 489 5 view .LVU674
 489:../source/sgl_core.c ****         buf[*pos] = c;
 2037              		.loc 1 489 14 is_stmt 0 view .LVU675
 2038 02ab 488D4C39 		leaq	2(%rcx,%rdi), %rcx
 2038      02
 489:../source/sgl_core.c ****         buf[*pos] = c;
 2039              		.loc 1 489 8 view .LVU676
 2040 02b0 4C39D1   		cmpq	%r10, %rcx
GAS LISTING C:\Users\lsw\AppData\Local\Temp\ccdBfdv6.s 			page 72


 2041 02b3 7305     		jnb	.L154
 490:../source/sgl_core.c ****     }
 2042              		.loc 1 490 9 is_stmt 1 view .LVU677
 490:../source/sgl_core.c ****     }
 2043              		.loc 1 490 19 is_stmt 0 view .LVU678
 2044 02b5 42C6040B 		movb	$46, (%rbx,%r9)
 2044      2E
 2045              	.L154:
 492:../source/sgl_core.c **** }
 2046              		.loc 1 492 5 is_stmt 1 view .LVU679
 2047              	.LVL241:
 492:../source/sgl_core.c **** }
 2048              		.loc 1 492 5 is_stmt 0 view .LVU680
 2049              	.LBE244:
 2050              	.LBE243:
 629:../source/sgl_core.c ****     for (int i = 0; i < prec; i++) {
 2051              		.loc 1 629 5 is_stmt 1 view .LVU681
 629:../source/sgl_core.c ****     for (int i = 0; i < prec; i++) {
 2052              		.loc 1 629 45 is_stmt 0 view .LVU682
 2053 02ba 85F6     		testl	%esi, %esi
 2054 02bc 0F88FA02 		js	.L174
 2054      0000
 2055              	.LVL242:
 630:../source/sgl_core.c ****         frac *= 10;
 2056              		.loc 1 630 5 is_stmt 1 view .LVU683
 2057              	.LBB246:
 630:../source/sgl_core.c ****         frac *= 10;
 2058              		.loc 1 630 10 view .LVU684
 630:../source/sgl_core.c ****         frac *= 10;
 2059              		.loc 1 630 23 discriminator 1 view .LVU685
 2060              	.LBE246:
 2061              	.LBE264:
 2062              	.LBE268:
 710:../source/sgl_core.c ****             append_float(buf, size, &pos, f, precision);
 2063              		.loc 1 710 20 is_stmt 0 view .LVU686
 2064 02c2 4D89E1   		movq	%r12, %r9
 2065              	.LBB269:
 2066              	.LBB265:
 2067              	.LBB255:
 630:../source/sgl_core.c ****         frac *= 10;
 2068              		.loc 1 630 23 discriminator 1 view .LVU687
 2069 02c5 0F8457FE 		je	.L124
 2069      FFFF
 2070              	.LVL243:
 2071              	.L155:
 630:../source/sgl_core.c ****         frac *= 10;
 2072              		.loc 1 630 23 discriminator 1 view .LVU688
 2073 02cb F20F1015 		movsd	.LC5(%rip), %xmm2
 2073      90030000 
 2074              	.LBE255:
 2075              	.LBB256:
 2076              	.LBB245:
 492:../source/sgl_core.c **** }
 2077              		.loc 1 492 11 view .LVU689
 2078 02d3 4989C8   		movq	%rcx, %r8
 2079 02d6 662E0F1F 		.p2align 4,,10
 2079      84000000 
GAS LISTING C:\Users\lsw\AppData\Local\Temp\ccdBfdv6.s 			page 73


 2079      0000
 2080              		.p2align 3
 2081              	.L157:
 2082              	.LVL244:
 492:../source/sgl_core.c **** }
 2083              		.loc 1 492 11 view .LVU690
 2084              	.LBE245:
 2085              	.LBE256:
 2086              	.LBB257:
 2087              	.LBB247:
 631:../source/sgl_core.c ****         int d = (int)frac;
 2088              		.loc 1 631 9 is_stmt 1 view .LVU691
 631:../source/sgl_core.c ****         int d = (int)frac;
 2089              		.loc 1 631 14 is_stmt 0 view .LVU692
 2090 02e0 F20F59C2 		mulsd	%xmm2, %xmm0
 2091              	.LVL245:
 632:../source/sgl_core.c ****         append_char(buf, size, pos, '0' + d);
 2092              		.loc 1 632 9 is_stmt 1 view .LVU693
 2093              	.LBB248:
 2094              	.LBB249:
 489:../source/sgl_core.c ****         buf[*pos] = c;
 2095              		.loc 1 489 14 is_stmt 0 view .LVU694
 2096 02e4 4983C001 		addq	$1, %r8
 2097              	.LVL246:
 489:../source/sgl_core.c ****         buf[*pos] = c;
 2098              		.loc 1 489 8 view .LVU695
 2099 02e8 4D39D0   		cmpq	%r10, %r8
 2100              	.LBE249:
 2101              	.LBE248:
 632:../source/sgl_core.c ****         append_char(buf, size, pos, '0' + d);
 2102              		.loc 1 632 13 view .LVU696
 2103 02eb F2440F2C 		cvttsd2sil	%xmm0, %r9d
 2103      C8
 2104              	.LVL247:
 633:../source/sgl_core.c ****         frac -= d;
 2105              		.loc 1 633 9 is_stmt 1 view .LVU697
 2106              	.LBB252:
 2107              	.LBI248:
 487:../source/sgl_core.c **** {
 2108              		.loc 1 487 20 view .LVU698
 2109              	.LBB250:
 489:../source/sgl_core.c ****         buf[*pos] = c;
 2110              		.loc 1 489 5 view .LVU699
 489:../source/sgl_core.c ****         buf[*pos] = c;
 2111              		.loc 1 489 8 is_stmt 0 view .LVU700
 2112 02f0 7309     		jnb	.L156
 490:../source/sgl_core.c ****     }
 2113              		.loc 1 490 9 is_stmt 1 view .LVU701
 2114              	.LBE250:
 2115              	.LBE252:
 633:../source/sgl_core.c ****         frac -= d;
 2116              		.loc 1 633 41 is_stmt 0 view .LVU702
 2117 02f2 458D5930 		leal	48(%r9), %r11d
 2118 02f6 46885C03 		movb	%r11b, -1(%rbx,%r8)
 2118      FF
 2119              	.L156:
 2120              	.LBB253:
GAS LISTING C:\Users\lsw\AppData\Local\Temp\ccdBfdv6.s 			page 74


 2121              	.LBB251:
 492:../source/sgl_core.c **** }
 2122              		.loc 1 492 5 is_stmt 1 view .LVU703
 2123              	.LVL248:
 492:../source/sgl_core.c **** }
 2124              		.loc 1 492 5 is_stmt 0 view .LVU704
 2125              	.LBE251:
 2126              	.LBE253:
 634:../source/sgl_core.c ****     }
 2127              		.loc 1 634 9 is_stmt 1 view .LVU705
 634:../source/sgl_core.c ****     }
 2128              		.loc 1 634 14 is_stmt 0 view .LVU706
 2129 02fb 660FEFC9 		pxor	%xmm1, %xmm1
 2130 02ff F2410F2A 		cvtsi2sdl	%r9d, %xmm1
 2130      C9
 2131              	.LBE247:
 630:../source/sgl_core.c ****         frac *= 10;
 2132              		.loc 1 630 32 discriminator 3 view .LVU707
 2133 0304 83C201   		addl	$1, %edx
 2134              	.LVL249:
 630:../source/sgl_core.c ****         frac *= 10;
 2135              		.loc 1 630 23 discriminator 1 view .LVU708
 2136 0307 39F2     		cmpl	%esi, %edx
 2137              	.LBB254:
 634:../source/sgl_core.c ****     }
 2138              		.loc 1 634 14 view .LVU709
 2139 0309 F20F5CC1 		subsd	%xmm1, %xmm0
 2140              	.LVL250:
 634:../source/sgl_core.c ****     }
 2141              		.loc 1 634 14 view .LVU710
 2142              	.LBE254:
 630:../source/sgl_core.c ****         frac *= 10;
 2143              		.loc 1 630 32 is_stmt 1 discriminator 3 view .LVU711
 630:../source/sgl_core.c ****         frac *= 10;
 2144              		.loc 1 630 23 discriminator 1 view .LVU712
 2145 030d 7CD1     		jl	.L157
 2146 030f 8D56FF   		leal	-1(%rsi), %edx
 2147              	.LVL251:
 630:../source/sgl_core.c ****         frac *= 10;
 2148              		.loc 1 630 23 is_stmt 0 discriminator 1 view .LVU713
 2149              	.LBE257:
 2150              	.LBE265:
 2151              	.LBE269:
 710:../source/sgl_core.c ****             append_float(buf, size, &pos, f, precision);
 2152              		.loc 1 710 20 view .LVU714
 2153 0312 4D89E1   		movq	%r12, %r9
 2154              	.LVL252:
 710:../source/sgl_core.c ****             append_float(buf, size, &pos, f, precision);
 2155              		.loc 1 710 20 view .LVU715
 2156              	.LBE230:
 732:../source/sgl_core.c ****     }
 2157              		.loc 1 732 9 is_stmt 1 view .LVU716
 2158 0315 488D4C11 		leaq	1(%rcx,%rdx), %rcx
 2158      01
 2159              	.LVL253:
 732:../source/sgl_core.c ****     }
 2160              		.loc 1 732 12 is_stmt 0 view .LVU717
GAS LISTING C:\Users\lsw\AppData\Local\Temp\ccdBfdv6.s 			page 75


 2161 031a 4C8D4001 		leaq	1(%rax), %r8
 2162              	.LVL254:
 732:../source/sgl_core.c ****     }
 2163              		.loc 1 732 12 view .LVU718
 2164 031e E91FFDFF 		jmp	.L108
 2164      FF
 2165              	.LVL255:
 2166              	.L121:
 2167              	.LBB272:
 692:../source/sgl_core.c ****             append_int(buf, size, &pos, d, width, left_align);
 2168              		.loc 1 692 13 is_stmt 1 view .LVU719
 692:../source/sgl_core.c ****             append_int(buf, size, &pos, d, width, left_align);
 2169              		.loc 1 692 17 is_stmt 0 view .LVU720
 2170 0323 458B31   		movl	(%r9), %r14d
 2171 0326 4D8D7908 		leaq	8(%r9), %r15
 2172              	.LVL256:
 693:../source/sgl_core.c ****             break;
 2173              		.loc 1 693 13 is_stmt 1 view .LVU721
 2174              	.LBB273:
 2175              	.LBI273:
 553:../source/sgl_core.c **** {
 2176              		.loc 1 553 20 view .LVU722
 2177              	.LBB274:
 555:../source/sgl_core.c ****     int i = 0;
 2178              		.loc 1 555 5 view .LVU723
 556:../source/sgl_core.c ****     bool neg = val < 0;
 2179              		.loc 1 556 5 view .LVU724
 557:../source/sgl_core.c ****     size_t num_len = int_str_len(val);
 2180              		.loc 1 557 5 view .LVU725
 558:../source/sgl_core.c ****     size_t pad_len = 0;
 2181              		.loc 1 558 5 view .LVU726
 2182              	.LBB275:
 2183              	.LBI275:
 527:../source/sgl_core.c **** {
 2184              		.loc 1 527 22 view .LVU727
 2185              	.LBB276:
 529:../source/sgl_core.c **** 
 2186              		.loc 1 529 5 view .LVU728
 529:../source/sgl_core.c **** 
 2187              		.loc 1 529 8 is_stmt 0 view .LVU729
 2188 032a 4585F6   		testl	%r14d, %r14d
 2189 032d 0F849302 		je	.L171
 2189      0000
 531:../source/sgl_core.c ****     bool neg = val < 0;
 2190              		.loc 1 531 5 is_stmt 1 view .LVU730
 2191              	.LVL257:
 532:../source/sgl_core.c ****     
 2192              		.loc 1 532 5 view .LVU731
 534:../source/sgl_core.c **** 
 2193              		.loc 1 534 5 view .LVU732
 534:../source/sgl_core.c **** 
 2194              		.loc 1 534 8 is_stmt 0 view .LVU733
 2195 0333 4589F1   		movl	%r14d, %r9d
 2196 0336 41F7D9   		negl	%r9d
 2197 0339 450F48CE 		cmovs	%r14d, %r9d
 2198 033d 4531DB   		xorl	%r11d, %r11d
 2199 0340 4489CE   		movl	%r9d, %esi
GAS LISTING C:\Users\lsw\AppData\Local\Temp\ccdBfdv6.s 			page 76


 2200              	.LVL258:
 2201              		.p2align 4,,10
 2202 0343 0F1F4400 		.p2align 3
 2202      00
 2203              	.L128:
 536:../source/sgl_core.c ****         len++;
 2204              		.loc 1 536 5 is_stmt 1 view .LVU734
 537:../source/sgl_core.c ****         val /= 10;
 2205              		.loc 1 537 9 view .LVU735
 538:../source/sgl_core.c ****     } while (val);
 2206              		.loc 1 538 13 is_stmt 0 view .LVU736
 2207 0348 4863D6   		movslq	%esi, %rdx
 2208 034b C1FE1F   		sarl	$31, %esi
 2209              	.LVL259:
 538:../source/sgl_core.c ****     } while (val);
 2210              		.loc 1 538 13 view .LVU737
 2211 034e 4C89DF   		movq	%r11, %rdi
 2212 0351 4869D267 		imulq	$1717986919, %rdx, %rdx
 2212      666666
 2213              	.LVL260:
 538:../source/sgl_core.c ****     } while (val);
 2214              		.loc 1 538 13 view .LVU738
 2215 0358 89F5     		movl	%esi, %ebp
 537:../source/sgl_core.c ****         val /= 10;
 2216              		.loc 1 537 12 view .LVU739
 2217 035a 4983C301 		addq	$1, %r11
 2218              	.LVL261:
 538:../source/sgl_core.c ****     } while (val);
 2219              		.loc 1 538 9 is_stmt 1 view .LVU740
 538:../source/sgl_core.c ****     } while (val);
 2220              		.loc 1 538 13 is_stmt 0 view .LVU741
 2221 035e 48C1FA22 		sarq	$34, %rdx
 2222              	.LVL262:
 539:../source/sgl_core.c **** 
 2223              		.loc 1 539 14 is_stmt 1 discriminator 1 view .LVU742
 2224 0362 89D6     		movl	%edx, %esi
 2225              	.LVL263:
 539:../source/sgl_core.c **** 
 2226              		.loc 1 539 14 is_stmt 0 discriminator 1 view .LVU743
 2227 0364 29EE     		subl	%ebp, %esi
 2228              	.LVL264:
 539:../source/sgl_core.c **** 
 2229              		.loc 1 539 14 discriminator 1 view .LVU744
 2230 0366 75E0     		jne	.L128
 541:../source/sgl_core.c **** }
 2231              		.loc 1 541 5 is_stmt 1 view .LVU745
 541:../source/sgl_core.c **** }
 2232              		.loc 1 541 26 is_stmt 0 discriminator 1 view .LVU746
 2233 0368 4883C702 		addq	$2, %rdi
 2234 036c 4585F6   		testl	%r14d, %r14d
 2235 036f 4C0F48DF 		cmovs	%rdi, %r11
 2236              	.LVL265:
 2237              	.L127:
 541:../source/sgl_core.c **** }
 2238              		.loc 1 541 26 discriminator 1 view .LVU747
 2239              	.LBE276:
 2240              	.LBE275:
GAS LISTING C:\Users\lsw\AppData\Local\Temp\ccdBfdv6.s 			page 77


 559:../source/sgl_core.c **** 
 2241              		.loc 1 559 5 is_stmt 1 view .LVU748
 561:../source/sgl_core.c ****         pad_len = (size_t)width - num_len;
 2242              		.loc 1 561 5 view .LVU749
 561:../source/sgl_core.c ****         pad_len = (size_t)width - num_len;
 2243              		.loc 1 561 8 is_stmt 0 view .LVU750
 2244 0373 4585C0   		testl	%r8d, %r8d
 2245 0376 0F8E5802 		jle	.L173
 2245      0000
 561:../source/sgl_core.c ****         pad_len = (size_t)width - num_len;
 2246              		.loc 1 561 22 discriminator 1 view .LVU751
 2247 037c 4963D0   		movslq	%r8d, %rdx
 561:../source/sgl_core.c ****         pad_len = (size_t)width - num_len;
 2248              		.loc 1 561 19 discriminator 1 view .LVU752
 2249 037f 4939D3   		cmpq	%rdx, %r11
 2250 0382 0F834C02 		jnb	.L173
 2250      0000
 562:../source/sgl_core.c ****     }
 2251              		.loc 1 562 9 is_stmt 1 view .LVU753
 562:../source/sgl_core.c ****     }
 2252              		.loc 1 562 17 is_stmt 0 view .LVU754
 2253 0388 4C29DA   		subq	%r11, %rdx
 2254              	.LVL266:
 565:../source/sgl_core.c ****         pad_align(buf, size, pos, pad_len, ' ');
 2255              		.loc 1 565 5 is_stmt 1 view .LVU755
 565:../source/sgl_core.c ****         pad_align(buf, size, pos, pad_len, ' ');
 2256              		.loc 1 565 8 is_stmt 0 view .LVU756
 2257 038b 4584E4   		testb	%r12b, %r12b
 2258 038e 751B     		jne	.L129
 2259 0390 4C8D040A 		leaq	(%rdx,%rcx), %r8
 2260              	.LVL267:
 2261              		.p2align 4,,10
 2262 0394 0F1F4000 		.p2align 3
 2263              	.L131:
 2264              	.LBB278:
 2265              	.LBB279:
 518:../source/sgl_core.c ****     }
 2266              		.loc 1 518 9 is_stmt 1 view .LVU757
 2267              	.LBB280:
 2268              	.LBI280:
 487:../source/sgl_core.c **** {
 2269              		.loc 1 487 20 view .LVU758
 2270              	.LBB281:
 489:../source/sgl_core.c ****         buf[*pos] = c;
 2271              		.loc 1 489 5 view .LVU759
 489:../source/sgl_core.c ****         buf[*pos] = c;
 2272              		.loc 1 489 14 is_stmt 0 view .LVU760
 2273 0398 4883C101 		addq	$1, %rcx
 2274              	.LVL268:
 489:../source/sgl_core.c ****         buf[*pos] = c;
 2275              		.loc 1 489 8 view .LVU761
 2276 039c 4C39D1   		cmpq	%r10, %rcx
 2277 039f 7305     		jnb	.L130
 490:../source/sgl_core.c ****     }
 2278              		.loc 1 490 9 is_stmt 1 view .LVU762
 490:../source/sgl_core.c ****     }
 2279              		.loc 1 490 19 is_stmt 0 view .LVU763
GAS LISTING C:\Users\lsw\AppData\Local\Temp\ccdBfdv6.s 			page 78


 2280 03a1 C6440BFF 		movb	$32, -1(%rbx,%rcx)
 2280      20
 2281              	.L130:
 492:../source/sgl_core.c **** }
 2282              		.loc 1 492 5 is_stmt 1 view .LVU764
 2283              	.LVL269:
 492:../source/sgl_core.c **** }
 2284              		.loc 1 492 5 is_stmt 0 view .LVU765
 2285              	.LBE281:
 2286              	.LBE280:
 517:../source/sgl_core.c ****         append_char(buf, size, pos, pad_char);
 2287              		.loc 1 517 38 is_stmt 1 discriminator 3 view .LVU766
 517:../source/sgl_core.c ****         append_char(buf, size, pos, pad_char);
 2288              		.loc 1 517 26 discriminator 1 view .LVU767
 2289 03a6 4C39C1   		cmpq	%r8, %rcx
 2290 03a9 75ED     		jne	.L131
 2291              	.LVL270:
 2292              	.L129:
 517:../source/sgl_core.c ****         append_char(buf, size, pos, pad_char);
 2293              		.loc 1 517 26 is_stmt 0 discriminator 1 view .LVU768
 2294              	.LBE279:
 2295              	.LBE278:
 569:../source/sgl_core.c **** 
 2296              		.loc 1 569 5 is_stmt 1 view .LVU769
 2297 03ab 4C8D5C24 		leaq	16(%rsp), %r11
 2297      10
 2298              	.LVL271:
 559:../source/sgl_core.c **** 
 2299              		.loc 1 559 12 is_stmt 0 view .LVU770
 2300 03b0 31ED     		xorl	%ebp, %ebp
 2301 03b2 44897424 		movl	%r14d, 12(%rsp)
 2301      0C
 2302 03b7 4C89DE   		movq	%r11, %rsi
 2303              	.LVL272:
 2304 03ba 660F1F44 		.p2align 4,,10
 2304      0000
 2305              		.p2align 3
 2306              	.L132:
 571:../source/sgl_core.c ****         tmp[i++] = '0' + (val % 10);
 2307              		.loc 1 571 5 is_stmt 1 view .LVU771
 572:../source/sgl_core.c ****         val /= 10;
 2308              		.loc 1 572 9 view .LVU772
 572:../source/sgl_core.c ****         val /= 10;
 2309              		.loc 1 572 31 is_stmt 0 view .LVU773
 2310 03c0 4D63C1   		movslq	%r9d, %r8
 2311 03c3 4589CE   		movl	%r9d, %r14d
 2312 03c6 4863FD   		movslq	%ebp, %rdi
 2313 03c9 4D69C067 		imulq	$1717986919, %r8, %r8
 2313      666666
 2314 03d0 41C1FE1F 		sarl	$31, %r14d
 574:../source/sgl_core.c **** 
 2315              		.loc 1 574 14 discriminator 1 view .LVU774
 2316 03d4 4883C601 		addq	$1, %rsi
 572:../source/sgl_core.c ****         val /= 10;
 2317              		.loc 1 572 14 view .LVU775
 2318 03d8 8D6F01   		leal	1(%rdi), %ebp
 2319              	.LVL273:
GAS LISTING C:\Users\lsw\AppData\Local\Temp\ccdBfdv6.s 			page 79


 572:../source/sgl_core.c ****         val /= 10;
 2320              		.loc 1 572 31 view .LVU776
 2321 03db 49C1F822 		sarq	$34, %r8
 2322 03df 4529F0   		subl	%r14d, %r8d
 2323 03e2 478D3480 		leal	(%r8,%r8,4), %r14d
 2324 03e6 4501F6   		addl	%r14d, %r14d
 2325 03e9 4529F1   		subl	%r14d, %r9d
 2326              	.LVL274:
 572:../source/sgl_core.c ****         val /= 10;
 2327              		.loc 1 572 24 view .LVU777
 2328 03ec 4183C130 		addl	$48, %r9d
 2329 03f0 44884EFF 		movb	%r9b, -1(%rsi)
 573:../source/sgl_core.c ****     } while (val);
 2330              		.loc 1 573 9 is_stmt 1 view .LVU778
 574:../source/sgl_core.c **** 
 2331              		.loc 1 574 14 is_stmt 0 discriminator 1 view .LVU779
 2332 03f4 4585C0   		testl	%r8d, %r8d
 573:../source/sgl_core.c ****     } while (val);
 2333              		.loc 1 573 13 view .LVU780
 2334 03f7 4589C1   		movl	%r8d, %r9d
 2335              	.LVL275:
 574:../source/sgl_core.c **** 
 2336              		.loc 1 574 14 is_stmt 1 discriminator 1 view .LVU781
 2337 03fa 75C4     		jne	.L132
 576:../source/sgl_core.c **** 
 2338              		.loc 1 576 8 is_stmt 0 view .LVU782
 2339 03fc 448B7424 		movl	12(%rsp), %r14d
 2339      0C
 576:../source/sgl_core.c **** 
 2340              		.loc 1 576 5 is_stmt 1 view .LVU783
 576:../source/sgl_core.c **** 
 2341              		.loc 1 576 8 is_stmt 0 view .LVU784
 2342 0401 4585F6   		testl	%r14d, %r14d
 2343 0404 790C     		jns	.L133
 576:../source/sgl_core.c **** 
 2344              		.loc 1 576 14 is_stmt 1 discriminator 1 view .LVU785
 2345              	.LVL276:
 576:../source/sgl_core.c **** 
 2346              		.loc 1 576 23 is_stmt 0 discriminator 1 view .LVU786
 2347 0406 4C63C5   		movslq	%ebp, %r8
 2348              	.LVL277:
 578:../source/sgl_core.c **** 
 2349              		.loc 1 578 13 discriminator 1 view .LVU787
 2350 0409 4863FD   		movslq	%ebp, %rdi
 2351              	.LVL278:
 576:../source/sgl_core.c **** 
 2352              		.loc 1 576 23 discriminator 1 view .LVU788
 2353 040c 42C64404 		movb	$45, 16(%rsp,%r8)
 2353      102D
 578:../source/sgl_core.c **** 
 2354              		.loc 1 578 12 is_stmt 1 discriminator 1 view .LVU789
 2355              	.LVL279:
 2356              	.L133:
 578:../source/sgl_core.c **** 
 2357              		.loc 1 578 12 is_stmt 0 discriminator 1 view .LVU790
 2358 0412 4C8D4C39 		leaq	1(%rcx,%rdi), %r9
 2358      01
GAS LISTING C:\Users\lsw\AppData\Local\Temp\ccdBfdv6.s 			page 80


 2359              	.LVL280:
 578:../source/sgl_core.c **** 
 2360              		.loc 1 578 12 discriminator 1 view .LVU791
 2361 0417 4901FB   		addq	%rdi, %r11
 578:../source/sgl_core.c **** 
 2362              		.loc 1 578 13 discriminator 1 view .LVU792
 2363 041a 4989C8   		movq	%rcx, %r8
 2364 041d 0F1F00   		.p2align 4,,10
 2365              		.p2align 3
 2366              	.L135:
 2367              	.LVL281:
 578:../source/sgl_core.c **** 
 2368              		.loc 1 578 17 is_stmt 1 discriminator 2 view .LVU793
 2369              	.LBB282:
 2370              	.LBI282:
 487:../source/sgl_core.c **** {
 2371              		.loc 1 487 20 view .LVU794
 2372              	.LBB283:
 489:../source/sgl_core.c ****         buf[*pos] = c;
 2373              		.loc 1 489 5 view .LVU795
 489:../source/sgl_core.c ****         buf[*pos] = c;
 2374              		.loc 1 489 14 is_stmt 0 view .LVU796
 2375 0420 4983C001 		addq	$1, %r8
 2376              	.LVL282:
 489:../source/sgl_core.c ****         buf[*pos] = c;
 2377              		.loc 1 489 8 view .LVU797
 2378 0424 4D39D0   		cmpq	%r10, %r8
 2379 0427 7309     		jnb	.L134
 490:../source/sgl_core.c ****     }
 2380              		.loc 1 490 9 is_stmt 1 view .LVU798
 490:../source/sgl_core.c ****     }
 2381              		.loc 1 490 19 is_stmt 0 view .LVU799
 2382 0429 410FB633 		movzbl	(%r11), %esi
 2383 042d 42887403 		movb	%sil, -1(%rbx,%r8)
 2383      FF
 2384              	.L134:
 2385              	.LVL283:
 490:../source/sgl_core.c ****     }
 2386              		.loc 1 490 19 view .LVU800
 2387              	.LBE283:
 2388              	.LBE282:
 578:../source/sgl_core.c **** 
 2389              		.loc 1 578 12 is_stmt 1 discriminator 1 view .LVU801
 578:../source/sgl_core.c **** 
 2390              		.loc 1 578 12 is_stmt 0 discriminator 1 view .LVU802
 2391 0432 4983EB01 		subq	$1, %r11
 2392 0436 4D39C1   		cmpq	%r8, %r9
 2393 0439 75E5     		jne	.L135
 2394 043b 4801CF   		addq	%rcx, %rdi
 580:../source/sgl_core.c ****         pad_align(buf, size, pos, pad_len, ' ');
 2395              		.loc 1 580 8 view .LVU803
 2396 043e 4584E4   		testb	%r12b, %r12b
 2397 0441 488D4F01 		leaq	1(%rdi), %rcx
 580:../source/sgl_core.c ****         pad_align(buf, size, pos, pad_len, ' ');
 2398              		.loc 1 580 5 is_stmt 1 view .LVU804
 580:../source/sgl_core.c ****         pad_align(buf, size, pos, pad_len, ' ');
 2399              		.loc 1 580 8 is_stmt 0 view .LVU805
GAS LISTING C:\Users\lsw\AppData\Local\Temp\ccdBfdv6.s 			page 81


 2400 0445 7428     		je	.L136
 2401              	.LVL284:
 2402              	.LBB284:
 2403              	.LBB285:
 517:../source/sgl_core.c ****         append_char(buf, size, pos, pad_char);
 2404              		.loc 1 517 26 is_stmt 1 discriminator 1 view .LVU806
 2405 0447 4885D2   		testq	%rdx, %rdx
 2406 044a 7423     		je	.L136
 2407 044c 4C8D4C3A 		leaq	1(%rdx,%rdi), %r9
 2407      01
 2408 0451 4989C8   		movq	%rcx, %r8
 2409              	.LVL285:
 2410              		.p2align 4,,10
 2411 0454 0F1F4000 		.p2align 3
 2412              	.L138:
 518:../source/sgl_core.c ****     }
 2413              		.loc 1 518 9 view .LVU807
 2414              	.LBB286:
 2415              	.LBI286:
 487:../source/sgl_core.c **** {
 2416              		.loc 1 487 20 view .LVU808
 2417              	.LBB287:
 489:../source/sgl_core.c ****         buf[*pos] = c;
 2418              		.loc 1 489 5 view .LVU809
 489:../source/sgl_core.c ****         buf[*pos] = c;
 2419              		.loc 1 489 14 is_stmt 0 view .LVU810
 2420 0458 4983C001 		addq	$1, %r8
 2421              	.LVL286:
 489:../source/sgl_core.c ****         buf[*pos] = c;
 2422              		.loc 1 489 8 view .LVU811
 2423 045c 4D39D0   		cmpq	%r10, %r8
 2424 045f 7306     		jnb	.L137
 490:../source/sgl_core.c ****     }
 2425              		.loc 1 490 9 is_stmt 1 view .LVU812
 490:../source/sgl_core.c ****     }
 2426              		.loc 1 490 19 is_stmt 0 view .LVU813
 2427 0461 42C64403 		movb	$32, -1(%rbx,%r8)
 2427      FF20
 2428              	.L137:
 492:../source/sgl_core.c **** }
 2429              		.loc 1 492 5 is_stmt 1 view .LVU814
 2430              	.LVL287:
 492:../source/sgl_core.c **** }
 2431              		.loc 1 492 5 is_stmt 0 view .LVU815
 2432              	.LBE287:
 2433              	.LBE286:
 517:../source/sgl_core.c ****         append_char(buf, size, pos, pad_char);
 2434              		.loc 1 517 38 is_stmt 1 discriminator 3 view .LVU816
 517:../source/sgl_core.c ****         append_char(buf, size, pos, pad_char);
 2435              		.loc 1 517 26 discriminator 1 view .LVU817
 2436 0467 4D39C1   		cmpq	%r8, %r9
 2437 046a 75EC     		jne	.L138
 2438 046c 4801D1   		addq	%rdx, %rcx
 2439              	.LVL288:
 2440              	.L136:
 517:../source/sgl_core.c ****         append_char(buf, size, pos, pad_char);
 2441              		.loc 1 517 26 is_stmt 0 discriminator 1 view .LVU818
GAS LISTING C:\Users\lsw\AppData\Local\Temp\ccdBfdv6.s 			page 82


 2442              	.LBE285:
 2443              	.LBE284:
 2444              	.LBE274:
 2445              	.LBE273:
 694:../source/sgl_core.c ****         }
 2446              		.loc 1 694 13 is_stmt 1 view .LVU819
 2447              	.LBE272:
 732:../source/sgl_core.c ****     }
 2448              		.loc 1 732 12 is_stmt 0 view .LVU820
 2449 046f 4C8D4001 		leaq	1(%rax), %r8
 2450              	.LBB291:
 692:../source/sgl_core.c ****             append_int(buf, size, &pos, d, width, left_align);
 2451              		.loc 1 692 17 view .LVU821
 2452 0473 4D89F9   		movq	%r15, %r9
 2453              	.LVL289:
 692:../source/sgl_core.c ****             append_int(buf, size, &pos, d, width, left_align);
 2454              		.loc 1 692 17 view .LVU822
 2455              	.LBE291:
 732:../source/sgl_core.c ****     }
 2456              		.loc 1 732 9 is_stmt 1 view .LVU823
 732:../source/sgl_core.c ****     }
 2457              		.loc 1 732 9 is_stmt 0 view .LVU824
 2458 0476 E9C7FBFF 		jmp	.L108
 2458      FF
 2459              	.LVL290:
 2460              	.L122:
 2461              	.LBB292:
 716:../source/sgl_core.c ****             append_char(buf, size, &pos, ch);
 2462              		.loc 1 716 13 is_stmt 1 view .LVU825
 717:../source/sgl_core.c ****             break;
 2463              		.loc 1 717 13 view .LVU826
 2464              	.LBB293:
 2465              	.LBI293:
 487:../source/sgl_core.c **** {
 2466              		.loc 1 487 20 view .LVU827
 2467              	.LBB294:
 489:../source/sgl_core.c ****         buf[*pos] = c;
 2468              		.loc 1 489 5 view .LVU828
 489:../source/sgl_core.c ****         buf[*pos] = c;
 2469              		.loc 1 489 14 is_stmt 0 view .LVU829
 2470 047b 488D5101 		leaq	1(%rcx), %rdx
 489:../source/sgl_core.c ****         buf[*pos] = c;
 2471              		.loc 1 489 8 view .LVU830
 2472 047f 4C39D2   		cmpq	%r10, %rdx
 2473 0482 7307     		jnb	.L158
 490:../source/sgl_core.c ****     }
 2474              		.loc 1 490 9 is_stmt 1 view .LVU831
 2475              	.LBE294:
 2476              	.LBE293:
 716:../source/sgl_core.c ****             append_char(buf, size, &pos, ch);
 2477              		.loc 1 716 18 is_stmt 0 discriminator 1 view .LVU832
 2478 0484 458B01   		movl	(%r9), %r8d
 2479 0487 4488040B 		movb	%r8b, (%rbx,%rcx)
 2480              	.LVL291:
 2481              	.L158:
 716:../source/sgl_core.c ****             append_char(buf, size, &pos, ch);
 2482              		.loc 1 716 18 discriminator 1 view .LVU833
GAS LISTING C:\Users\lsw\AppData\Local\Temp\ccdBfdv6.s 			page 83


 2483              	.LBE292:
 732:../source/sgl_core.c ****     }
 2484              		.loc 1 732 12 view .LVU834
 2485 048b 4C8D4001 		leaq	1(%rax), %r8
 2486              	.LBB297:
 716:../source/sgl_core.c ****             append_char(buf, size, &pos, ch);
 2487              		.loc 1 716 29 view .LVU835
 2488 048f 4983C108 		addq	$8, %r9
 2489              	.LVL292:
 2490              	.LBB296:
 2491              	.LBB295:
 492:../source/sgl_core.c **** }
 2492              		.loc 1 492 11 view .LVU836
 2493 0493 4889D1   		movq	%rdx, %rcx
 2494              	.LVL293:
 492:../source/sgl_core.c **** }
 2495              		.loc 1 492 11 view .LVU837
 2496              	.LBE295:
 2497              	.LBE296:
 2498              	.LBE297:
 732:../source/sgl_core.c ****     }
 2499              		.loc 1 732 9 is_stmt 1 view .LVU838
 732:../source/sgl_core.c ****     }
 2500              		.loc 1 732 9 is_stmt 0 view .LVU839
 2501 0496 E9A7FBFF 		jmp	.L108
 2501      FF
 2502              	.LVL294:
 2503              	.L123:
 2504              	.LBB298:
 704:../source/sgl_core.c ****             append_hex(buf, size, &pos, x, true);
 2505              		.loc 1 704 13 is_stmt 1 view .LVU840
 704:../source/sgl_core.c ****             append_hex(buf, size, &pos, x, true);
 2506              		.loc 1 704 26 is_stmt 0 view .LVU841
 2507 049b 458B01   		movl	(%r9), %r8d
 2508 049e 498D7108 		leaq	8(%r9), %rsi
 2509              	.LVL295:
 705:../source/sgl_core.c ****             break;
 2510              		.loc 1 705 13 is_stmt 1 view .LVU842
 2511              	.LBB218:
 2512              	.LBI218:
 593:../source/sgl_core.c **** {
 2513              		.loc 1 593 20 view .LVU843
 2514              	.LBB219:
 595:../source/sgl_core.c ****     int i = 0;
 2515              		.loc 1 595 5 view .LVU844
 596:../source/sgl_core.c ****     const char *digits = upper ? "0123456789ABCDEF" : "0123456789abcdef";
 2516              		.loc 1 596 5 view .LVU845
 597:../source/sgl_core.c **** 
 2517              		.loc 1 597 5 view .LVU846
 597:../source/sgl_core.c **** 
 2518              		.loc 1 597 5 is_stmt 0 view .LVU847
 2519              	.LBE219:
 2520              	.LBE218:
 704:../source/sgl_core.c ****             append_hex(buf, size, &pos, x, true);
 2521              		.loc 1 704 26 view .LVU848
 2522 04a2 31D2     		xorl	%edx, %edx
 2523 04a4 4C8D5C24 		leaq	16(%rsp), %r11
GAS LISTING C:\Users\lsw\AppData\Local\Temp\ccdBfdv6.s 			page 84


 2523      10
 2524 04a9 488D3D11 		leaq	.LC2(%rip), %rdi
 2524      000000
 2525              	.LVL296:
 2526              		.p2align 4,,10
 2527              		.p2align 3
 2528              	.L142:
 2529              	.LBB223:
 2530              	.LBB222:
 599:../source/sgl_core.c ****         tmp[i++] = digits[val & 0xF];
 2531              		.loc 1 599 5 is_stmt 1 view .LVU849
 600:../source/sgl_core.c ****         val >>= 4;
 2532              		.loc 1 600 9 view .LVU850
 600:../source/sgl_core.c ****         val >>= 4;
 2533              		.loc 1 600 31 is_stmt 0 view .LVU851
 2534 04b0 4589C1   		movl	%r8d, %r9d
 601:../source/sgl_core.c ****     } while (val);
 2535              		.loc 1 601 13 view .LVU852
 2536 04b3 41C1E804 		shrl	$4, %r8d
 2537              	.LVL297:
 600:../source/sgl_core.c ****         val >>= 4;
 2538              		.loc 1 600 31 view .LVU853
 2539 04b7 4183E10F 		andl	$15, %r9d
 2540              	.LVL298:
 600:../source/sgl_core.c ****         val >>= 4;
 2541              		.loc 1 600 18 view .LVU854
 2542 04bb 460FB60C 		movzbl	(%rdi,%r9), %r9d
 2542      0F
 2543 04c0 45880C13 		movb	%r9b, (%r11,%rdx)
 601:../source/sgl_core.c ****     } while (val);
 2544              		.loc 1 601 9 is_stmt 1 view .LVU855
 2545              	.LVL299:
 602:../source/sgl_core.c **** 
 2546              		.loc 1 602 14 discriminator 1 view .LVU856
 2547 04c4 4989D1   		movq	%rdx, %r9
 2548 04c7 4883C201 		addq	$1, %rdx
 2549              	.LVL300:
 602:../source/sgl_core.c **** 
 2550              		.loc 1 602 14 is_stmt 0 discriminator 1 view .LVU857
 2551 04cb 4585C0   		testl	%r8d, %r8d
 2552 04ce 75E0     		jne	.L142
 2553 04d0 488D5101 		leaq	1(%rcx), %rdx
 2554 04d4 4D63C1   		movslq	%r9d, %r8
 2555              	.LVL301:
 602:../source/sgl_core.c **** 
 2556              		.loc 1 602 14 discriminator 1 view .LVU858
 2557 04d7 4D01D8   		addq	%r11, %r8
 2558 04da 4901D1   		addq	%rdx, %r9
 2559              	.LVL302:
 602:../source/sgl_core.c **** 
 2560              		.loc 1 602 14 discriminator 1 view .LVU859
 2561 04dd EB05     		jmp	.L144
 2562              	.LVL303:
 2563 04df 90       		.p2align 4,,10
 2564              		.p2align 3
 2565              	.L220:
 602:../source/sgl_core.c **** 
GAS LISTING C:\Users\lsw\AppData\Local\Temp\ccdBfdv6.s 			page 85


 2566              		.loc 1 602 14 discriminator 1 view .LVU860
 2567 04e0 4883C201 		addq	$1, %rdx
 2568              	.LVL304:
 2569              	.L144:
 604:../source/sgl_core.c **** }
 2570              		.loc 1 604 17 is_stmt 1 discriminator 2 view .LVU861
 2571              	.LBB220:
 2572              	.LBI220:
 487:../source/sgl_core.c **** {
 2573              		.loc 1 487 20 view .LVU862
 2574              	.LBB221:
 489:../source/sgl_core.c ****         buf[*pos] = c;
 2575              		.loc 1 489 5 view .LVU863
 489:../source/sgl_core.c ****         buf[*pos] = c;
 2576              		.loc 1 489 8 is_stmt 0 view .LVU864
 2577 04e4 4C39D2   		cmpq	%r10, %rdx
 489:../source/sgl_core.c ****         buf[*pos] = c;
 2578              		.loc 1 489 14 view .LVU865
 2579 04e7 4889D1   		movq	%rdx, %rcx
 489:../source/sgl_core.c ****         buf[*pos] = c;
 2580              		.loc 1 489 8 view .LVU866
 2581 04ea 7309     		jnb	.L143
 490:../source/sgl_core.c ****     }
 2582              		.loc 1 490 9 is_stmt 1 view .LVU867
 490:../source/sgl_core.c ****     }
 2583              		.loc 1 490 19 is_stmt 0 view .LVU868
 2584 04ec 450FB618 		movzbl	(%r8), %r11d
 2585 04f0 44885C13 		movb	%r11b, -1(%rbx,%rdx)
 2585      FF
 2586              	.L143:
 2587              	.LVL305:
 490:../source/sgl_core.c ****     }
 2588              		.loc 1 490 19 view .LVU869
 2589              	.LBE221:
 2590              	.LBE220:
 604:../source/sgl_core.c **** }
 2591              		.loc 1 604 12 is_stmt 1 discriminator 1 view .LVU870
 604:../source/sgl_core.c **** }
 2592              		.loc 1 604 12 is_stmt 0 discriminator 1 view .LVU871
 2593 04f5 4983E801 		subq	$1, %r8
 2594 04f9 4939D1   		cmpq	%rdx, %r9
 2595 04fc 75E2     		jne	.L220
 2596              	.LVL306:
 604:../source/sgl_core.c **** }
 2597              		.loc 1 604 12 discriminator 1 view .LVU872
 2598              	.LBE222:
 2599              	.LBE223:
 706:../source/sgl_core.c ****         }
 2600              		.loc 1 706 13 is_stmt 1 view .LVU873
 704:../source/sgl_core.c ****             append_hex(buf, size, &pos, x, true);
 2601              		.loc 1 704 26 is_stmt 0 view .LVU874
 2602 04fe 4989F1   		movq	%rsi, %r9
 2603              	.LVL307:
 704:../source/sgl_core.c ****             append_hex(buf, size, &pos, x, true);
 2604              		.loc 1 704 26 view .LVU875
 2605 0501 E98BFCFF 		jmp	.L221
 2605      FF
GAS LISTING C:\Users\lsw\AppData\Local\Temp\ccdBfdv6.s 			page 86


 2606              	.LVL308:
 2607 0506 662E0F1F 		.p2align 4,,10
 2607      84000000 
 2607      0000
 2608              		.p2align 3
 2609              	.L216:
 704:../source/sgl_core.c ****             append_hex(buf, size, &pos, x, true);
 2610              		.loc 1 704 26 view .LVU876
 2611              	.LBE298:
 677:../source/sgl_core.c ****                 precision = precision * 10 + (*fmt - '0');
 2612              		.loc 1 677 20 view .LVU877
 2613 0510 0FB65001 		movzbl	1(%rax), %edx
 675:../source/sgl_core.c ****             precision = 0;
 2614              		.loc 1 675 16 view .LVU878
 2615 0514 4C8D5801 		leaq	1(%rax), %r11
 675:../source/sgl_core.c ****             precision = 0;
 2616              		.loc 1 675 13 is_stmt 1 view .LVU879
 2617              	.LVL309:
 676:../source/sgl_core.c ****             while (*fmt >= '0' && *fmt <= '9') {
 2618              		.loc 1 676 13 view .LVU880
 677:../source/sgl_core.c ****                 precision = precision * 10 + (*fmt - '0');
 2619              		.loc 1 677 13 view .LVU881
 677:../source/sgl_core.c ****                 precision = precision * 10 + (*fmt - '0');
 2620              		.loc 1 677 32 view .LVU882
 676:../source/sgl_core.c ****             while (*fmt >= '0' && *fmt <= '9') {
 2621              		.loc 1 676 23 is_stmt 0 view .LVU883
 2622 0518 BE000000 		movl	$0, %esi
 2622      00
 677:../source/sgl_core.c ****                 precision = precision * 10 + (*fmt - '0');
 2623              		.loc 1 677 32 view .LVU884
 2624 051d 8D42D0   		leal	-48(%rdx), %eax
 2625 0520 3C09     		cmpb	$9, %al
 675:../source/sgl_core.c ****             precision = 0;
 2626              		.loc 1 675 16 view .LVU885
 2627 0522 4C89D8   		movq	%r11, %rax
 677:../source/sgl_core.c ****                 precision = precision * 10 + (*fmt - '0');
 2628              		.loc 1 677 32 view .LVU886
 2629 0525 0F8785FB 		ja	.L113
 2629      FFFF
 2630              	.LVL310:
 2631 052b 0F1F4400 		.p2align 4,,10
 2631      00
 2632              		.p2align 3
 2633              	.L114:
 678:../source/sgl_core.c ****                 fmt++;
 2634              		.loc 1 678 17 is_stmt 1 view .LVU887
 678:../source/sgl_core.c ****                 fmt++;
 2635              		.loc 1 678 39 is_stmt 0 view .LVU888
 2636 0530 448D1CB6 		leal	(%rsi,%rsi,4), %r11d
 678:../source/sgl_core.c ****                 fmt++;
 2637              		.loc 1 678 52 view .LVU889
 2638 0534 83EA30   		subl	$48, %edx
 679:../source/sgl_core.c ****             }
 2639              		.loc 1 679 20 view .LVU890
 2640 0537 4883C001 		addq	$1, %rax
 2641              	.LVL311:
 678:../source/sgl_core.c ****                 fmt++;
GAS LISTING C:\Users\lsw\AppData\Local\Temp\ccdBfdv6.s 			page 87


 2642              		.loc 1 678 52 view .LVU891
 2643 053b 0FBED2   		movsbl	%dl, %edx
 678:../source/sgl_core.c ****                 fmt++;
 2644              		.loc 1 678 27 view .LVU892
 2645 053e 428D345A 		leal	(%rdx,%r11,2), %esi
 2646              	.LVL312:
 679:../source/sgl_core.c ****             }
 2647              		.loc 1 679 17 is_stmt 1 view .LVU893
 677:../source/sgl_core.c ****                 precision = precision * 10 + (*fmt - '0');
 2648              		.loc 1 677 32 view .LVU894
 677:../source/sgl_core.c ****                 precision = precision * 10 + (*fmt - '0');
 2649              		.loc 1 677 20 is_stmt 0 view .LVU895
 2650 0542 0FB610   		movzbl	(%rax), %edx
 677:../source/sgl_core.c ****                 precision = precision * 10 + (*fmt - '0');
 2651              		.loc 1 677 32 view .LVU896
 2652 0545 448D5AD0 		leal	-48(%rdx), %r11d
 2653 0549 4180FB09 		cmpb	$9, %r11b
 2654 054d 76E1     		jbe	.L114
 683:../source/sgl_core.c ****         switch (spec) {
 2655              		.loc 1 683 9 is_stmt 1 view .LVU897
 2656              	.LVL313:
 684:../source/sgl_core.c ****         case 's': {
 2657              		.loc 1 684 9 view .LVU898
 2658 054f 80FA25   		cmpb	$37, %dl
 2659 0552 0F8561FB 		jne	.L222
 2659      FFFF
 2660              	.LVL314:
 2661 0558 0F1F8400 		.p2align 4,,10
 2661      00000000 
 2662              		.p2align 3
 2663              	.L115:
 722:../source/sgl_core.c ****             break;
 2664              		.loc 1 722 13 view .LVU899
 2665              	.LBB299:
 2666              	.LBI299:
 487:../source/sgl_core.c **** {
 2667              		.loc 1 487 20 view .LVU900
 2668              	.LBB300:
 489:../source/sgl_core.c ****         buf[*pos] = c;
 2669              		.loc 1 489 5 view .LVU901
 489:../source/sgl_core.c ****         buf[*pos] = c;
 2670              		.loc 1 489 14 is_stmt 0 view .LVU902
 2671 0560 488D5101 		leaq	1(%rcx), %rdx
 489:../source/sgl_core.c ****         buf[*pos] = c;
 2672              		.loc 1 489 8 view .LVU903
 2673 0564 4C39D2   		cmpq	%r10, %rdx
 2674 0567 7304     		jnb	.L159
 490:../source/sgl_core.c ****     }
 2675              		.loc 1 490 9 is_stmt 1 view .LVU904
 490:../source/sgl_core.c ****     }
 2676              		.loc 1 490 19 is_stmt 0 view .LVU905
 2677 0569 C6040B25 		movb	$37, (%rbx,%rcx)
 2678              	.L159:
 2679              	.LVL315:
 490:../source/sgl_core.c ****     }
 2680              		.loc 1 490 19 view .LVU906
 2681              	.LBE300:
GAS LISTING C:\Users\lsw\AppData\Local\Temp\ccdBfdv6.s 			page 88


 2682              	.LBE299:
 732:../source/sgl_core.c ****     }
 2683              		.loc 1 732 12 view .LVU907
 2684 056d 4C8D4001 		leaq	1(%rax), %r8
 2685              	.LBB302:
 2686              	.LBB301:
 492:../source/sgl_core.c **** }
 2687              		.loc 1 492 11 view .LVU908
 2688 0571 4889D1   		movq	%rdx, %rcx
 2689              	.LVL316:
 492:../source/sgl_core.c **** }
 2690              		.loc 1 492 11 view .LVU909
 2691              	.LBE301:
 2692              	.LBE302:
 732:../source/sgl_core.c ****     }
 2693              		.loc 1 732 9 is_stmt 1 view .LVU910
 732:../source/sgl_core.c ****     }
 2694              		.loc 1 732 9 is_stmt 0 view .LVU911
 2695 0574 E9C9FAFF 		jmp	.L108
 2695      FF
 2696              	.LVL317:
 2697              	.L219:
 2698              	.LBB303:
 2699              	.LBB270:
 2700              	.LBB266:
 2701              	.LBB258:
 2702              	.LBB241:
 576:../source/sgl_core.c **** 
 2703              		.loc 1 576 14 is_stmt 1 discriminator 1 view .LVU912
 576:../source/sgl_core.c **** 
 2704              		.loc 1 576 23 is_stmt 0 discriminator 1 view .LVU913
 2705 0579 4C63C5   		movslq	%ebp, %r8
 578:../source/sgl_core.c **** 
 2706              		.loc 1 578 13 discriminator 1 view .LVU914
 2707 057c 4863FD   		movslq	%ebp, %rdi
 2708              	.LVL318:
 576:../source/sgl_core.c **** 
 2709              		.loc 1 576 23 discriminator 1 view .LVU915
 2710 057f 42C64404 		movb	$45, 16(%rsp,%r8)
 2710      102D
 578:../source/sgl_core.c **** 
 2711              		.loc 1 578 12 is_stmt 1 discriminator 1 view .LVU916
 2712              	.LVL319:
 578:../source/sgl_core.c **** 
 2713              		.loc 1 578 12 is_stmt 0 discriminator 1 view .LVU917
 2714 0585 E9FAFCFF 		jmp	.L151
 2714      FF
 2715              	.LVL320:
 2716              	.L218:
 578:../source/sgl_core.c **** 
 2717              		.loc 1 578 12 discriminator 1 view .LVU918
 2718              	.LBE241:
 2719              	.LBE258:
 2720              	.LBE266:
 2721              	.LBE270:
 2722              	.LBE303:
 2723              	.LBB304:
GAS LISTING C:\Users\lsw\AppData\Local\Temp\ccdBfdv6.s 			page 89


 2724              	.LBB204:
 489:../source/sgl_core.c ****         buf[*pos] = c;
 2725              		.loc 1 489 14 view .LVU919
 2726 058a 488D5101 		leaq	1(%rcx), %rdx
 2727              	.LBE204:
 2728              	.LBE304:
 2729              	.LBB305:
 2730              	.LBB271:
 2731              	.LBB267:
 621:../source/sgl_core.c ****         int_part = -int_part;
 2732              		.loc 1 621 9 is_stmt 1 view .LVU920
 2733              	.LVL321:
 2734              	.LBB259:
 2735              	.LBI259:
 487:../source/sgl_core.c **** {
 2736              		.loc 1 487 20 view .LVU921
 2737              	.LBB260:
 489:../source/sgl_core.c ****         buf[*pos] = c;
 2738              		.loc 1 489 5 view .LVU922
 489:../source/sgl_core.c ****         buf[*pos] = c;
 2739              		.loc 1 489 8 is_stmt 0 view .LVU923
 2740 058e 4C39D2   		cmpq	%r10, %rdx
 2741 0591 7304     		jnb	.L147
 490:../source/sgl_core.c ****     }
 2742              		.loc 1 490 9 is_stmt 1 view .LVU924
 490:../source/sgl_core.c ****     }
 2743              		.loc 1 490 19 is_stmt 0 view .LVU925
 2744 0593 C6040B2D 		movb	$45, (%rbx,%rcx)
 2745              	.L147:
 492:../source/sgl_core.c **** }
 2746              		.loc 1 492 5 is_stmt 1 view .LVU926
 2747              	.LVL322:
 492:../source/sgl_core.c **** }
 2748              		.loc 1 492 5 is_stmt 0 view .LVU927
 2749              	.LBE260:
 2750              	.LBE259:
 622:../source/sgl_core.c ****         frac = -frac;
 2751              		.loc 1 622 9 is_stmt 1 view .LVU928
 622:../source/sgl_core.c ****         frac = -frac;
 2752              		.loc 1 622 18 is_stmt 0 view .LVU929
 2753 0597 41F7DE   		negl	%r14d
 2754              	.LVL323:
 623:../source/sgl_core.c ****     }
 2755              		.loc 1 623 9 is_stmt 1 view .LVU930
 2756              	.LBB262:
 2757              	.LBB261:
 492:../source/sgl_core.c **** }
 2758              		.loc 1 492 11 is_stmt 0 view .LVU931
 2759 059a 4889D1   		movq	%rdx, %rcx
 2760              	.LBE261:
 2761              	.LBE262:
 623:../source/sgl_core.c ****     }
 2762              		.loc 1 623 14 view .LVU932
 2763 059d 660F5705 		xorpd	.LC4(%rip), %xmm0
 2763      80030000 
 2764              	.LVL324:
 626:../source/sgl_core.c ****     append_char(buf, size, pos, '.');
GAS LISTING C:\Users\lsw\AppData\Local\Temp\ccdBfdv6.s 			page 90


 2765              		.loc 1 626 5 is_stmt 1 view .LVU933
 2766              	.LBB263:
 553:../source/sgl_core.c **** {
 2767              		.loc 1 553 20 view .LVU934
 2768              	.LBB242:
 555:../source/sgl_core.c ****     int i = 0;
 2769              		.loc 1 555 5 view .LVU935
 556:../source/sgl_core.c ****     bool neg = val < 0;
 2770              		.loc 1 556 5 view .LVU936
 557:../source/sgl_core.c ****     size_t num_len = int_str_len(val);
 2771              		.loc 1 557 5 view .LVU937
 558:../source/sgl_core.c ****     size_t pad_len = 0;
 2772              		.loc 1 558 5 view .LVU938
 2773              	.LBB240:
 527:../source/sgl_core.c **** {
 2774              		.loc 1 527 22 view .LVU939
 2775              	.LBB237:
 529:../source/sgl_core.c **** 
 2776              		.loc 1 529 5 view .LVU940
 534:../source/sgl_core.c **** 
 2777              		.loc 1 534 8 is_stmt 0 view .LVU941
 2778 05a5 4489F2   		movl	%r14d, %edx
 2779 05a8 F7DA     		negl	%edx
 2780 05aa 410F48D6 		cmovs	%r14d, %edx
 529:../source/sgl_core.c **** 
 2781              		.loc 1 529 8 view .LVU942
 2782 05ae 4585F6   		testl	%r14d, %r14d
 2783 05b1 0F8556FC 		jne	.L223
 2783      FFFF
 529:../source/sgl_core.c **** 
 2784              		.loc 1 529 8 view .LVU943
 2785 05b7 E971FCFF 		jmp	.L148
 2785      FF
 2786              	.LVL325:
 2787              	.L174:
 529:../source/sgl_core.c **** 
 2788              		.loc 1 529 8 view .LVU944
 2789              	.LBE237:
 2790              	.LBE240:
 2791              	.LBE242:
 2792              	.LBE263:
 629:../source/sgl_core.c ****     for (int i = 0; i < prec; i++) {
 2793              		.loc 1 629 45 discriminator 2 view .LVU945
 2794 05bc BE060000 		movl	$6, %esi
 2794      00
 2795              	.LVL326:
 629:../source/sgl_core.c ****     for (int i = 0; i < prec; i++) {
 2796              		.loc 1 629 45 discriminator 2 view .LVU946
 2797 05c1 E905FDFF 		jmp	.L155
 2797      FF
 2798              	.LVL327:
 2799              	.L171:
 629:../source/sgl_core.c ****     for (int i = 0; i < prec; i++) {
 2800              		.loc 1 629 45 discriminator 2 view .LVU947
 2801              	.LBE267:
 2802              	.LBE271:
 2803              	.LBE305:
GAS LISTING C:\Users\lsw\AppData\Local\Temp\ccdBfdv6.s 			page 91


 2804              	.LBB306:
 2805              	.LBB290:
 2806              	.LBB289:
 2807              	.LBB288:
 2808              	.LBB277:
 2809 05c6 4531C9   		xorl	%r9d, %r9d
 529:../source/sgl_core.c **** 
 2810              		.loc 1 529 26 discriminator 1 view .LVU948
 2811 05c9 41BB0100 		movl	$1, %r11d
 2811      0000
 2812 05cf E99FFDFF 		jmp	.L127
 2812      FF
 2813              	.LVL328:
 2814              	.L173:
 529:../source/sgl_core.c **** 
 2815              		.loc 1 529 26 discriminator 1 view .LVU949
 2816              	.LBE277:
 2817              	.LBE288:
 2818 05d4 4531E4   		xorl	%r12d, %r12d
 2819              	.LVL329:
 559:../source/sgl_core.c **** 
 2820              		.loc 1 559 12 view .LVU950
 2821 05d7 31D2     		xorl	%edx, %edx
 2822 05d9 E9CDFDFF 		jmp	.L129
 2822      FF
 2823              	.LVL330:
 2824              	.L105:
 559:../source/sgl_core.c **** 
 2825              		.loc 1 559 12 view .LVU951
 2826              	.LBE289:
 2827              	.LBE290:
 2828              	.LBE306:
 2829              	.LBE309:
 735:../source/sgl_core.c ****         buf[(pos < size) ? pos : (size - 1)] = '\0';
 2830              		.loc 1 735 5 is_stmt 1 view .LVU952
 735:../source/sgl_core.c ****         buf[(pos < size) ? pos : (size - 1)] = '\0';
 2831              		.loc 1 735 8 is_stmt 0 view .LVU953
 2832 05de 31C0     		xorl	%eax, %eax
 2833 05e0 4D85D2   		testq	%r10, %r10
 2834 05e3 0F8506FB 		jne	.L164
 2834      FFFF
 2835 05e9 E904FBFF 		jmp	.L104
 2835      FF
 2836              		.cfi_endproc
 2837              	.LFE97:
 2838              		.seh_endproc
 2839 05ee 9090     		.section .rdata,"dr"
 2840              	.LC6:
 2841 00a8 0D0A00   		.ascii "\15\12\0"
 2842              		.section	.text$sgl_log,"x"
 2843              		.p2align 4
 2844              		.globl	sgl_log
 2846              		.seh_proc	sgl_log
 2847              	sgl_log:
 2848              	.LVL331:
 2849              	.LFB79:
  35:../source/sgl_core.c ****     char buffer[200];
GAS LISTING C:\Users\lsw\AppData\Local\Temp\ccdBfdv6.s 			page 92


 2850              		.loc 1 35 1 is_stmt 1 view -0
 2851              		.cfi_startproc
  35:../source/sgl_core.c ****     char buffer[200];
 2852              		.loc 1 35 1 is_stmt 0 view .LVU955
 2853 0000 55       		pushq	%rbp
 2854              		.seh_pushreg	%rbp
 2855              		.cfi_def_cfa_offset 16
 2856              		.cfi_offset 6, -16
 2857 0001 57       		pushq	%rdi
 2858              		.seh_pushreg	%rdi
 2859              		.cfi_def_cfa_offset 24
 2860              		.cfi_offset 5, -24
 2861 0002 56       		pushq	%rsi
 2862              		.seh_pushreg	%rsi
 2863              		.cfi_def_cfa_offset 32
 2864              		.cfi_offset 4, -32
 2865 0003 53       		pushq	%rbx
 2866              		.seh_pushreg	%rbx
 2867              		.cfi_def_cfa_offset 40
 2868              		.cfi_offset 3, -40
 2869 0004 4881EC08 		subq	$264, %rsp
 2869      010000
 2870              		.seh_stackalloc	264
 2871              		.cfi_def_cfa_offset 304
 2872              		.seh_endprologue
  36:../source/sgl_core.c ****     int  tail = 0;
 2873              		.loc 1 36 5 is_stmt 1 view .LVU956
  37:../source/sgl_core.c ****     int  pref_size = strlen(level);
 2874              		.loc 1 37 5 view .LVU957
 2875              	.LVL332:
  38:../source/sgl_core.c **** 
 2876              		.loc 1 38 5 view .LVU958
  35:../source/sgl_core.c ****     char buffer[200];
 2877              		.loc 1 35 1 is_stmt 0 view .LVU959
 2878 000b 4889CF   		movq	%rcx, %rdi
 2879 000e 4889D5   		movq	%rdx, %rbp
 2880 0011 4C898424 		movq	%r8, 320(%rsp)
 2880      40010000 
  40:../source/sgl_core.c **** 
 2881              		.loc 1 40 5 view .LVU960
 2882 0019 488D7424 		leaq	48(%rsp), %rsi
 2882      30
  35:../source/sgl_core.c ****     char buffer[200];
 2883              		.loc 1 35 1 view .LVU961
 2884 001e 4C898C24 		movq	%r9, 328(%rsp)
 2884      48010000 
  38:../source/sgl_core.c **** 
 2885              		.loc 1 38 22 view .LVU962
 2886 0026 E8000000 		call	strlen
 2886      00
 2887              	.LVL333:
  40:../source/sgl_core.c **** 
 2888              		.loc 1 40 5 view .LVU963
 2889 002b 4889FA   		movq	%rdi, %rdx
 2890 002e 4889F1   		movq	%rsi, %rcx
  48:../source/sgl_core.c ****     buffer[tail + strlen("\r\n"SGL_LOG_NONE)] = 0;
 2891              		.loc 1 48 5 view .LVU964
GAS LISTING C:\Users\lsw\AppData\Local\Temp\ccdBfdv6.s 			page 93


 2892 0031 488D3DA8 		leaq	.LC6(%rip), %rdi
 2892      000000
 2893              	.LVL334:
  38:../source/sgl_core.c **** 
 2894              		.loc 1 38 22 view .LVU965
 2895 0038 4889C3   		movq	%rax, %rbx
 2896              	.LVL335:
  40:../source/sgl_core.c **** 
 2897              		.loc 1 40 5 is_stmt 1 view .LVU966
 2898 003b E8000000 		call	strcpy
 2898      00
 2899              	.LVL336:
  42:../source/sgl_core.c ****     va_start(va, format);
 2900              		.loc 1 42 5 view .LVU967
  43:../source/sgl_core.c ****     sgl_vsnprintf(buffer + pref_size, sizeof(buffer), format, va);
 2901              		.loc 1 43 5 view .LVU968
  44:../source/sgl_core.c ****     va_end(va);
 2902              		.loc 1 44 5 is_stmt 0 view .LVU969
 2903 0040 4863CB   		movslq	%ebx, %rcx
 2904 0043 4989E8   		movq	%rbp, %r8
 2905 0046 BAC80000 		movl	$200, %edx
 2905      00
  43:../source/sgl_core.c ****     sgl_vsnprintf(buffer + pref_size, sizeof(buffer), format, va);
 2906              		.loc 1 43 5 view .LVU970
 2907 004b 4C8D8C24 		leaq	320(%rsp), %r9
 2907      40010000 
  44:../source/sgl_core.c ****     va_end(va);
 2908              		.loc 1 44 5 view .LVU971
 2909 0053 4801F1   		addq	%rsi, %rcx
  43:../source/sgl_core.c ****     sgl_vsnprintf(buffer + pref_size, sizeof(buffer), format, va);
 2910              		.loc 1 43 5 view .LVU972
 2911 0056 4C894C24 		movq	%r9, 40(%rsp)
 2911      28
  44:../source/sgl_core.c ****     va_end(va);
 2912              		.loc 1 44 5 is_stmt 1 view .LVU973
 2913 005b E8000000 		call	sgl_vsnprintf
 2913      00
 2914              	.LVL337:
  45:../source/sgl_core.c **** 
 2915              		.loc 1 45 5 view .LVU974
  47:../source/sgl_core.c ****     memcpy(&buffer[tail], &"\r\n"SGL_LOG_NONE, strlen("\r\n"SGL_LOG_NONE));
 2916              		.loc 1 47 5 view .LVU975
  47:../source/sgl_core.c ****     memcpy(&buffer[tail], &"\r\n"SGL_LOG_NONE, strlen("\r\n"SGL_LOG_NONE));
 2917              		.loc 1 47 12 is_stmt 0 view .LVU976
 2918 0060 4889F1   		movq	%rsi, %rcx
 2919 0063 E8000000 		call	strlen
 2919      00
 2920              	.LVL338:
  48:../source/sgl_core.c ****     buffer[tail + strlen("\r\n"SGL_LOG_NONE)] = 0;
 2921              		.loc 1 48 5 view .LVU977
 2922 0068 4889F9   		movq	%rdi, %rcx
  47:../source/sgl_core.c ****     memcpy(&buffer[tail], &"\r\n"SGL_LOG_NONE, strlen("\r\n"SGL_LOG_NONE));
 2923              		.loc 1 47 12 view .LVU978
 2924 006b 4889C3   		movq	%rax, %rbx
 2925              	.LVL339:
  48:../source/sgl_core.c ****     buffer[tail + strlen("\r\n"SGL_LOG_NONE)] = 0;
 2926              		.loc 1 48 5 is_stmt 1 view .LVU979
GAS LISTING C:\Users\lsw\AppData\Local\Temp\ccdBfdv6.s 			page 94


 2927 006e E8000000 		call	strlen
 2927      00
 2928              	.LVL340:
 2929 0073 4863DB   		movslq	%ebx, %rbx
  48:../source/sgl_core.c ****     buffer[tail + strlen("\r\n"SGL_LOG_NONE)] = 0;
 2930              		.loc 1 48 5 is_stmt 0 discriminator 1 view .LVU980
 2931 0076 4889FA   		movq	%rdi, %rdx
  48:../source/sgl_core.c ****     buffer[tail + strlen("\r\n"SGL_LOG_NONE)] = 0;
 2932              		.loc 1 48 12 discriminator 1 view .LVU981
 2933 0079 488D0C1E 		leaq	(%rsi,%rbx), %rcx
  48:../source/sgl_core.c ****     buffer[tail + strlen("\r\n"SGL_LOG_NONE)] = 0;
 2934              		.loc 1 48 5 view .LVU982
 2935 007d 4989C0   		movq	%rax, %r8
  48:../source/sgl_core.c ****     buffer[tail + strlen("\r\n"SGL_LOG_NONE)] = 0;
 2936              		.loc 1 48 5 discriminator 1 view .LVU983
 2937 0080 E8000000 		call	memcpy
 2937      00
 2938              	.LVL341:
  49:../source/sgl_core.c **** 
 2939              		.loc 1 49 5 is_stmt 1 view .LVU984
  49:../source/sgl_core.c **** 
 2940              		.loc 1 49 19 is_stmt 0 view .LVU985
 2941 0085 4889F9   		movq	%rdi, %rcx
 2942 0088 E8000000 		call	strlen
 2942      00
 2943              	.LVL342:
  49:../source/sgl_core.c **** 
 2944              		.loc 1 49 47 discriminator 1 view .LVU986
 2945 008d 48050001 		addq	$256, %rax
 2945      0000
 2946 0093 4801E0   		addq	%rsp, %rax
 2947 0096 C6840330 		movb	$0, -208(%rbx,%rax)
