GAS LISTING C:\Users\lsw\AppData\Local\Temp\ccqiwYAv.s 			page 1


   1              		.file	"sgl_widget.c"
   2              		.text
   3              	.Ltext0:
   4              		.cfi_sections	.debug_frame
   5              		.file 0 "C:/Users/lsw/Desktop/sgl-lite/demo" "../source/sgl_widget.c"
   6              		.section	.text$sgl_rectangle_construct_cb,"x"
   7              		.p2align 4
   9              		.seh_proc	sgl_rectangle_construct_cb
  10              	sgl_rectangle_construct_cb:
  11              	.LVL0:
  12              	.LFB93:
  13              		.file 1 "../source/sgl_widget.c"
   1:../source/sgl_widget.c **** /* source: sgl_widget.c
   2:../source/sgl_widget.c ****  * Copyright (c) 2026-2028, Lishanwen
   3:../source/sgl_widget.c ****  *
   4:../source/sgl_widget.c ****  * Licensed under the Apache License, Version 2.0 (the "License");
   5:../source/sgl_widget.c ****  * you may not use this file except in compliance with the License.
   6:../source/sgl_widget.c ****  * You may obtain a copy of the License at
   7:../source/sgl_widget.c ****  *
   8:../source/sgl_widget.c ****  *     http://www.apache.org/licenses/LICENSE-2.0
   9:../source/sgl_widget.c ****  *
  10:../source/sgl_widget.c ****  * Unless required by applicable law or agreed to in writing, software
  11:../source/sgl_widget.c ****  * distributed under the License is distributed on an "AS IS" BASIS,
  12:../source/sgl_widget.c ****  * WITHOUT WARRANTIES OR CONDITIONS OF ANY KIND, either express or implied.
  13:../source/sgl_widget.c ****  * See the License for the specific language governing permissions and
  14:../source/sgl_widget.c ****  * limitations under the License.
  15:../source/sgl_widget.c ****  */
  16:../source/sgl_widget.c **** 
  17:../source/sgl_widget.c **** #include "sgl_widget.h"
  18:../source/sgl_widget.c **** #include "sgl_mm.h"
  19:../source/sgl_widget.c **** 
  20:../source/sgl_widget.c **** /**
  21:../source/sgl_widget.c ****  * @brief rectangle construct callback
  22:../source/sgl_widget.c ****  * @param  surf: surface
  23:../source/sgl_widget.c ****  * @param  obj: object
  24:../source/sgl_widget.c ****  * @param  evt: event parameter
  25:../source/sgl_widget.c ****  * @retval none
  26:../source/sgl_widget.c ****  */
  27:../source/sgl_widget.c **** static void sgl_rectangle_construct_cb(sgl_surf_t *surf, sgl_obj_t* obj, sgl_area_t *area)
  28:../source/sgl_widget.c **** {
  14              		.loc 1 28 1 view -0
  15              		.cfi_startproc
  16              		.loc 1 28 1 is_stmt 0 view .LVU1
  17              		.seh_endprologue
  29:../source/sgl_widget.c ****     sgl_rectangle_t *rect = (sgl_rectangle_t*)obj;
  18              		.loc 1 29 5 is_stmt 1 view .LVU2
  28:../source/sgl_widget.c ****     sgl_rectangle_t *rect = (sgl_rectangle_t*)obj;
  19              		.loc 1 28 1 is_stmt 0 view .LVU3
  20 0000 4889D0   		movq	%rdx, %rax
  21              	.LVL1:
  30:../source/sgl_widget.c ****     sgl_draw_rect(surf, area, &obj->coords, &rect->desc);
  22              		.loc 1 30 5 is_stmt 1 view .LVU4
  28:../source/sgl_widget.c ****     sgl_rectangle_t *rect = (sgl_rectangle_t*)obj;
  23              		.loc 1 28 1 is_stmt 0 view .LVU5
  24 0003 4C89C2   		movq	%r8, %rdx
  25              	.LVL2:
  26              		.loc 1 30 5 view .LVU6
GAS LISTING C:\Users\lsw\AppData\Local\Temp\ccqiwYAv.s 			page 2


  27 0006 4C8D4830 		leaq	48(%rax), %r9
  28 000a 4989C0   		movq	%rax, %r8
  29              	.LVL3:
  31:../source/sgl_widget.c **** }
  30              		.loc 1 31 1 view .LVU7
  30:../source/sgl_widget.c ****     sgl_draw_rect(surf, area, &obj->coords, &rect->desc);
  31              		.loc 1 30 5 view .LVU8
  32 000d E9000000 		jmp	sgl_draw_rect
  32      00
  33              	.LVL4:
  30:../source/sgl_widget.c ****     sgl_draw_rect(surf, area, &obj->coords, &rect->desc);
  34              		.loc 1 30 5 view .LVU9
  35              		.cfi_endproc
  36              	.LFE93:
  37              		.seh_endproc
  38 0012 90909090 		.section .rdata,"dr"
  38      90909090 
  38      90909090 
  38      9090
  39              	.LC1:
  40 0000 2E2E2F73 		.ascii "../source/sgl_widget.c\0"
  40      6F757263 
  40      652F7367 
  40      6C5F7769 
  40      64676574 
  41              		.section	.text$sgl_label_construct_cb,"x"
  42              		.p2align 4
  44              		.seh_proc	sgl_label_construct_cb
  45              	sgl_label_construct_cb:
  46              	.LVL5:
  47              	.LFB95:
  32:../source/sgl_widget.c **** 
  33:../source/sgl_widget.c **** 
  34:../source/sgl_widget.c **** /**
  35:../source/sgl_widget.c ****  * @brief  create a rectangle
  36:../source/sgl_widget.c ****  * @param  parent: parent object
  37:../source/sgl_widget.c ****  * @retval rectangle object
  38:../source/sgl_widget.c ****  */
  39:../source/sgl_widget.c **** sgl_obj_t* sgl_rect_create(sgl_obj_t* parent)
  40:../source/sgl_widget.c **** {
  41:../source/sgl_widget.c ****     sgl_rectangle_t *rect = sgl_malloc(sizeof(sgl_rectangle_t));
  42:../source/sgl_widget.c ****     if(rect == NULL) {
  43:../source/sgl_widget.c ****         SGL_LOG_ERROR("sgl_rect_create: malloc failed");
  44:../source/sgl_widget.c ****         return NULL;
  45:../source/sgl_widget.c ****     }
  46:../source/sgl_widget.c **** 
  47:../source/sgl_widget.c ****     /* set object all member to zero */
  48:../source/sgl_widget.c ****     memset(rect, 0, sizeof(sgl_rectangle_t));
  49:../source/sgl_widget.c **** 
  50:../source/sgl_widget.c ****     sgl_obj_t *obj = &rect->obj;
  51:../source/sgl_widget.c ****     sgl_obj_init(&rect->obj, parent);
  52:../source/sgl_widget.c **** 
  53:../source/sgl_widget.c ****     obj->construct_fn = sgl_rectangle_construct_cb;
  54:../source/sgl_widget.c **** 
  55:../source/sgl_widget.c ****     rect->desc.alpha = SGL_THEME_ALPHA;
  56:../source/sgl_widget.c ****     rect->desc.color = SGL_THEME_COLOR;
  57:../source/sgl_widget.c ****     rect->desc.border = SGL_THEME_BORDER_WIDTH;
GAS LISTING C:\Users\lsw\AppData\Local\Temp\ccqiwYAv.s 			page 3


  58:../source/sgl_widget.c ****     rect->desc.border_color = SGL_THEME_BORDER_COLOR;
  59:../source/sgl_widget.c ****     rect->desc.pixmap = NULL;
  60:../source/sgl_widget.c **** 
  61:../source/sgl_widget.c ****     return obj;
  62:../source/sgl_widget.c **** }
  63:../source/sgl_widget.c **** 
  64:../source/sgl_widget.c **** 
  65:../source/sgl_widget.c **** /**
  66:../source/sgl_widget.c ****  * @brief construct the label object
  67:../source/sgl_widget.c ****  * @param surf pointer to the surface
  68:../source/sgl_widget.c ****  * @param obj pointer to the label object
  69:../source/sgl_widget.c ****  * @param evt pointer to the event
  70:../source/sgl_widget.c ****  * @return none
  71:../source/sgl_widget.c ****  */
  72:../source/sgl_widget.c **** static void sgl_label_construct_cb(sgl_surf_t *surf, sgl_obj_t* obj, sgl_area_t *area)
  73:../source/sgl_widget.c **** {
  48              		.loc 1 73 1 is_stmt 1 view -0
  49              		.cfi_startproc
  50              		.loc 1 73 1 is_stmt 0 view .LVU11
  51 0000 57       		pushq	%rdi
  52              		.seh_pushreg	%rdi
  53              		.cfi_def_cfa_offset 16
  54              		.cfi_offset 5, -16
  55 0001 56       		pushq	%rsi
  56              		.seh_pushreg	%rsi
  57              		.cfi_def_cfa_offset 24
  58              		.cfi_offset 4, -24
  59 0002 53       		pushq	%rbx
  60              		.seh_pushreg	%rbx
  61              		.cfi_def_cfa_offset 32
  62              		.cfi_offset 3, -32
  63 0003 4883EC40 		subq	$64, %rsp
  64              		.seh_stackalloc	64
  65              		.cfi_def_cfa_offset 96
  66              		.seh_endprologue
  74:../source/sgl_widget.c ****     sgl_label_t *label = (sgl_label_t*)obj;
  67              		.loc 1 74 5 is_stmt 1 view .LVU12
  68              	.LVL6:
  75:../source/sgl_widget.c ****     sgl_pos_t align_pos;
  69              		.loc 1 75 5 view .LVU13
  76:../source/sgl_widget.c **** 
  77:../source/sgl_widget.c ****     SGL_ASSERT(label->font != NULL);
  70              		.loc 1 77 5 view .LVU14
  71              		.loc 1 77 5 view .LVU15
  72 0007 48837A38 		cmpq	$0, 56(%rdx)
  72      00
  73:../source/sgl_widget.c ****     sgl_label_t *label = (sgl_label_t*)obj;
  73              		.loc 1 73 1 is_stmt 0 view .LVU16
  74 000c 4889CE   		movq	%rcx, %rsi
  75 000f 4889D3   		movq	%rdx, %rbx
  76 0012 4C89C7   		movq	%r8, %rdi
  77              		.loc 1 77 5 view .LVU17
  78 0015 0F84D500 		je	.L10
  78      0000
  79              	.LVL7:
  80              	.L4:
  81              		.loc 1 77 5 is_stmt 1 discriminator 3 view .LVU18
GAS LISTING C:\Users\lsw\AppData\Local\Temp\ccqiwYAv.s 			page 4


  78:../source/sgl_widget.c **** 
  79:../source/sgl_widget.c ****     if (label->bg_flag) {
  82              		.loc 1 79 5 view .LVU19
  83              		.loc 1 79 9 is_stmt 0 view .LVU20
  84 001b 0FB64345 		movzbl	69(%rbx), %eax
  85              		.loc 1 79 8 view .LVU21
  86 001f A810     		testb	$16, %al
  87 0021 7431     		je	.L5
  80:../source/sgl_widget.c ****         if (obj->radius > 0) {
  88              		.loc 1 80 9 is_stmt 1 view .LVU22
  89              		.loc 1 80 16 is_stmt 0 view .LVU23
  90 0023 440FB64B 		movzbl	42(%rbx), %r9d
  90      2A
  81:../source/sgl_widget.c ****             sgl_draw_fill_round_rect(surf, area, &obj->coords, obj->radius, label->bg_color, label-
  91              		.loc 1 81 13 view .LVU24
  92 0028 0FB64344 		movzbl	68(%rbx), %eax
  80:../source/sgl_widget.c ****         if (obj->radius > 0) {
  93              		.loc 1 80 12 view .LVU25
  94 002c 4584C9   		testb	%r9b, %r9b
  95 002f 0F849300 		je	.L6
  95      0000
  96              		.loc 1 81 13 is_stmt 1 view .LVU26
  97 0035 89442428 		movl	%eax, 40(%rsp)
  98 0039 0FB74342 		movzwl	66(%rbx), %eax
  99 003d 4989D8   		movq	%rbx, %r8
 100 0040 4889FA   		movq	%rdi, %rdx
 101 0043 4889F1   		movq	%rsi, %rcx
 102 0046 66894424 		movw	%ax, 32(%rsp)
 102      20
 103 004b E8000000 		call	sgl_draw_fill_round_rect
 103      00
 104              	.LVL8:
 105 0050 0FB64345 		movzbl	69(%rbx), %eax
 106              	.L5:
  82:../source/sgl_widget.c ****         }
  83:../source/sgl_widget.c ****         else {
  84:../source/sgl_widget.c ****             sgl_draw_fill_rect(surf, area, &obj->coords, label->bg_color, label->alpha);
  85:../source/sgl_widget.c ****         }
  86:../source/sgl_widget.c ****     }
  87:../source/sgl_widget.c **** 
  88:../source/sgl_widget.c ****     align_pos = sgl_get_text_pos(&obj->coords, label->font, label->text, 0, (sgl_align_type_t)label
 107              		.loc 1 88 5 view .LVU27
 108              		.loc 1 88 17 is_stmt 0 view .LVU28
 109 0054 83E00F   		andl	$15, %eax
 110 0057 488B5338 		movq	56(%rbx), %rdx
 111 005b 4531C9   		xorl	%r9d, %r9d
 112 005e 4889D9   		movq	%rbx, %rcx
 113 0061 89442420 		movl	%eax, 32(%rsp)
 114 0065 4C8B4330 		movq	48(%rbx), %r8
 115 0069 E8000000 		call	sgl_get_text_pos
 115      00
 116              	.LVL9:
  89:../source/sgl_widget.c **** 
  90:../source/sgl_widget.c ****     sgl_draw_string(surf, area, align_pos.x + label->offset_x, align_pos.y + label->offset_y, label
 117              		.loc 1 90 5 is_stmt 1 view .LVU29
 118              		.loc 1 90 52 is_stmt 0 view .LVU30
 119 006e 66440FBE 		movsbw	70(%rbx), %r8w
GAS LISTING C:\Users\lsw\AppData\Local\Temp\ccqiwYAv.s 			page 5


 119      4346
 120              		.loc 1 90 5 view .LVU31
 121 0074 4889F1   		movq	%rsi, %rcx
 122              	.LVL10:
 123              		.loc 1 90 73 view .LVU32
 124 0077 89C2     		movl	%eax, %edx
 125              		.loc 1 90 83 view .LVU33
 126 0079 66440FBE 		movsbw	71(%rbx), %r9w
 126      4B47
 127              		.loc 1 90 73 view .LVU34
 128 007f C1FA10   		sarl	$16, %edx
 129              		.loc 1 90 45 view .LVU35
 130 0082 4101C0   		addl	%eax, %r8d
 131              		.loc 1 90 5 view .LVU36
 132 0085 488B4338 		movq	56(%rbx), %rax
 133              	.LVL11:
 134              		.loc 1 90 76 view .LVU37
 135 0089 4101D1   		addl	%edx, %r9d
 136              		.loc 1 90 5 view .LVU38
 137 008c 450FBFC0 		movswl	%r8w, %r8d
 138 0090 4889FA   		movq	%rdi, %rdx
 139 0093 450FBFC9 		movswl	%r9w, %r9d
 140 0097 48894424 		movq	%rax, 56(%rsp)
 140      38
 141 009c 0FB64344 		movzbl	68(%rbx), %eax
 142 00a0 89442430 		movl	%eax, 48(%rsp)
 143 00a4 0FB74340 		movzwl	64(%rbx), %eax
 144 00a8 66894424 		movw	%ax, 40(%rsp)
 144      28
 145 00ad 488B4330 		movq	48(%rbx), %rax
 146 00b1 48894424 		movq	%rax, 32(%rsp)
 146      20
 147 00b6 E8000000 		call	sgl_draw_string
 147      00
 148 00bb 90       		nop
 149              	.LVL12:
  91:../source/sgl_widget.c **** }
 150              		.loc 1 91 1 view .LVU39
 151 00bc 4883C440 		addq	$64, %rsp
 152              		.cfi_remember_state
 153              		.cfi_def_cfa_offset 32
 154 00c0 5B       		popq	%rbx
 155              		.cfi_restore 3
 156              		.cfi_def_cfa_offset 24
 157              	.LVL13:
 158              		.loc 1 91 1 view .LVU40
 159 00c1 5E       		popq	%rsi
 160              		.cfi_restore 4
 161              		.cfi_def_cfa_offset 16
 162              	.LVL14:
 163              		.loc 1 91 1 view .LVU41
 164 00c2 5F       		popq	%rdi
 165              		.cfi_restore 5
 166              		.cfi_def_cfa_offset 8
 167              	.LVL15:
 168              		.loc 1 91 1 view .LVU42
 169 00c3 C3       		ret
GAS LISTING C:\Users\lsw\AppData\Local\Temp\ccqiwYAv.s 			page 6


 170              	.LVL16:
 171              		.p2align 4,,10
 172 00c4 0F1F4000 		.p2align 3
 173              	.L6:
 174              		.cfi_restore_state
  84:../source/sgl_widget.c ****         }
 175              		.loc 1 84 13 is_stmt 1 view .LVU43
 176 00c8 89442420 		movl	%eax, 32(%rsp)
 177 00cc 440FB74B 		movzwl	66(%rbx), %r9d
 177      42
 178 00d1 4989D8   		movq	%rbx, %r8
 179 00d4 4889FA   		movq	%rdi, %rdx
 180 00d7 4889F1   		movq	%rsi, %rcx
 181 00da E8000000 		call	sgl_draw_fill_rect
 181      00
 182              	.LVL17:
 183 00df 0FB64345 		movzbl	69(%rbx), %eax
 184 00e3 E96CFFFF 		jmp	.L5
 184      FF
 185              	.LVL18:
 186 00e8 0F1F8400 		.p2align 4,,10
 186      00000000 
 187              		.p2align 3
 188              	.L10:
  77:../source/sgl_widget.c **** 
 189              		.loc 1 77 5 discriminator 1 view .LVU44
 190 00f0 488D1500 		leaq	__FUNCTION__.0(%rip), %rdx
 190      000000
 191              	.LVL19:
  77:../source/sgl_widget.c **** 
 192              		.loc 1 77 5 is_stmt 0 discriminator 1 view .LVU45
 193 00f7 41B84D00 		movl	$77, %r8d
 193      0000
 194 00fd 488D0D00 		leaq	.LC1(%rip), %rcx
 194      000000
 195              	.LVL20:
  77:../source/sgl_widget.c **** 
 196              		.loc 1 77 5 discriminator 1 view .LVU46
 197 0104 E8000000 		call	sgl_assert_handler
 197      00
 198              	.LVL21:
 199 0109 E90DFFFF 		jmp	.L4
 199      FF
 200              		.cfi_endproc
 201              	.LFE95:
 202              		.seh_endproc
 203 010e 9090     		.section .rdata,"dr"
 204 0017 00       		.align 8
 205              	.LC2:
 206 0018 73676C5F 		.ascii "sgl_rect_create: malloc failed\0"
 206      72656374 
 206      5F637265 
 206      6174653A 
 206      206D616C 
 207              	.LC3:
 208 0037 5B455252 		.ascii "[ERROR] \0"
 208      4F525D20 
GAS LISTING C:\Users\lsw\AppData\Local\Temp\ccqiwYAv.s 			page 7


 208      00
 209              		.data
 210              		.align 2
 211              	.LC0:
 212 0000 FF       		.byte	255
 213 0001 FF       		.byte	255
 214 0002 00000000 		.section	.text$sgl_rect_create,"x"
 214      00000000 
 214      00000000 
 214      0000
 215              		.p2align 4
 216              		.globl	sgl_rect_create
 218              		.seh_proc	sgl_rect_create
 219              	sgl_rect_create:
 220              	.LVL22:
 221              	.LFB94:
  40:../source/sgl_widget.c ****     sgl_rectangle_t *rect = sgl_malloc(sizeof(sgl_rectangle_t));
 222              		.loc 1 40 1 is_stmt 1 view -0
 223              		.cfi_startproc
  40:../source/sgl_widget.c ****     sgl_rectangle_t *rect = sgl_malloc(sizeof(sgl_rectangle_t));
 224              		.loc 1 40 1 is_stmt 0 view .LVU48
 225 0000 56       		pushq	%rsi
 226              		.seh_pushreg	%rsi
 227              		.cfi_def_cfa_offset 16
 228              		.cfi_offset 4, -16
 229 0001 53       		pushq	%rbx
 230              		.seh_pushreg	%rbx
 231              		.cfi_def_cfa_offset 24
 232              		.cfi_offset 3, -24
 233 0002 4883EC28 		subq	$40, %rsp
 234              		.seh_stackalloc	40
 235              		.cfi_def_cfa_offset 64
 236              		.seh_endprologue
  41:../source/sgl_widget.c ****     if(rect == NULL) {
 237              		.loc 1 41 5 is_stmt 1 view .LVU49
  40:../source/sgl_widget.c ****     sgl_rectangle_t *rect = sgl_malloc(sizeof(sgl_rectangle_t));
 238              		.loc 1 40 1 is_stmt 0 view .LVU50
 239 0006 4889CE   		movq	%rcx, %rsi
  41:../source/sgl_widget.c ****     if(rect == NULL) {
 240              		.loc 1 41 29 view .LVU51
 241 0009 B9400000 		movl	$64, %ecx
 241      00
 242              	.LVL23:
  41:../source/sgl_widget.c ****     if(rect == NULL) {
 243              		.loc 1 41 29 view .LVU52
 244 000e E8000000 		call	sgl_malloc
 244      00
 245              	.LVL24:
  42:../source/sgl_widget.c ****         SGL_LOG_ERROR("sgl_rect_create: malloc failed");
 246              		.loc 1 42 7 view .LVU53
 247 0013 4885C0   		testq	%rax, %rax
  41:../source/sgl_widget.c ****     if(rect == NULL) {
 248              		.loc 1 41 29 view .LVU54
 249 0016 4889C3   		movq	%rax, %rbx
 250              	.LVL25:
  42:../source/sgl_widget.c ****         SGL_LOG_ERROR("sgl_rect_create: malloc failed");
 251              		.loc 1 42 5 is_stmt 1 view .LVU55
GAS LISTING C:\Users\lsw\AppData\Local\Temp\ccqiwYAv.s 			page 8


  42:../source/sgl_widget.c ****         SGL_LOG_ERROR("sgl_rect_create: malloc failed");
 252              		.loc 1 42 7 is_stmt 0 view .LVU56
 253 0019 744D     		je	.L14
  48:../source/sgl_widget.c **** 
 254              		.loc 1 48 5 is_stmt 1 view .LVU57
 255 001b 41B84000 		movl	$64, %r8d
 255      0000
 256 0021 31D2     		xorl	%edx, %edx
 257 0023 4889C1   		movq	%rax, %rcx
 258 0026 E8000000 		call	memset
 258      00
 259              	.LVL26:
  50:../source/sgl_widget.c ****     sgl_obj_init(&rect->obj, parent);
 260              		.loc 1 50 5 view .LVU58
  51:../source/sgl_widget.c **** 
 261              		.loc 1 51 5 view .LVU59
 262 002b 4889F2   		movq	%rsi, %rdx
 263 002e 4889D9   		movq	%rbx, %rcx
 264 0031 E8000000 		call	sgl_obj_init
 264      00
 265              	.LVL27:
  53:../source/sgl_widget.c **** 
 266              		.loc 1 53 5 view .LVU60
  53:../source/sgl_widget.c **** 
 267              		.loc 1 53 23 is_stmt 0 view .LVU61
 268 0036 488D0500 		leaq	sgl_rectangle_construct_cb(%rip), %rax
 268      000000
  55:../source/sgl_widget.c ****     rect->desc.color = SGL_THEME_COLOR;
 269              		.loc 1 55 22 view .LVU62
 270 003d C74334FF 		movl	$767, 52(%rbx)
 270      020000
  53:../source/sgl_widget.c **** 
 271              		.loc 1 53 23 view .LVU63
 272 0044 48894308 		movq	%rax, 8(%rbx)
  55:../source/sgl_widget.c ****     rect->desc.color = SGL_THEME_COLOR;
 273              		.loc 1 55 5 is_stmt 1 view .LVU64
  56:../source/sgl_widget.c ****     rect->desc.border = SGL_THEME_BORDER_WIDTH;
 274              		.loc 1 56 5 view .LVU65
  56:../source/sgl_widget.c ****     rect->desc.border = SGL_THEME_BORDER_WIDTH;
 275              		.loc 1 56 22 is_stmt 0 view .LVU66
 276 0048 0FB70500 		movzwl	.LC0(%rip), %eax
 276      000000
  59:../source/sgl_widget.c **** 
 277              		.loc 1 59 23 view .LVU67
 278 004f 48C74338 		movq	$0, 56(%rbx)
 278      00000000 
  56:../source/sgl_widget.c ****     rect->desc.border = SGL_THEME_BORDER_WIDTH;
 279              		.loc 1 56 22 view .LVU68
 280 0057 66894330 		movw	%ax, 48(%rbx)
  57:../source/sgl_widget.c ****     rect->desc.border_color = SGL_THEME_BORDER_COLOR;
 281              		.loc 1 57 5 is_stmt 1 view .LVU69
  58:../source/sgl_widget.c ****     rect->desc.pixmap = NULL;
 282              		.loc 1 58 5 view .LVU70
  59:../source/sgl_widget.c **** 
 283              		.loc 1 59 5 view .LVU71
  61:../source/sgl_widget.c **** }
 284              		.loc 1 61 5 view .LVU72
GAS LISTING C:\Users\lsw\AppData\Local\Temp\ccqiwYAv.s 			page 9


 285              	.LVL28:
 286              	.L11:
  62:../source/sgl_widget.c **** 
 287              		.loc 1 62 1 is_stmt 0 view .LVU73
 288 005b 4889D8   		movq	%rbx, %rax
 289 005e 4883C428 		addq	$40, %rsp
 290              		.cfi_remember_state
 291              		.cfi_def_cfa_offset 24
 292 0062 5B       		popq	%rbx
 293              		.cfi_restore 3
 294              		.cfi_def_cfa_offset 16
 295              	.LVL29:
  62:../source/sgl_widget.c **** 
 296              		.loc 1 62 1 view .LVU74
 297 0063 5E       		popq	%rsi
 298              		.cfi_restore 4
 299              		.cfi_def_cfa_offset 8
 300              	.LVL30:
  62:../source/sgl_widget.c **** 
 301              		.loc 1 62 1 view .LVU75
 302 0064 C3       		ret
 303              	.LVL31:
 304              		.p2align 4,,10
 305 0065 0F1F00   		.p2align 3
 306              	.L14:
 307              		.cfi_restore_state
  43:../source/sgl_widget.c ****         return NULL;
 308              		.loc 1 43 9 is_stmt 1 view .LVU76
 309 0068 488D1518 		leaq	.LC2(%rip), %rdx
 309      000000
 310 006f 488D0D37 		leaq	.LC3(%rip), %rcx
 310      000000
 311 0076 E8000000 		call	sgl_log
 311      00
 312              	.LVL32:
  44:../source/sgl_widget.c ****     }
 313              		.loc 1 44 9 view .LVU77
  44:../source/sgl_widget.c ****     }
 314              		.loc 1 44 16 is_stmt 0 view .LVU78
 315 007b EBDE     		jmp	.L11
 316              		.cfi_endproc
 317              	.LFE94:
 318              		.seh_endproc
 319 007d 909090   		.section .rdata,"dr"
 320              		.align 8
 321              	.LC4:
 322 0040 73676C5F 		.ascii "sgl_label_create: malloc failed\0"
 322      6C616265 
 322      6C5F6372 
 322      65617465 
 322      3A206D61 
 323              	.LC5:
 324 0060 00       		.ascii "\0"
 325 0061 00000000 		.section	.text$sgl_label_create,"x"
 325      00000000 
 325      00000000 
 325      000000
GAS LISTING C:\Users\lsw\AppData\Local\Temp\ccqiwYAv.s 			page 10


 326              		.p2align 4
 327              		.globl	sgl_label_create
 329              		.seh_proc	sgl_label_create
 330              	sgl_label_create:
 331              	.LVL33:
 332              	.LFB96:
  92:../source/sgl_widget.c **** 
  93:../source/sgl_widget.c **** 
  94:../source/sgl_widget.c **** /**
  95:../source/sgl_widget.c ****  * @brief create a label object
  96:../source/sgl_widget.c ****  * @param parent parent of the label
  97:../source/sgl_widget.c ****  * @return pointer to the label object
  98:../source/sgl_widget.c ****  */
  99:../source/sgl_widget.c **** sgl_obj_t* sgl_label_create(sgl_obj_t* parent)
 100:../source/sgl_widget.c **** {
 333              		.loc 1 100 1 is_stmt 1 view -0
 334              		.cfi_startproc
 335              		.loc 1 100 1 is_stmt 0 view .LVU80
 336 0000 56       		pushq	%rsi
 337              		.seh_pushreg	%rsi
 338              		.cfi_def_cfa_offset 16
 339              		.cfi_offset 4, -16
 340 0001 53       		pushq	%rbx
 341              		.seh_pushreg	%rbx
 342              		.cfi_def_cfa_offset 24
 343              		.cfi_offset 3, -24
 344 0002 4883EC28 		subq	$40, %rsp
 345              		.seh_stackalloc	40
 346              		.cfi_def_cfa_offset 64
 347              		.seh_endprologue
 101:../source/sgl_widget.c ****     sgl_label_t *label = sgl_malloc(sizeof(sgl_label_t));
 348              		.loc 1 101 5 is_stmt 1 view .LVU81
 100:../source/sgl_widget.c ****     sgl_label_t *label = sgl_malloc(sizeof(sgl_label_t));
 349              		.loc 1 100 1 is_stmt 0 view .LVU82
 350 0006 4889CE   		movq	%rcx, %rsi
 351              		.loc 1 101 26 view .LVU83
 352 0009 B9480000 		movl	$72, %ecx
 352      00
 353              	.LVL34:
 354              		.loc 1 101 26 view .LVU84
 355 000e E8000000 		call	sgl_malloc
 355      00
 356              	.LVL35:
 102:../source/sgl_widget.c ****     if(label == NULL) {
 357              		.loc 1 102 7 view .LVU85
 358 0013 4885C0   		testq	%rax, %rax
 101:../source/sgl_widget.c ****     sgl_label_t *label = sgl_malloc(sizeof(sgl_label_t));
 359              		.loc 1 101 26 view .LVU86
 360 0016 4889C3   		movq	%rax, %rbx
 361              	.LVL36:
 362              		.loc 1 102 5 is_stmt 1 view .LVU87
 363              		.loc 1 102 7 is_stmt 0 view .LVU88
 364 0019 7455     		je	.L18
 103:../source/sgl_widget.c ****         SGL_LOG_ERROR("sgl_label_create: malloc failed");
 104:../source/sgl_widget.c ****         return NULL;
 105:../source/sgl_widget.c ****     }
 106:../source/sgl_widget.c **** 
GAS LISTING C:\Users\lsw\AppData\Local\Temp\ccqiwYAv.s 			page 11


 107:../source/sgl_widget.c ****     /* set object all member to zero */
 108:../source/sgl_widget.c ****     memset(label, 0, sizeof(sgl_label_t));
 365              		.loc 1 108 5 is_stmt 1 view .LVU89
 366 001b 41B84800 		movl	$72, %r8d
 366      0000
 367 0021 31D2     		xorl	%edx, %edx
 368 0023 4889C1   		movq	%rax, %rcx
 369 0026 E8000000 		call	memset
 369      00
 370              	.LVL37:
 109:../source/sgl_widget.c **** 
 110:../source/sgl_widget.c ****     sgl_obj_t *obj = &label->obj;
 371              		.loc 1 110 5 view .LVU90
 111:../source/sgl_widget.c ****     sgl_obj_init(&label->obj, parent);
 372              		.loc 1 111 5 view .LVU91
 373 002b 4889F2   		movq	%rsi, %rdx
 374 002e 4889D9   		movq	%rbx, %rcx
 375 0031 E8000000 		call	sgl_obj_init
 375      00
 376              	.LVL38:
 112:../source/sgl_widget.c ****     obj->construct_fn = sgl_label_construct_cb;
 377              		.loc 1 112 5 view .LVU92
 378              		.loc 1 112 23 is_stmt 0 view .LVU93
 379 0036 488D0500 		leaq	sgl_label_construct_cb(%rip), %rax
 379      000000
 380 003d 48894308 		movq	%rax, 8(%rbx)
 113:../source/sgl_widget.c **** 
 114:../source/sgl_widget.c ****     label->alpha = SGL_ALPHA_MAX;
 381              		.loc 1 114 5 is_stmt 1 view .LVU94
 115:../source/sgl_widget.c ****     label->bg_flag = 0;
 382              		.loc 1 115 5 view .LVU95
 114:../source/sgl_widget.c ****     label->bg_flag = 0;
 383              		.loc 1 114 18 is_stmt 0 view .LVU96
 384 0041 0FB74344 		movzwl	68(%rbx), %eax
 385 0045 662500EF 		andw	$-4352, %ax
 386 0049 0CFF     		orb	$-1, %al
 387 004b 66894344 		movw	%ax, 68(%rbx)
 116:../source/sgl_widget.c ****     label->color = SGL_THEME_TEXT_COLOR;
 388              		.loc 1 116 5 is_stmt 1 view .LVU97
 389              		.loc 1 116 18 is_stmt 0 view .LVU98
 390 004f 31C0     		xorl	%eax, %eax
 391 0051 66894340 		movw	%ax, 64(%rbx)
 117:../source/sgl_widget.c ****     label->text = "";
 392              		.loc 1 117 5 is_stmt 1 view .LVU99
 393              		.loc 1 117 17 is_stmt 0 view .LVU100
 394 0055 488D0560 		leaq	.LC5(%rip), %rax
 394      000000
 395 005c 48894330 		movq	%rax, 48(%rbx)
 118:../source/sgl_widget.c **** 
 119:../source/sgl_widget.c ****     return obj;
 396              		.loc 1 119 5 is_stmt 1 view .LVU101
 397              	.LVL39:
 398              	.L15:
 120:../source/sgl_widget.c **** }
 399              		.loc 1 120 1 is_stmt 0 view .LVU102
 400 0060 4889D8   		movq	%rbx, %rax
 401 0063 4883C428 		addq	$40, %rsp
GAS LISTING C:\Users\lsw\AppData\Local\Temp\ccqiwYAv.s 			page 12


 402              		.cfi_remember_state
 403              		.cfi_def_cfa_offset 24
 404 0067 5B       		popq	%rbx
 405              		.cfi_restore 3
 406              		.cfi_def_cfa_offset 16
 407              	.LVL40:
 408              		.loc 1 120 1 view .LVU103
 409 0068 5E       		popq	%rsi
 410              		.cfi_restore 4
 411              		.cfi_def_cfa_offset 8
 412              	.LVL41:
 413              		.loc 1 120 1 view .LVU104
 414 0069 C3       		ret
 415              	.LVL42:
 416 006a 660F1F44 		.p2align 4,,10
 416      0000
 417              		.p2align 3
 418              	.L18:
 419              		.cfi_restore_state
 103:../source/sgl_widget.c ****         return NULL;
 420              		.loc 1 103 9 is_stmt 1 view .LVU105
 421 0070 488D1540 		leaq	.LC4(%rip), %rdx
 421      000000
 422 0077 488D0D37 		leaq	.LC3(%rip), %rcx
 422      000000
 423 007e E8000000 		call	sgl_log
 423      00
 424              	.LVL43:
 104:../source/sgl_widget.c ****     }
 425              		.loc 1 104 9 view .LVU106
 104:../source/sgl_widget.c ****     }
 426              		.loc 1 104 16 is_stmt 0 view .LVU107
 427 0083 EBDB     		jmp	.L15
 428              		.cfi_endproc
 429              	.LFE96:
 430              		.seh_endproc
 431 0085 90909090 		.section	.rdata$__FUNCTION__.0,"dr"
 431      90909090 
 431      909090
 432              		.align 16
 433              	__FUNCTION__.0:
 434 0000 73676C5F 		.ascii "sgl_label_construct_cb\0"
 434      6C616265 
 434      6C5F636F 
 434      6E737472 
 434      7563745F 
 435 0017 00000000 		.text
 435      00000000 
 435      00
 436              	.Letext0:
 437              		.file 2 "C:/mingw64/lib/gcc/x86_64-w64-mingw32/13.2.0/include/stdint-gcc.h"
 438              		.file 3 "C:/mingw64/x86_64-w64-mingw32/include/corecrt.h"
 439              		.file 4 "../source/sgl_core.h"
 440              		.file 5 "../source/sgl_draw.h"
 441              		.file 6 "../source/sgl_widget.h"
 442              		.file 7 "C:/mingw64/x86_64-w64-mingw32/include/string.h"
 443              		.file 8 "../source/sgl_mm.h"
GAS LISTING C:\Users\lsw\AppData\Local\Temp\ccqiwYAv.s 			page 13

